Archive member included to satisfy reference by file (symbol)

/home/mx3g/linux/mpu/nxp/frdm-imx8mp/tmp/work/imx8mpfrdm-poky-linux/imx-atf/2.10+git/git/build-optee/imx8mp/release/lib/libc.a(memcmp.o)
                              /home/mx3g/linux/mpu/nxp/frdm-imx8mp/tmp/work/imx8mpfrdm-poky-linux/imx-atf/2.10+git/git/build-optee/imx8mp/release/bl31/gpc_common.o (memcmp)
/home/mx3g/linux/mpu/nxp/frdm-imx8mp/tmp/work/imx8mpfrdm-poky-linux/imx-atf/2.10+git/git/build-optee/imx8mp/release/lib/libc.a(memcpy.o)
                              /home/mx3g/linux/mpu/nxp/frdm-imx8mp/tmp/work/imx8mpfrdm-poky-linux/imx-atf/2.10+git/git/build-optee/imx8mp/release/bl31/context_mgmt.o (memcpy)
/home/mx3g/linux/mpu/nxp/frdm-imx8mp/tmp/work/imx8mpfrdm-poky-linux/imx-atf/2.10+git/git/build-optee/imx8mp/release/lib/libc.a(memmove.o)
                              /home/mx3g/linux/mpu/nxp/frdm-imx8mp/tmp/work/imx8mpfrdm-poky-linux/imx-atf/2.10+git/git/build-optee/imx8mp/release/bl31/xlat_tables_core.o (memmove)
/home/mx3g/linux/mpu/nxp/frdm-imx8mp/tmp/work/imx8mpfrdm-poky-linux/imx-atf/2.10+git/git/build-optee/imx8mp/release/lib/libc.a(memset.o)
                              /home/mx3g/linux/mpu/nxp/frdm-imx8mp/tmp/work/imx8mpfrdm-poky-linux/imx-atf/2.10+git/git/build-optee/imx8mp/release/bl31/runtime_svc.o (memset)
/home/mx3g/linux/mpu/nxp/frdm-imx8mp/tmp/work/imx8mpfrdm-poky-linux/imx-atf/2.10+git/git/build-optee/imx8mp/release/lib/libc.a(printf.o)
                              /home/mx3g/linux/mpu/nxp/frdm-imx8mp/tmp/work/imx8mpfrdm-poky-linux/imx-atf/2.10+git/git/build-optee/imx8mp/release/bl31/tf_log.o (vprintf)
/home/mx3g/linux/mpu/nxp/frdm-imx8mp/tmp/work/imx8mpfrdm-poky-linux/imx-atf/2.10+git/git/build-optee/imx8mp/release/lib/libc.a(strchr.o)
                              /home/mx3g/linux/mpu/nxp/frdm-imx8mp/tmp/work/imx8mpfrdm-poky-linux/imx-atf/2.10+git/git/build-optee/imx8mp/release/bl31/imx_sip_handler.o (strchr)
/home/mx3g/linux/mpu/nxp/frdm-imx8mp/tmp/work/imx8mpfrdm-poky-linux/imx-atf/2.10+git/git/build-optee/imx8mp/release/lib/libc.a(strlen.o)
                              /home/mx3g/linux/mpu/nxp/frdm-imx8mp/tmp/work/imx8mpfrdm-poky-linux/imx-atf/2.10+git/git/build-optee/imx8mp/release/bl31/gpc_common.o (strlen)

Discarded input sections

 .text          0x0000000000000000        0x0 /home/mx3g/linux/mpu/nxp/frdm-imx8mp/tmp/work/imx8mpfrdm-poky-linux/imx-atf/2.10+git/git/build-optee/imx8mp/release/bl31/build_message.o
 .data          0x0000000000000000        0x0 /home/mx3g/linux/mpu/nxp/frdm-imx8mp/tmp/work/imx8mpfrdm-poky-linux/imx-atf/2.10+git/git/build-optee/imx8mp/release/bl31/build_message.o
 .bss           0x0000000000000000        0x0 /home/mx3g/linux/mpu/nxp/frdm-imx8mp/tmp/work/imx8mpfrdm-poky-linux/imx-atf/2.10+git/git/build-optee/imx8mp/release/bl31/build_message.o
 .rodata.version
                0x0000000000000000        0x8 /home/mx3g/linux/mpu/nxp/frdm-imx8mp/tmp/work/imx8mpfrdm-poky-linux/imx-atf/2.10+git/git/build-optee/imx8mp/release/bl31/build_message.o
 .text          0x0000000000000000        0x0 /home/mx3g/linux/mpu/nxp/frdm-imx8mp/tmp/work/imx8mpfrdm-poky-linux/imx-atf/2.10+git/git/build-optee/imx8mp/release/bl31/bl31_context_mgmt.o
 .data          0x0000000000000000        0x0 /home/mx3g/linux/mpu/nxp/frdm-imx8mp/tmp/work/imx8mpfrdm-poky-linux/imx-atf/2.10+git/git/build-optee/imx8mp/release/bl31/bl31_context_mgmt.o
 .bss           0x0000000000000000        0x0 /home/mx3g/linux/mpu/nxp/frdm-imx8mp/tmp/work/imx8mpfrdm-poky-linux/imx-atf/2.10+git/git/build-optee/imx8mp/release/bl31/bl31_context_mgmt.o
 .eh_frame      0x0000000000000000       0x88 /home/mx3g/linux/mpu/nxp/frdm-imx8mp/tmp/work/imx8mpfrdm-poky-linux/imx-atf/2.10+git/git/build-optee/imx8mp/release/bl31/bl31_context_mgmt.o
 .text          0x0000000000000000        0x0 /home/mx3g/linux/mpu/nxp/frdm-imx8mp/tmp/work/imx8mpfrdm-poky-linux/imx-atf/2.10+git/git/build-optee/imx8mp/release/bl31/bl31_main.o
 .data          0x0000000000000000        0x0 /home/mx3g/linux/mpu/nxp/frdm-imx8mp/tmp/work/imx8mpfrdm-poky-linux/imx-atf/2.10+git/git/build-optee/imx8mp/release/bl31/bl31_main.o
 .bss           0x0000000000000000        0x0 /home/mx3g/linux/mpu/nxp/frdm-imx8mp/tmp/work/imx8mpfrdm-poky-linux/imx-atf/2.10+git/git/build-optee/imx8mp/release/bl31/bl31_main.o
 .text.bl31_lib_init
                0x0000000000000000        0x4 /home/mx3g/linux/mpu/nxp/frdm-imx8mp/tmp/work/imx8mpfrdm-poky-linux/imx-atf/2.10+git/git/build-optee/imx8mp/release/bl31/bl31_main.o
 .text.bl31_set_next_image_type
                0x0000000000000000        0xc /home/mx3g/linux/mpu/nxp/frdm-imx8mp/tmp/work/imx8mpfrdm-poky-linux/imx-atf/2.10+git/git/build-optee/imx8mp/release/bl31/bl31_main.o
 .text.bl31_get_next_image_type
                0x0000000000000000        0xc /home/mx3g/linux/mpu/nxp/frdm-imx8mp/tmp/work/imx8mpfrdm-poky-linux/imx-atf/2.10+git/git/build-optee/imx8mp/release/bl31/bl31_main.o
 .eh_frame      0x0000000000000000       0xf0 /home/mx3g/linux/mpu/nxp/frdm-imx8mp/tmp/work/imx8mpfrdm-poky-linux/imx-atf/2.10+git/git/build-optee/imx8mp/release/bl31/bl31_main.o
 .text          0x0000000000000000        0x0 /home/mx3g/linux/mpu/nxp/frdm-imx8mp/tmp/work/imx8mpfrdm-poky-linux/imx-atf/2.10+git/git/build-optee/imx8mp/release/bl31/bl31_traps.o
 .data          0x0000000000000000        0x0 /home/mx3g/linux/mpu/nxp/frdm-imx8mp/tmp/work/imx8mpfrdm-poky-linux/imx-atf/2.10+git/git/build-optee/imx8mp/release/bl31/bl31_traps.o
 .bss           0x0000000000000000        0x0 /home/mx3g/linux/mpu/nxp/frdm-imx8mp/tmp/work/imx8mpfrdm-poky-linux/imx-atf/2.10+git/git/build-optee/imx8mp/release/bl31/bl31_traps.o
 .eh_frame      0x0000000000000000       0x28 /home/mx3g/linux/mpu/nxp/frdm-imx8mp/tmp/work/imx8mpfrdm-poky-linux/imx-atf/2.10+git/git/build-optee/imx8mp/release/bl31/bl31_traps.o
 .text          0x0000000000000000        0x0 /home/mx3g/linux/mpu/nxp/frdm-imx8mp/tmp/work/imx8mpfrdm-poky-linux/imx-atf/2.10+git/git/build-optee/imx8mp/release/bl31/interrupt_mgmt.o
 .data          0x0000000000000000        0x0 /home/mx3g/linux/mpu/nxp/frdm-imx8mp/tmp/work/imx8mpfrdm-poky-linux/imx-atf/2.10+git/git/build-optee/imx8mp/release/bl31/interrupt_mgmt.o
 .bss           0x0000000000000000        0x0 /home/mx3g/linux/mpu/nxp/frdm-imx8mp/tmp/work/imx8mpfrdm-poky-linux/imx-atf/2.10+git/git/build-optee/imx8mp/release/bl31/interrupt_mgmt.o
 .text.disable_intr_rm_local
                0x0000000000000000       0x34 /home/mx3g/linux/mpu/nxp/frdm-imx8mp/tmp/work/imx8mpfrdm-poky-linux/imx-atf/2.10+git/git/build-optee/imx8mp/release/bl31/interrupt_mgmt.o
 .text.enable_intr_rm_local
                0x0000000000000000       0x50 /home/mx3g/linux/mpu/nxp/frdm-imx8mp/tmp/work/imx8mpfrdm-poky-linux/imx-atf/2.10+git/git/build-optee/imx8mp/release/bl31/interrupt_mgmt.o
 .eh_frame      0x0000000000000000      0x120 /home/mx3g/linux/mpu/nxp/frdm-imx8mp/tmp/work/imx8mpfrdm-poky-linux/imx-atf/2.10+git/git/build-optee/imx8mp/release/bl31/interrupt_mgmt.o
 .text          0x0000000000000000        0x0 /home/mx3g/linux/mpu/nxp/frdm-imx8mp/tmp/work/imx8mpfrdm-poky-linux/imx-atf/2.10+git/git/build-optee/imx8mp/release/bl31/bl_common.o
 .data          0x0000000000000000        0x0 /home/mx3g/linux/mpu/nxp/frdm-imx8mp/tmp/work/imx8mpfrdm-poky-linux/imx-atf/2.10+git/git/build-optee/imx8mp/release/bl31/bl_common.o
 .bss           0x0000000000000000        0x0 /home/mx3g/linux/mpu/nxp/frdm-imx8mp/tmp/work/imx8mpfrdm-poky-linux/imx-atf/2.10+git/git/build-optee/imx8mp/release/bl31/bl_common.o
 .text.page_align
                0x0000000000000000       0x1c /home/mx3g/linux/mpu/nxp/frdm-imx8mp/tmp/work/imx8mpfrdm-poky-linux/imx-atf/2.10+git/git/build-optee/imx8mp/release/bl31/bl_common.o
 .text.load_auth_image
                0x0000000000000000       0xf4 /home/mx3g/linux/mpu/nxp/frdm-imx8mp/tmp/work/imx8mpfrdm-poky-linux/imx-atf/2.10+git/git/build-optee/imx8mp/release/bl31/bl_common.o
 .text.get_version
                0x0000000000000000        0xc /home/mx3g/linux/mpu/nxp/frdm-imx8mp/tmp/work/imx8mpfrdm-poky-linux/imx-atf/2.10+git/git/build-optee/imx8mp/release/bl31/bl_common.o
 .eh_frame      0x0000000000000000       0x90 /home/mx3g/linux/mpu/nxp/frdm-imx8mp/tmp/work/imx8mpfrdm-poky-linux/imx-atf/2.10+git/git/build-optee/imx8mp/release/bl31/bl_common.o
 .text          0x0000000000000000        0x0 /home/mx3g/linux/mpu/nxp/frdm-imx8mp/tmp/work/imx8mpfrdm-poky-linux/imx-atf/2.10+git/git/build-optee/imx8mp/release/bl31/runtime_svc.o
 .data          0x0000000000000000        0x0 /home/mx3g/linux/mpu/nxp/frdm-imx8mp/tmp/work/imx8mpfrdm-poky-linux/imx-atf/2.10+git/git/build-optee/imx8mp/release/bl31/runtime_svc.o
 .bss           0x0000000000000000        0x0 /home/mx3g/linux/mpu/nxp/frdm-imx8mp/tmp/work/imx8mpfrdm-poky-linux/imx-atf/2.10+git/git/build-optee/imx8mp/release/bl31/runtime_svc.o
 .text.handle_runtime_svc
                0x0000000000000000       0x68 /home/mx3g/linux/mpu/nxp/frdm-imx8mp/tmp/work/imx8mpfrdm-poky-linux/imx-atf/2.10+git/git/build-optee/imx8mp/release/bl31/runtime_svc.o
 .eh_frame      0x0000000000000000       0x60 /home/mx3g/linux/mpu/nxp/frdm-imx8mp/tmp/work/imx8mpfrdm-poky-linux/imx-atf/2.10+git/git/build-optee/imx8mp/release/bl31/runtime_svc.o
 .text          0x0000000000000000        0x0 /home/mx3g/linux/mpu/nxp/frdm-imx8mp/tmp/work/imx8mpfrdm-poky-linux/imx-atf/2.10+git/git/build-optee/imx8mp/release/bl31/tf_log.o
 .data          0x0000000000000000        0x0 /home/mx3g/linux/mpu/nxp/frdm-imx8mp/tmp/work/imx8mpfrdm-poky-linux/imx-atf/2.10+git/git/build-optee/imx8mp/release/bl31/tf_log.o
 .bss           0x0000000000000000        0x0 /home/mx3g/linux/mpu/nxp/frdm-imx8mp/tmp/work/imx8mpfrdm-poky-linux/imx-atf/2.10+git/git/build-optee/imx8mp/release/bl31/tf_log.o
 .text.tf_log_newline
                0x0000000000000000       0x20 /home/mx3g/linux/mpu/nxp/frdm-imx8mp/tmp/work/imx8mpfrdm-poky-linux/imx-atf/2.10+git/git/build-optee/imx8mp/release/bl31/tf_log.o
 .text.tf_log_set_max_level
                0x0000000000000000       0x14 /home/mx3g/linux/mpu/nxp/frdm-imx8mp/tmp/work/imx8mpfrdm-poky-linux/imx-atf/2.10+git/git/build-optee/imx8mp/release/bl31/tf_log.o
 .eh_frame      0x0000000000000000       0x68 /home/mx3g/linux/mpu/nxp/frdm-imx8mp/tmp/work/imx8mpfrdm-poky-linux/imx-atf/2.10+git/git/build-optee/imx8mp/release/bl31/tf_log.o
 .text          0x0000000000000000        0x0 /home/mx3g/linux/mpu/nxp/frdm-imx8mp/tmp/work/imx8mpfrdm-poky-linux/imx-atf/2.10+git/git/build-optee/imx8mp/release/bl31/arm_gicv3_common.o
 .data          0x0000000000000000        0x0 /home/mx3g/linux/mpu/nxp/frdm-imx8mp/tmp/work/imx8mpfrdm-poky-linux/imx-atf/2.10+git/git/build-optee/imx8mp/release/bl31/arm_gicv3_common.o
 .bss           0x0000000000000000        0x0 /home/mx3g/linux/mpu/nxp/frdm-imx8mp/tmp/work/imx8mpfrdm-poky-linux/imx-atf/2.10+git/git/build-optee/imx8mp/release/bl31/arm_gicv3_common.o
 .eh_frame      0x0000000000000000       0x40 /home/mx3g/linux/mpu/nxp/frdm-imx8mp/tmp/work/imx8mpfrdm-poky-linux/imx-atf/2.10+git/git/build-optee/imx8mp/release/bl31/arm_gicv3_common.o
 .text          0x0000000000000000        0x0 /home/mx3g/linux/mpu/nxp/frdm-imx8mp/tmp/work/imx8mpfrdm-poky-linux/imx-atf/2.10+git/git/build-optee/imx8mp/release/bl31/gic-x00.o
 .data          0x0000000000000000        0x0 /home/mx3g/linux/mpu/nxp/frdm-imx8mp/tmp/work/imx8mpfrdm-poky-linux/imx-atf/2.10+git/git/build-optee/imx8mp/release/bl31/gic-x00.o
 .bss           0x0000000000000000        0x0 /home/mx3g/linux/mpu/nxp/frdm-imx8mp/tmp/work/imx8mpfrdm-poky-linux/imx-atf/2.10+git/git/build-optee/imx8mp/release/bl31/gic-x00.o
 .text.gicv3_rdistif_off
                0x0000000000000000        0x4 /home/mx3g/linux/mpu/nxp/frdm-imx8mp/tmp/work/imx8mpfrdm-poky-linux/imx-atf/2.10+git/git/build-optee/imx8mp/release/bl31/gic-x00.o
 .eh_frame      0x0000000000000000       0x88 /home/mx3g/linux/mpu/nxp/frdm-imx8mp/tmp/work/imx8mpfrdm-poky-linux/imx-atf/2.10+git/git/build-optee/imx8mp/release/bl31/gic-x00.o
 .text          0x0000000000000000        0x0 /home/mx3g/linux/mpu/nxp/frdm-imx8mp/tmp/work/imx8mpfrdm-poky-linux/imx-atf/2.10+git/git/build-optee/imx8mp/release/bl31/gicdv3_helpers.o
 .data          0x0000000000000000        0x0 /home/mx3g/linux/mpu/nxp/frdm-imx8mp/tmp/work/imx8mpfrdm-poky-linux/imx-atf/2.10+git/git/build-optee/imx8mp/release/bl31/gicdv3_helpers.o
 .bss           0x0000000000000000        0x0 /home/mx3g/linux/mpu/nxp/frdm-imx8mp/tmp/work/imx8mpfrdm-poky-linux/imx-atf/2.10+git/git/build-optee/imx8mp/release/bl31/gicdv3_helpers.o
 .text.gicd_get_igroupr
                0x0000000000000000       0x1c /home/mx3g/linux/mpu/nxp/frdm-imx8mp/tmp/work/imx8mpfrdm-poky-linux/imx-atf/2.10+git/git/build-optee/imx8mp/release/bl31/gicdv3_helpers.o
 .text.gicd_set_igroupr
                0x0000000000000000       0x24 /home/mx3g/linux/mpu/nxp/frdm-imx8mp/tmp/work/imx8mpfrdm-poky-linux/imx-atf/2.10+git/git/build-optee/imx8mp/release/bl31/gicdv3_helpers.o
 .text.gicd_get_igrpmodr
                0x0000000000000000       0x1c /home/mx3g/linux/mpu/nxp/frdm-imx8mp/tmp/work/imx8mpfrdm-poky-linux/imx-atf/2.10+git/git/build-optee/imx8mp/release/bl31/gicdv3_helpers.o
 .text.gicd_set_icenabler
                0x0000000000000000       0x1c /home/mx3g/linux/mpu/nxp/frdm-imx8mp/tmp/work/imx8mpfrdm-poky-linux/imx-atf/2.10+git/git/build-optee/imx8mp/release/bl31/gicdv3_helpers.o
 .text.gicd_set_icpendr
                0x0000000000000000       0x1c /home/mx3g/linux/mpu/nxp/frdm-imx8mp/tmp/work/imx8mpfrdm-poky-linux/imx-atf/2.10+git/git/build-optee/imx8mp/release/bl31/gicdv3_helpers.o
 .text.gicd_get_isactiver
                0x0000000000000000       0x1c /home/mx3g/linux/mpu/nxp/frdm-imx8mp/tmp/work/imx8mpfrdm-poky-linux/imx-atf/2.10+git/git/build-optee/imx8mp/release/bl31/gicdv3_helpers.o
 .text.gicd_set_isactiver
                0x0000000000000000       0x1c /home/mx3g/linux/mpu/nxp/frdm-imx8mp/tmp/work/imx8mpfrdm-poky-linux/imx-atf/2.10+git/git/build-optee/imx8mp/release/bl31/gicdv3_helpers.o
 .text.gicd_set_ispendr
                0x0000000000000000       0x1c /home/mx3g/linux/mpu/nxp/frdm-imx8mp/tmp/work/imx8mpfrdm-poky-linux/imx-atf/2.10+git/git/build-optee/imx8mp/release/bl31/gicdv3_helpers.o
 .eh_frame      0x0000000000000000      0x270 /home/mx3g/linux/mpu/nxp/frdm-imx8mp/tmp/work/imx8mpfrdm-poky-linux/imx-atf/2.10+git/git/build-optee/imx8mp/release/bl31/gicdv3_helpers.o
 .text          0x0000000000000000        0x0 /home/mx3g/linux/mpu/nxp/frdm-imx8mp/tmp/work/imx8mpfrdm-poky-linux/imx-atf/2.10+git/git/build-optee/imx8mp/release/bl31/gicrv3_helpers.o
 .data          0x0000000000000000        0x0 /home/mx3g/linux/mpu/nxp/frdm-imx8mp/tmp/work/imx8mpfrdm-poky-linux/imx-atf/2.10+git/git/build-optee/imx8mp/release/bl31/gicrv3_helpers.o
 .bss           0x0000000000000000        0x0 /home/mx3g/linux/mpu/nxp/frdm-imx8mp/tmp/work/imx8mpfrdm-poky-linux/imx-atf/2.10+git/git/build-optee/imx8mp/release/bl31/gicrv3_helpers.o
 .text.gicr_read_ipriorityr
                0x0000000000000000       0x14 /home/mx3g/linux/mpu/nxp/frdm-imx8mp/tmp/work/imx8mpfrdm-poky-linux/imx-atf/2.10+git/git/build-optee/imx8mp/release/bl31/gicrv3_helpers.o
 .text.gicr_get_igroupr
                0x0000000000000000       0x20 /home/mx3g/linux/mpu/nxp/frdm-imx8mp/tmp/work/imx8mpfrdm-poky-linux/imx-atf/2.10+git/git/build-optee/imx8mp/release/bl31/gicrv3_helpers.o
 .text.gicr_set_igroupr
                0x0000000000000000       0x28 /home/mx3g/linux/mpu/nxp/frdm-imx8mp/tmp/work/imx8mpfrdm-poky-linux/imx-atf/2.10+git/git/build-optee/imx8mp/release/bl31/gicrv3_helpers.o
 .text.gicr_get_igrpmodr
                0x0000000000000000       0x20 /home/mx3g/linux/mpu/nxp/frdm-imx8mp/tmp/work/imx8mpfrdm-poky-linux/imx-atf/2.10+git/git/build-optee/imx8mp/release/bl31/gicrv3_helpers.o
 .text.gicr_set_icenabler
                0x0000000000000000       0x20 /home/mx3g/linux/mpu/nxp/frdm-imx8mp/tmp/work/imx8mpfrdm-poky-linux/imx-atf/2.10+git/git/build-optee/imx8mp/release/bl31/gicrv3_helpers.o
 .text.gicr_get_isactiver
                0x0000000000000000       0x20 /home/mx3g/linux/mpu/nxp/frdm-imx8mp/tmp/work/imx8mpfrdm-poky-linux/imx-atf/2.10+git/git/build-optee/imx8mp/release/bl31/gicrv3_helpers.o
 .text.gicr_set_icpendr
                0x0000000000000000       0x20 /home/mx3g/linux/mpu/nxp/frdm-imx8mp/tmp/work/imx8mpfrdm-poky-linux/imx-atf/2.10+git/git/build-optee/imx8mp/release/bl31/gicrv3_helpers.o
 .text.gicr_set_ispendr
                0x0000000000000000       0x20 /home/mx3g/linux/mpu/nxp/frdm-imx8mp/tmp/work/imx8mpfrdm-poky-linux/imx-atf/2.10+git/git/build-optee/imx8mp/release/bl31/gicrv3_helpers.o
 .eh_frame      0x0000000000000000      0x140 /home/mx3g/linux/mpu/nxp/frdm-imx8mp/tmp/work/imx8mpfrdm-poky-linux/imx-atf/2.10+git/git/build-optee/imx8mp/release/bl31/gicrv3_helpers.o
 .text          0x0000000000000000        0x0 /home/mx3g/linux/mpu/nxp/frdm-imx8mp/tmp/work/imx8mpfrdm-poky-linux/imx-atf/2.10+git/git/build-optee/imx8mp/release/bl31/gicv3_helpers.o
 .data          0x0000000000000000        0x0 /home/mx3g/linux/mpu/nxp/frdm-imx8mp/tmp/work/imx8mpfrdm-poky-linux/imx-atf/2.10+git/git/build-optee/imx8mp/release/bl31/gicv3_helpers.o
 .bss           0x0000000000000000        0x0 /home/mx3g/linux/mpu/nxp/frdm-imx8mp/tmp/work/imx8mpfrdm-poky-linux/imx-atf/2.10+git/git/build-optee/imx8mp/release/bl31/gicv3_helpers.o
 .text.gicv3_get_multichip_base
                0x0000000000000000        0x8 /home/mx3g/linux/mpu/nxp/frdm-imx8mp/tmp/work/imx8mpfrdm-poky-linux/imx-atf/2.10+git/git/build-optee/imx8mp/release/bl31/gicv3_helpers.o
 .text.gicv3_clear_spi_cluster
                0x0000000000000000       0x90 /home/mx3g/linux/mpu/nxp/frdm-imx8mp/tmp/work/imx8mpfrdm-poky-linux/imx-atf/2.10+git/git/build-optee/imx8mp/release/bl31/gicv3_helpers.o
 .text.gicv3_rdistif_get_number_frames
                0x0000000000000000       0x24 /home/mx3g/linux/mpu/nxp/frdm-imx8mp/tmp/work/imx8mpfrdm-poky-linux/imx-atf/2.10+git/git/build-optee/imx8mp/release/bl31/gicv3_helpers.o
 .text.gicv3_get_component_partnum
                0x0000000000000000       0x20 /home/mx3g/linux/mpu/nxp/frdm-imx8mp/tmp/work/imx8mpfrdm-poky-linux/imx-atf/2.10+git/git/build-optee/imx8mp/release/bl31/gicv3_helpers.o
 .eh_frame      0x0000000000000000      0x1c8 /home/mx3g/linux/mpu/nxp/frdm-imx8mp/tmp/work/imx8mpfrdm-poky-linux/imx-atf/2.10+git/git/build-optee/imx8mp/release/bl31/gicv3_helpers.o
 .text          0x0000000000000000        0x0 /home/mx3g/linux/mpu/nxp/frdm-imx8mp/tmp/work/imx8mpfrdm-poky-linux/imx-atf/2.10+git/git/build-optee/imx8mp/release/bl31/gicv3_main.o
 .data          0x0000000000000000        0x0 /home/mx3g/linux/mpu/nxp/frdm-imx8mp/tmp/work/imx8mpfrdm-poky-linux/imx-atf/2.10+git/git/build-optee/imx8mp/release/bl31/gicv3_main.o
 .bss           0x0000000000000000        0x0 /home/mx3g/linux/mpu/nxp/frdm-imx8mp/tmp/work/imx8mpfrdm-poky-linux/imx-atf/2.10+git/git/build-optee/imx8mp/release/bl31/gicv3_main.o
 .text.is_sgi_ppi
                0x0000000000000000       0x30 /home/mx3g/linux/mpu/nxp/frdm-imx8mp/tmp/work/imx8mpfrdm-poky-linux/imx-atf/2.10+git/git/build-optee/imx8mp/release/bl31/gicv3_main.o
 .text.gicv3_distif_clear
                0x0000000000000000       0x10 /home/mx3g/linux/mpu/nxp/frdm-imx8mp/tmp/work/imx8mpfrdm-poky-linux/imx-atf/2.10+git/git/build-optee/imx8mp/release/bl31/gicv3_main.o
 .text.gicv3_rdistif_off
                0x0000000000000000        0x4 /home/mx3g/linux/mpu/nxp/frdm-imx8mp/tmp/work/imx8mpfrdm-poky-linux/imx-atf/2.10+git/git/build-optee/imx8mp/release/bl31/gicv3_main.o
 .text.gicv3_rdistif_on
                0x0000000000000000        0x4 /home/mx3g/linux/mpu/nxp/frdm-imx8mp/tmp/work/imx8mpfrdm-poky-linux/imx-atf/2.10+git/git/build-optee/imx8mp/release/bl31/gicv3_main.o
 .text.gicv3_get_pending_interrupt_id
                0x0000000000000000       0x20 /home/mx3g/linux/mpu/nxp/frdm-imx8mp/tmp/work/imx8mpfrdm-poky-linux/imx-atf/2.10+git/git/build-optee/imx8mp/release/bl31/gicv3_main.o
 .text.gicv3_get_interrupt_group
                0x0000000000000000       0xac /home/mx3g/linux/mpu/nxp/frdm-imx8mp/tmp/work/imx8mpfrdm-poky-linux/imx-atf/2.10+git/git/build-optee/imx8mp/release/bl31/gicv3_main.o
 .text.gicv3_its_save_disable
                0x0000000000000000       0x50 /home/mx3g/linux/mpu/nxp/frdm-imx8mp/tmp/work/imx8mpfrdm-poky-linux/imx-atf/2.10+git/git/build-optee/imx8mp/release/bl31/gicv3_main.o
 .text.gicv3_its_restore
                0x0000000000000000       0x40 /home/mx3g/linux/mpu/nxp/frdm-imx8mp/tmp/work/imx8mpfrdm-poky-linux/imx-atf/2.10+git/git/build-optee/imx8mp/release/bl31/gicv3_main.o
 .text.gicv3_get_running_priority
                0x0000000000000000        0x8 /home/mx3g/linux/mpu/nxp/frdm-imx8mp/tmp/work/imx8mpfrdm-poky-linux/imx-atf/2.10+git/git/build-optee/imx8mp/release/bl31/gicv3_main.o
 .text.gicv3_get_interrupt_active
                0x0000000000000000       0x5c /home/mx3g/linux/mpu/nxp/frdm-imx8mp/tmp/work/imx8mpfrdm-poky-linux/imx-atf/2.10+git/git/build-optee/imx8mp/release/bl31/gicv3_main.o
 .text.gicv3_enable_interrupt
                0x0000000000000000       0x60 /home/mx3g/linux/mpu/nxp/frdm-imx8mp/tmp/work/imx8mpfrdm-poky-linux/imx-atf/2.10+git/git/build-optee/imx8mp/release/bl31/gicv3_main.o
 .text.gicv3_disable_interrupt
                0x0000000000000000       0x88 /home/mx3g/linux/mpu/nxp/frdm-imx8mp/tmp/work/imx8mpfrdm-poky-linux/imx-atf/2.10+git/git/build-optee/imx8mp/release/bl31/gicv3_main.o
 .text.gicv3_set_interrupt_priority
                0x0000000000000000       0x74 /home/mx3g/linux/mpu/nxp/frdm-imx8mp/tmp/work/imx8mpfrdm-poky-linux/imx-atf/2.10+git/git/build-optee/imx8mp/release/bl31/gicv3_main.o
 .text.gicv3_set_interrupt_group
                0x0000000000000000      0x10c /home/mx3g/linux/mpu/nxp/frdm-imx8mp/tmp/work/imx8mpfrdm-poky-linux/imx-atf/2.10+git/git/build-optee/imx8mp/release/bl31/gicv3_main.o
 .rodata.gicv3_set_spi_routing.str1.1
                0x0000000000000000       0x33 /home/mx3g/linux/mpu/nxp/frdm-imx8mp/tmp/work/imx8mpfrdm-poky-linux/imx-atf/2.10+git/git/build-optee/imx8mp/release/bl31/gicv3_main.o
 .text.gicv3_set_spi_routing
                0x0000000000000000       0x78 /home/mx3g/linux/mpu/nxp/frdm-imx8mp/tmp/work/imx8mpfrdm-poky-linux/imx-atf/2.10+git/git/build-optee/imx8mp/release/bl31/gicv3_main.o
 .text.gicv3_clear_interrupt_pending
                0x0000000000000000       0x60 /home/mx3g/linux/mpu/nxp/frdm-imx8mp/tmp/work/imx8mpfrdm-poky-linux/imx-atf/2.10+git/git/build-optee/imx8mp/release/bl31/gicv3_main.o
 .text.gicv3_set_interrupt_pending
                0x0000000000000000       0x60 /home/mx3g/linux/mpu/nxp/frdm-imx8mp/tmp/work/imx8mpfrdm-poky-linux/imx-atf/2.10+git/git/build-optee/imx8mp/release/bl31/gicv3_main.o
 .text.gicv3_set_pmr
                0x0000000000000000       0x14 /home/mx3g/linux/mpu/nxp/frdm-imx8mp/tmp/work/imx8mpfrdm-poky-linux/imx-atf/2.10+git/git/build-optee/imx8mp/release/bl31/gicv3_main.o
 .text.gicv3_rdistif_probe
                0x0000000000000000       0xa8 /home/mx3g/linux/mpu/nxp/frdm-imx8mp/tmp/work/imx8mpfrdm-poky-linux/imx-atf/2.10+git/git/build-optee/imx8mp/release/bl31/gicv3_main.o
 .bss.gic_lock  0x0000000000000000        0x4 /home/mx3g/linux/mpu/nxp/frdm-imx8mp/tmp/work/imx8mpfrdm-poky-linux/imx-atf/2.10+git/git/build-optee/imx8mp/release/bl31/gicv3_main.o
 .eh_frame      0x0000000000000000      0x470 /home/mx3g/linux/mpu/nxp/frdm-imx8mp/tmp/work/imx8mpfrdm-poky-linux/imx-atf/2.10+git/git/build-optee/imx8mp/release/bl31/gicv3_main.o
 .text          0x0000000000000000        0x0 /home/mx3g/linux/mpu/nxp/frdm-imx8mp/tmp/work/imx8mpfrdm-poky-linux/imx-atf/2.10+git/git/build-optee/imx8mp/release/bl31/tzc380.o
 .data          0x0000000000000000        0x0 /home/mx3g/linux/mpu/nxp/frdm-imx8mp/tmp/work/imx8mpfrdm-poky-linux/imx-atf/2.10+git/git/build-optee/imx8mp/release/bl31/tzc380.o
 .bss           0x0000000000000000        0x0 /home/mx3g/linux/mpu/nxp/frdm-imx8mp/tmp/work/imx8mpfrdm-poky-linux/imx-atf/2.10+git/git/build-optee/imx8mp/release/bl31/tzc380.o
 .text.tzc380_set_action
                0x0000000000000000       0x10 /home/mx3g/linux/mpu/nxp/frdm-imx8mp/tmp/work/imx8mpfrdm-poky-linux/imx-atf/2.10+git/git/build-optee/imx8mp/release/bl31/tzc380.o
 .eh_frame      0x0000000000000000       0x50 /home/mx3g/linux/mpu/nxp/frdm-imx8mp/tmp/work/imx8mpfrdm-poky-linux/imx-atf/2.10+git/git/build-optee/imx8mp/release/bl31/tzc380.o
 .text          0x0000000000000000        0x0 /home/mx3g/linux/mpu/nxp/frdm-imx8mp/tmp/work/imx8mpfrdm-poky-linux/imx-atf/2.10+git/git/build-optee/imx8mp/release/bl31/multi_console.o
 .data          0x0000000000000000        0x0 /home/mx3g/linux/mpu/nxp/frdm-imx8mp/tmp/work/imx8mpfrdm-poky-linux/imx-atf/2.10+git/git/build-optee/imx8mp/release/bl31/multi_console.o
 .bss           0x0000000000000000        0x0 /home/mx3g/linux/mpu/nxp/frdm-imx8mp/tmp/work/imx8mpfrdm-poky-linux/imx-atf/2.10+git/git/build-optee/imx8mp/release/bl31/multi_console.o
 .text.console_unregister
                0x0000000000000000       0x34 /home/mx3g/linux/mpu/nxp/frdm-imx8mp/tmp/work/imx8mpfrdm-poky-linux/imx-atf/2.10+git/git/build-optee/imx8mp/release/bl31/multi_console.o
 .eh_frame      0x0000000000000000      0x100 /home/mx3g/linux/mpu/nxp/frdm-imx8mp/tmp/work/imx8mpfrdm-poky-linux/imx-atf/2.10+git/git/build-optee/imx8mp/release/bl31/multi_console.o
 .text          0x0000000000000000        0x0 /home/mx3g/linux/mpu/nxp/frdm-imx8mp/tmp/work/imx8mpfrdm-poky-linux/imx-atf/2.10+git/git/build-optee/imx8mp/release/bl31/delay_timer.o
 .data          0x0000000000000000        0x0 /home/mx3g/linux/mpu/nxp/frdm-imx8mp/tmp/work/imx8mpfrdm-poky-linux/imx-atf/2.10+git/git/build-optee/imx8mp/release/bl31/delay_timer.o
 .bss           0x0000000000000000        0x0 /home/mx3g/linux/mpu/nxp/frdm-imx8mp/tmp/work/imx8mpfrdm-poky-linux/imx-atf/2.10+git/git/build-optee/imx8mp/release/bl31/delay_timer.o
 .text.mdelay   0x0000000000000000        0xc /home/mx3g/linux/mpu/nxp/frdm-imx8mp/tmp/work/imx8mpfrdm-poky-linux/imx-atf/2.10+git/git/build-optee/imx8mp/release/bl31/delay_timer.o
 .eh_frame      0x0000000000000000       0x68 /home/mx3g/linux/mpu/nxp/frdm-imx8mp/tmp/work/imx8mpfrdm-poky-linux/imx-atf/2.10+git/git/build-optee/imx8mp/release/bl31/delay_timer.o
 .text          0x0000000000000000        0x0 /home/mx3g/linux/mpu/nxp/frdm-imx8mp/tmp/work/imx8mpfrdm-poky-linux/imx-atf/2.10+git/git/build-optee/imx8mp/release/bl31/generic_delay_timer.o
 .data          0x0000000000000000        0x0 /home/mx3g/linux/mpu/nxp/frdm-imx8mp/tmp/work/imx8mpfrdm-poky-linux/imx-atf/2.10+git/git/build-optee/imx8mp/release/bl31/generic_delay_timer.o
 .bss           0x0000000000000000        0x0 /home/mx3g/linux/mpu/nxp/frdm-imx8mp/tmp/work/imx8mpfrdm-poky-linux/imx-atf/2.10+git/git/build-optee/imx8mp/release/bl31/generic_delay_timer.o
 .eh_frame      0x0000000000000000       0x60 /home/mx3g/linux/mpu/nxp/frdm-imx8mp/tmp/work/imx8mpfrdm-poky-linux/imx-atf/2.10+git/git/build-optee/imx8mp/release/bl31/generic_delay_timer.o
 .text          0x0000000000000000        0x0 /home/mx3g/linux/mpu/nxp/frdm-imx8mp/tmp/work/imx8mpfrdm-poky-linux/imx-atf/2.10+git/git/build-optee/imx8mp/release/bl31/popcountdi2.o
 .data          0x0000000000000000        0x0 /home/mx3g/linux/mpu/nxp/frdm-imx8mp/tmp/work/imx8mpfrdm-poky-linux/imx-atf/2.10+git/git/build-optee/imx8mp/release/bl31/popcountdi2.o
 .bss           0x0000000000000000        0x0 /home/mx3g/linux/mpu/nxp/frdm-imx8mp/tmp/work/imx8mpfrdm-poky-linux/imx-atf/2.10+git/git/build-optee/imx8mp/release/bl31/popcountdi2.o
 .text.__popcountdi2
                0x0000000000000000       0x38 /home/mx3g/linux/mpu/nxp/frdm-imx8mp/tmp/work/imx8mpfrdm-poky-linux/imx-atf/2.10+git/git/build-optee/imx8mp/release/bl31/popcountdi2.o
 .comment       0x0000000000000000       0x13 /home/mx3g/linux/mpu/nxp/frdm-imx8mp/tmp/work/imx8mpfrdm-poky-linux/imx-atf/2.10+git/git/build-optee/imx8mp/release/bl31/popcountdi2.o
 .note.GNU-stack
                0x0000000000000000        0x0 /home/mx3g/linux/mpu/nxp/frdm-imx8mp/tmp/work/imx8mpfrdm-poky-linux/imx-atf/2.10+git/git/build-optee/imx8mp/release/bl31/popcountdi2.o
 .eh_frame      0x0000000000000000       0x28 /home/mx3g/linux/mpu/nxp/frdm-imx8mp/tmp/work/imx8mpfrdm-poky-linux/imx-atf/2.10+git/git/build-optee/imx8mp/release/bl31/popcountdi2.o
 .text          0x0000000000000000        0x0 /home/mx3g/linux/mpu/nxp/frdm-imx8mp/tmp/work/imx8mpfrdm-poky-linux/imx-atf/2.10+git/git/build-optee/imx8mp/release/bl31/popcountsi2.o
 .data          0x0000000000000000        0x0 /home/mx3g/linux/mpu/nxp/frdm-imx8mp/tmp/work/imx8mpfrdm-poky-linux/imx-atf/2.10+git/git/build-optee/imx8mp/release/bl31/popcountsi2.o
 .bss           0x0000000000000000        0x0 /home/mx3g/linux/mpu/nxp/frdm-imx8mp/tmp/work/imx8mpfrdm-poky-linux/imx-atf/2.10+git/git/build-optee/imx8mp/release/bl31/popcountsi2.o
 .text.__popcountsi2
                0x0000000000000000       0x30 /home/mx3g/linux/mpu/nxp/frdm-imx8mp/tmp/work/imx8mpfrdm-poky-linux/imx-atf/2.10+git/git/build-optee/imx8mp/release/bl31/popcountsi2.o
 .comment       0x0000000000000000       0x13 /home/mx3g/linux/mpu/nxp/frdm-imx8mp/tmp/work/imx8mpfrdm-poky-linux/imx-atf/2.10+git/git/build-optee/imx8mp/release/bl31/popcountsi2.o
 .note.GNU-stack
                0x0000000000000000        0x0 /home/mx3g/linux/mpu/nxp/frdm-imx8mp/tmp/work/imx8mpfrdm-poky-linux/imx-atf/2.10+git/git/build-optee/imx8mp/release/bl31/popcountsi2.o
 .eh_frame      0x0000000000000000       0x28 /home/mx3g/linux/mpu/nxp/frdm-imx8mp/tmp/work/imx8mpfrdm-poky-linux/imx-atf/2.10+git/git/build-optee/imx8mp/release/bl31/popcountsi2.o
 .text          0x0000000000000000        0x0 /home/mx3g/linux/mpu/nxp/frdm-imx8mp/tmp/work/imx8mpfrdm-poky-linux/imx-atf/2.10+git/git/build-optee/imx8mp/release/bl31/errata_report.o
 .data          0x0000000000000000        0x0 /home/mx3g/linux/mpu/nxp/frdm-imx8mp/tmp/work/imx8mpfrdm-poky-linux/imx-atf/2.10+git/git/build-optee/imx8mp/release/bl31/errata_report.o
 .bss           0x0000000000000000        0x0 /home/mx3g/linux/mpu/nxp/frdm-imx8mp/tmp/work/imx8mpfrdm-poky-linux/imx-atf/2.10+git/git/build-optee/imx8mp/release/bl31/errata_report.o
 .eh_frame      0x0000000000000000       0x28 /home/mx3g/linux/mpu/nxp/frdm-imx8mp/tmp/work/imx8mpfrdm-poky-linux/imx-atf/2.10+git/git/build-optee/imx8mp/release/bl31/errata_report.o
 .text          0x0000000000000000        0x0 /home/mx3g/linux/mpu/nxp/frdm-imx8mp/tmp/work/imx8mpfrdm-poky-linux/imx-atf/2.10+git/git/build-optee/imx8mp/release/bl31/context_mgmt.o
 .data          0x0000000000000000        0x0 /home/mx3g/linux/mpu/nxp/frdm-imx8mp/tmp/work/imx8mpfrdm-poky-linux/imx-atf/2.10+git/git/build-optee/imx8mp/release/bl31/context_mgmt.o
 .bss           0x0000000000000000        0x0 /home/mx3g/linux/mpu/nxp/frdm-imx8mp/tmp/work/imx8mpfrdm-poky-linux/imx-atf/2.10+git/git/build-optee/imx8mp/release/bl31/context_mgmt.o
 .text.amu_enable
                0x0000000000000000        0x4 /home/mx3g/linux/mpu/nxp/frdm-imx8mp/tmp/work/imx8mpfrdm-poky-linux/imx-atf/2.10+git/git/build-optee/imx8mp/release/bl31/context_mgmt.o
 .text.amu_init_el3
                0x0000000000000000        0x4 /home/mx3g/linux/mpu/nxp/frdm-imx8mp/tmp/work/imx8mpfrdm-poky-linux/imx-atf/2.10+git/git/build-optee/imx8mp/release/bl31/context_mgmt.o
 .text.amu_init_el2_unused
                0x0000000000000000        0x4 /home/mx3g/linux/mpu/nxp/frdm-imx8mp/tmp/work/imx8mpfrdm-poky-linux/imx-atf/2.10+git/git/build-optee/imx8mp/release/bl31/context_mgmt.o
 .text.amu_enable_per_world
                0x0000000000000000        0x4 /home/mx3g/linux/mpu/nxp/frdm-imx8mp/tmp/work/imx8mpfrdm-poky-linux/imx-atf/2.10+git/git/build-optee/imx8mp/release/bl31/context_mgmt.o
 .text.cm_el3_arch_init_per_world
                0x0000000000000000        0xc /home/mx3g/linux/mpu/nxp/frdm-imx8mp/tmp/work/imx8mpfrdm-poky-linux/imx-atf/2.10+git/git/build-optee/imx8mp/release/bl31/context_mgmt.o
 .text.cm_set_elr_spsr_el3
                0x0000000000000000       0x28 /home/mx3g/linux/mpu/nxp/frdm-imx8mp/tmp/work/imx8mpfrdm-poky-linux/imx-atf/2.10+git/git/build-optee/imx8mp/release/bl31/context_mgmt.o
 .text.cm_get_scr_el3
                0x0000000000000000       0x18 /home/mx3g/linux/mpu/nxp/frdm-imx8mp/tmp/work/imx8mpfrdm-poky-linux/imx-atf/2.10+git/git/build-optee/imx8mp/release/bl31/context_mgmt.o
 .eh_frame      0x0000000000000000      0x288 /home/mx3g/linux/mpu/nxp/frdm-imx8mp/tmp/work/imx8mpfrdm-poky-linux/imx-atf/2.10+git/git/build-optee/imx8mp/release/bl31/context_mgmt.o
 .text          0x0000000000000000        0x0 /home/mx3g/linux/mpu/nxp/frdm-imx8mp/tmp/work/imx8mpfrdm-poky-linux/imx-atf/2.10+git/git/build-optee/imx8mp/release/bl31/cpu_data_array.o
 .data          0x0000000000000000        0x0 /home/mx3g/linux/mpu/nxp/frdm-imx8mp/tmp/work/imx8mpfrdm-poky-linux/imx-atf/2.10+git/git/build-optee/imx8mp/release/bl31/cpu_data_array.o
 .bss           0x0000000000000000        0x0 /home/mx3g/linux/mpu/nxp/frdm-imx8mp/tmp/work/imx8mpfrdm-poky-linux/imx-atf/2.10+git/git/build-optee/imx8mp/release/bl31/cpu_data_array.o
 .text          0x0000000000000000        0x0 /home/mx3g/linux/mpu/nxp/frdm-imx8mp/tmp/work/imx8mpfrdm-poky-linux/imx-atf/2.10+git/git/build-optee/imx8mp/release/bl31/mpam.o
 .data          0x0000000000000000        0x0 /home/mx3g/linux/mpu/nxp/frdm-imx8mp/tmp/work/imx8mpfrdm-poky-linux/imx-atf/2.10+git/git/build-optee/imx8mp/release/bl31/mpam.o
 .bss           0x0000000000000000        0x0 /home/mx3g/linux/mpu/nxp/frdm-imx8mp/tmp/work/imx8mpfrdm-poky-linux/imx-atf/2.10+git/git/build-optee/imx8mp/release/bl31/mpam.o
 .text.mpam_init_el2_unused
                0x0000000000000000       0x18 /home/mx3g/linux/mpu/nxp/frdm-imx8mp/tmp/work/imx8mpfrdm-poky-linux/imx-atf/2.10+git/git/build-optee/imx8mp/release/bl31/mpam.o
 .eh_frame      0x0000000000000000       0x40 /home/mx3g/linux/mpu/nxp/frdm-imx8mp/tmp/work/imx8mpfrdm-poky-linux/imx-atf/2.10+git/git/build-optee/imx8mp/release/bl31/mpam.o
 .text          0x0000000000000000        0x0 /home/mx3g/linux/mpu/nxp/frdm-imx8mp/tmp/work/imx8mpfrdm-poky-linux/imx-atf/2.10+git/git/build-optee/imx8mp/release/bl31/pmuv3.o
 .data          0x0000000000000000        0x0 /home/mx3g/linux/mpu/nxp/frdm-imx8mp/tmp/work/imx8mpfrdm-poky-linux/imx-atf/2.10+git/git/build-optee/imx8mp/release/bl31/pmuv3.o
 .bss           0x0000000000000000        0x0 /home/mx3g/linux/mpu/nxp/frdm-imx8mp/tmp/work/imx8mpfrdm-poky-linux/imx-atf/2.10+git/git/build-optee/imx8mp/release/bl31/pmuv3.o
 .text.pmuv3_init_el2_unused
                0x0000000000000000       0x2c /home/mx3g/linux/mpu/nxp/frdm-imx8mp/tmp/work/imx8mpfrdm-poky-linux/imx-atf/2.10+git/git/build-optee/imx8mp/release/bl31/pmuv3.o
 .eh_frame      0x0000000000000000       0x50 /home/mx3g/linux/mpu/nxp/frdm-imx8mp/tmp/work/imx8mpfrdm-poky-linux/imx-atf/2.10+git/git/build-optee/imx8mp/release/bl31/pmuv3.o
 .text          0x0000000000000000        0x0 /home/mx3g/linux/mpu/nxp/frdm-imx8mp/tmp/work/imx8mpfrdm-poky-linux/imx-atf/2.10+git/git/build-optee/imx8mp/release/bl31/spe.o
 .data          0x0000000000000000        0x0 /home/mx3g/linux/mpu/nxp/frdm-imx8mp/tmp/work/imx8mpfrdm-poky-linux/imx-atf/2.10+git/git/build-optee/imx8mp/release/bl31/spe.o
 .bss           0x0000000000000000        0x0 /home/mx3g/linux/mpu/nxp/frdm-imx8mp/tmp/work/imx8mpfrdm-poky-linux/imx-atf/2.10+git/git/build-optee/imx8mp/release/bl31/spe.o
 .text.spe_init_el2_unused
                0x0000000000000000       0x18 /home/mx3g/linux/mpu/nxp/frdm-imx8mp/tmp/work/imx8mpfrdm-poky-linux/imx-atf/2.10+git/git/build-optee/imx8mp/release/bl31/spe.o
 .text.spe_disable
                0x0000000000000000       0x1c /home/mx3g/linux/mpu/nxp/frdm-imx8mp/tmp/work/imx8mpfrdm-poky-linux/imx-atf/2.10+git/git/build-optee/imx8mp/release/bl31/spe.o
 .eh_frame      0x0000000000000000       0x68 /home/mx3g/linux/mpu/nxp/frdm-imx8mp/tmp/work/imx8mpfrdm-poky-linux/imx-atf/2.10+git/git/build-optee/imx8mp/release/bl31/spe.o
 .text          0x0000000000000000        0x0 /home/mx3g/linux/mpu/nxp/frdm-imx8mp/tmp/work/imx8mpfrdm-poky-linux/imx-atf/2.10+git/git/build-optee/imx8mp/release/bl31/sve.o
 .data          0x0000000000000000        0x0 /home/mx3g/linux/mpu/nxp/frdm-imx8mp/tmp/work/imx8mpfrdm-poky-linux/imx-atf/2.10+git/git/build-optee/imx8mp/release/bl31/sve.o
 .bss           0x0000000000000000        0x0 /home/mx3g/linux/mpu/nxp/frdm-imx8mp/tmp/work/imx8mpfrdm-poky-linux/imx-atf/2.10+git/git/build-optee/imx8mp/release/bl31/sve.o
 .text.sve_init_el2_unused
                0x0000000000000000       0x14 /home/mx3g/linux/mpu/nxp/frdm-imx8mp/tmp/work/imx8mpfrdm-poky-linux/imx-atf/2.10+git/git/build-optee/imx8mp/release/bl31/sve.o
 .eh_frame      0x0000000000000000       0x50 /home/mx3g/linux/mpu/nxp/frdm-imx8mp/tmp/work/imx8mpfrdm-poky-linux/imx-atf/2.10+git/git/build-optee/imx8mp/release/bl31/sve.o
 .text          0x0000000000000000        0x0 /home/mx3g/linux/mpu/nxp/frdm-imx8mp/tmp/work/imx8mpfrdm-poky-linux/imx-atf/2.10+git/git/build-optee/imx8mp/release/bl31/bakery_lock_coherent.o
 .data          0x0000000000000000        0x0 /home/mx3g/linux/mpu/nxp/frdm-imx8mp/tmp/work/imx8mpfrdm-poky-linux/imx-atf/2.10+git/git/build-optee/imx8mp/release/bl31/bakery_lock_coherent.o
 .bss           0x0000000000000000        0x0 /home/mx3g/linux/mpu/nxp/frdm-imx8mp/tmp/work/imx8mpfrdm-poky-linux/imx-atf/2.10+git/git/build-optee/imx8mp/release/bl31/bakery_lock_coherent.o
 .eh_frame      0x0000000000000000       0x60 /home/mx3g/linux/mpu/nxp/frdm-imx8mp/tmp/work/imx8mpfrdm-poky-linux/imx-atf/2.10+git/git/build-optee/imx8mp/release/bl31/bakery_lock_coherent.o
 .text          0x0000000000000000        0x0 /home/mx3g/linux/mpu/nxp/frdm-imx8mp/tmp/work/imx8mpfrdm-poky-linux/imx-atf/2.10+git/git/build-optee/imx8mp/release/bl31/psci_common.o
 .data          0x0000000000000000        0x0 /home/mx3g/linux/mpu/nxp/frdm-imx8mp/tmp/work/imx8mpfrdm-poky-linux/imx-atf/2.10+git/git/build-optee/imx8mp/release/bl31/psci_common.o
 .bss           0x0000000000000000        0x0 /home/mx3g/linux/mpu/nxp/frdm-imx8mp/tmp/work/imx8mpfrdm-poky-linux/imx-atf/2.10+git/git/build-optee/imx8mp/release/bl31/psci_common.o
 .text.psci_validate_suspend_req
                0x0000000000000000       0xa0 /home/mx3g/linux/mpu/nxp/frdm-imx8mp/tmp/work/imx8mpfrdm-poky-linux/imx-atf/2.10+git/git/build-optee/imx8mp/release/bl31/psci_common.o
 .text.psci_secondaries_brought_up
                0x0000000000000000       0x3c /home/mx3g/linux/mpu/nxp/frdm-imx8mp/tmp/work/imx8mpfrdm-poky-linux/imx-atf/2.10+git/git/build-optee/imx8mp/release/bl31/psci_common.o
 .text.psci_stop_other_cores
                0x0000000000000000       0xbc /home/mx3g/linux/mpu/nxp/frdm-imx8mp/tmp/work/imx8mpfrdm-poky-linux/imx-atf/2.10+git/git/build-optee/imx8mp/release/bl31/psci_common.o
 .text.psci_is_last_on_cpu_safe
                0x0000000000000000       0x54 /home/mx3g/linux/mpu/nxp/frdm-imx8mp/tmp/work/imx8mpfrdm-poky-linux/imx-atf/2.10+git/git/build-optee/imx8mp/release/bl31/psci_common.o
 .text.psci_are_all_cpus_on_safe
                0x0000000000000000       0x9c /home/mx3g/linux/mpu/nxp/frdm-imx8mp/tmp/work/imx8mpfrdm-poky-linux/imx-atf/2.10+git/git/build-optee/imx8mp/release/bl31/psci_common.o
 .eh_frame      0x0000000000000000      0x358 /home/mx3g/linux/mpu/nxp/frdm-imx8mp/tmp/work/imx8mpfrdm-poky-linux/imx-atf/2.10+git/git/build-optee/imx8mp/release/bl31/psci_common.o
 .text          0x0000000000000000        0x0 /home/mx3g/linux/mpu/nxp/frdm-imx8mp/tmp/work/imx8mpfrdm-poky-linux/imx-atf/2.10+git/git/build-optee/imx8mp/release/bl31/psci_main.o
 .data          0x0000000000000000        0x0 /home/mx3g/linux/mpu/nxp/frdm-imx8mp/tmp/work/imx8mpfrdm-poky-linux/imx-atf/2.10+git/git/build-optee/imx8mp/release/bl31/psci_main.o
 .bss           0x0000000000000000        0x0 /home/mx3g/linux/mpu/nxp/frdm-imx8mp/tmp/work/imx8mpfrdm-poky-linux/imx-atf/2.10+git/git/build-optee/imx8mp/release/bl31/psci_main.o
 .text.psci_version
                0x0000000000000000        0x8 /home/mx3g/linux/mpu/nxp/frdm-imx8mp/tmp/work/imx8mpfrdm-poky-linux/imx-atf/2.10+git/git/build-optee/imx8mp/release/bl31/psci_main.o
 .eh_frame      0x0000000000000000      0x210 /home/mx3g/linux/mpu/nxp/frdm-imx8mp/tmp/work/imx8mpfrdm-poky-linux/imx-atf/2.10+git/git/build-optee/imx8mp/release/bl31/psci_main.o
 .text          0x0000000000000000        0x0 /home/mx3g/linux/mpu/nxp/frdm-imx8mp/tmp/work/imx8mpfrdm-poky-linux/imx-atf/2.10+git/git/build-optee/imx8mp/release/bl31/psci_mem_protect.o
 .data          0x0000000000000000        0x0 /home/mx3g/linux/mpu/nxp/frdm-imx8mp/tmp/work/imx8mpfrdm-poky-linux/imx-atf/2.10+git/git/build-optee/imx8mp/release/bl31/psci_mem_protect.o
 .bss           0x0000000000000000        0x0 /home/mx3g/linux/mpu/nxp/frdm-imx8mp/tmp/work/imx8mpfrdm-poky-linux/imx-atf/2.10+git/git/build-optee/imx8mp/release/bl31/psci_mem_protect.o
 .eh_frame      0x0000000000000000       0x60 /home/mx3g/linux/mpu/nxp/frdm-imx8mp/tmp/work/imx8mpfrdm-poky-linux/imx-atf/2.10+git/git/build-optee/imx8mp/release/bl31/psci_mem_protect.o
 .text          0x0000000000000000        0x0 /home/mx3g/linux/mpu/nxp/frdm-imx8mp/tmp/work/imx8mpfrdm-poky-linux/imx-atf/2.10+git/git/build-optee/imx8mp/release/bl31/psci_off.o
 .data          0x0000000000000000        0x0 /home/mx3g/linux/mpu/nxp/frdm-imx8mp/tmp/work/imx8mpfrdm-poky-linux/imx-atf/2.10+git/git/build-optee/imx8mp/release/bl31/psci_off.o
 .bss           0x0000000000000000        0x0 /home/mx3g/linux/mpu/nxp/frdm-imx8mp/tmp/work/imx8mpfrdm-poky-linux/imx-atf/2.10+git/git/build-optee/imx8mp/release/bl31/psci_off.o
 .eh_frame      0x0000000000000000       0x48 /home/mx3g/linux/mpu/nxp/frdm-imx8mp/tmp/work/imx8mpfrdm-poky-linux/imx-atf/2.10+git/git/build-optee/imx8mp/release/bl31/psci_off.o
 .text          0x0000000000000000        0x0 /home/mx3g/linux/mpu/nxp/frdm-imx8mp/tmp/work/imx8mpfrdm-poky-linux/imx-atf/2.10+git/git/build-optee/imx8mp/release/bl31/psci_on.o
 .data          0x0000000000000000        0x0 /home/mx3g/linux/mpu/nxp/frdm-imx8mp/tmp/work/imx8mpfrdm-poky-linux/imx-atf/2.10+git/git/build-optee/imx8mp/release/bl31/psci_on.o
 .bss           0x0000000000000000        0x0 /home/mx3g/linux/mpu/nxp/frdm-imx8mp/tmp/work/imx8mpfrdm-poky-linux/imx-atf/2.10+git/git/build-optee/imx8mp/release/bl31/psci_on.o
 .eh_frame      0x0000000000000000       0x80 /home/mx3g/linux/mpu/nxp/frdm-imx8mp/tmp/work/imx8mpfrdm-poky-linux/imx-atf/2.10+git/git/build-optee/imx8mp/release/bl31/psci_on.o
 .text          0x0000000000000000        0x0 /home/mx3g/linux/mpu/nxp/frdm-imx8mp/tmp/work/imx8mpfrdm-poky-linux/imx-atf/2.10+git/git/build-optee/imx8mp/release/bl31/psci_setup.o
 .data          0x0000000000000000        0x0 /home/mx3g/linux/mpu/nxp/frdm-imx8mp/tmp/work/imx8mpfrdm-poky-linux/imx-atf/2.10+git/git/build-optee/imx8mp/release/bl31/psci_setup.o
 .bss           0x0000000000000000        0x0 /home/mx3g/linux/mpu/nxp/frdm-imx8mp/tmp/work/imx8mpfrdm-poky-linux/imx-atf/2.10+git/git/build-optee/imx8mp/release/bl31/psci_setup.o
 .text.psci_prepare_next_non_secure_ctx
                0x0000000000000000       0x18 /home/mx3g/linux/mpu/nxp/frdm-imx8mp/tmp/work/imx8mpfrdm-poky-linux/imx-atf/2.10+git/git/build-optee/imx8mp/release/bl31/psci_setup.o
 .eh_frame      0x0000000000000000       0xa0 /home/mx3g/linux/mpu/nxp/frdm-imx8mp/tmp/work/imx8mpfrdm-poky-linux/imx-atf/2.10+git/git/build-optee/imx8mp/release/bl31/psci_setup.o
 .text          0x0000000000000000        0x0 /home/mx3g/linux/mpu/nxp/frdm-imx8mp/tmp/work/imx8mpfrdm-poky-linux/imx-atf/2.10+git/git/build-optee/imx8mp/release/bl31/psci_suspend.o
 .data          0x0000000000000000        0x0 /home/mx3g/linux/mpu/nxp/frdm-imx8mp/tmp/work/imx8mpfrdm-poky-linux/imx-atf/2.10+git/git/build-optee/imx8mp/release/bl31/psci_suspend.o
 .bss           0x0000000000000000        0x0 /home/mx3g/linux/mpu/nxp/frdm-imx8mp/tmp/work/imx8mpfrdm-poky-linux/imx-atf/2.10+git/git/build-optee/imx8mp/release/bl31/psci_suspend.o
 .eh_frame      0x0000000000000000       0x88 /home/mx3g/linux/mpu/nxp/frdm-imx8mp/tmp/work/imx8mpfrdm-poky-linux/imx-atf/2.10+git/git/build-optee/imx8mp/release/bl31/psci_suspend.o
 .text          0x0000000000000000        0x0 /home/mx3g/linux/mpu/nxp/frdm-imx8mp/tmp/work/imx8mpfrdm-poky-linux/imx-atf/2.10+git/git/build-optee/imx8mp/release/bl31/psci_system_off.o
 .data          0x0000000000000000        0x0 /home/mx3g/linux/mpu/nxp/frdm-imx8mp/tmp/work/imx8mpfrdm-poky-linux/imx-atf/2.10+git/git/build-optee/imx8mp/release/bl31/psci_system_off.o
 .bss           0x0000000000000000        0x0 /home/mx3g/linux/mpu/nxp/frdm-imx8mp/tmp/work/imx8mpfrdm-poky-linux/imx-atf/2.10+git/git/build-optee/imx8mp/release/bl31/psci_system_off.o
 .eh_frame      0x0000000000000000       0x70 /home/mx3g/linux/mpu/nxp/frdm-imx8mp/tmp/work/imx8mpfrdm-poky-linux/imx-atf/2.10+git/git/build-optee/imx8mp/release/bl31/psci_system_off.o
 .text          0x0000000000000000        0x0 /home/mx3g/linux/mpu/nxp/frdm-imx8mp/tmp/work/imx8mpfrdm-poky-linux/imx-atf/2.10+git/git/build-optee/imx8mp/release/bl31/xlat_tables_arch.o
 .data          0x0000000000000000        0x0 /home/mx3g/linux/mpu/nxp/frdm-imx8mp/tmp/work/imx8mpfrdm-poky-linux/imx-atf/2.10+git/git/build-optee/imx8mp/release/bl31/xlat_tables_arch.o
 .bss           0x0000000000000000        0x0 /home/mx3g/linux/mpu/nxp/frdm-imx8mp/tmp/work/imx8mpfrdm-poky-linux/imx-atf/2.10+git/git/build-optee/imx8mp/release/bl31/xlat_tables_arch.o
 .text.xlat_arch_is_granule_size_supported
                0x0000000000000000       0x50 /home/mx3g/linux/mpu/nxp/frdm-imx8mp/tmp/work/imx8mpfrdm-poky-linux/imx-atf/2.10+git/git/build-optee/imx8mp/release/bl31/xlat_tables_arch.o
 .text.xlat_arch_get_max_supported_granule_size
                0x0000000000000000       0x24 /home/mx3g/linux/mpu/nxp/frdm-imx8mp/tmp/work/imx8mpfrdm-poky-linux/imx-atf/2.10+git/git/build-optee/imx8mp/release/bl31/xlat_tables_arch.o
 .text.is_mmu_enabled_ctx
                0x0000000000000000       0x30 /home/mx3g/linux/mpu/nxp/frdm-imx8mp/tmp/work/imx8mpfrdm-poky-linux/imx-atf/2.10+git/git/build-optee/imx8mp/release/bl31/xlat_tables_arch.o
 .text.xlat_arch_tlbi_va
                0x0000000000000000       0x30 /home/mx3g/linux/mpu/nxp/frdm-imx8mp/tmp/work/imx8mpfrdm-poky-linux/imx-atf/2.10+git/git/build-optee/imx8mp/release/bl31/xlat_tables_arch.o
 .text.xlat_arch_tlbi_va_sync
                0x0000000000000000        0xc /home/mx3g/linux/mpu/nxp/frdm-imx8mp/tmp/work/imx8mpfrdm-poky-linux/imx-atf/2.10+git/git/build-optee/imx8mp/release/bl31/xlat_tables_arch.o
 .eh_frame      0x0000000000000000      0x100 /home/mx3g/linux/mpu/nxp/frdm-imx8mp/tmp/work/imx8mpfrdm-poky-linux/imx-atf/2.10+git/git/build-optee/imx8mp/release/bl31/xlat_tables_arch.o
 .text          0x0000000000000000        0x0 /home/mx3g/linux/mpu/nxp/frdm-imx8mp/tmp/work/imx8mpfrdm-poky-linux/imx-atf/2.10+git/git/build-optee/imx8mp/release/bl31/xlat_tables_context.o
 .data          0x0000000000000000        0x0 /home/mx3g/linux/mpu/nxp/frdm-imx8mp/tmp/work/imx8mpfrdm-poky-linux/imx-atf/2.10+git/git/build-optee/imx8mp/release/bl31/xlat_tables_context.o
 .bss           0x0000000000000000        0x0 /home/mx3g/linux/mpu/nxp/frdm-imx8mp/tmp/work/imx8mpfrdm-poky-linux/imx-atf/2.10+git/git/build-optee/imx8mp/release/bl31/xlat_tables_context.o
 .text.mmap_add_region
                0x0000000000000000       0x34 /home/mx3g/linux/mpu/nxp/frdm-imx8mp/tmp/work/imx8mpfrdm-poky-linux/imx-atf/2.10+git/git/build-optee/imx8mp/release/bl31/xlat_tables_context.o
 .text.mmap_add_region_alloc_va
                0x0000000000000000       0x48 /home/mx3g/linux/mpu/nxp/frdm-imx8mp/tmp/work/imx8mpfrdm-poky-linux/imx-atf/2.10+git/git/build-optee/imx8mp/release/bl31/xlat_tables_context.o
 .text.mmap_add_alloc_va
                0x0000000000000000       0x40 /home/mx3g/linux/mpu/nxp/frdm-imx8mp/tmp/work/imx8mpfrdm-poky-linux/imx-atf/2.10+git/git/build-optee/imx8mp/release/bl31/xlat_tables_context.o
 .text.xlat_get_mem_attributes
                0x0000000000000000       0x14 /home/mx3g/linux/mpu/nxp/frdm-imx8mp/tmp/work/imx8mpfrdm-poky-linux/imx-atf/2.10+git/git/build-optee/imx8mp/release/bl31/xlat_tables_context.o
 .text.xlat_change_mem_attributes
                0x0000000000000000       0x18 /home/mx3g/linux/mpu/nxp/frdm-imx8mp/tmp/work/imx8mpfrdm-poky-linux/imx-atf/2.10+git/git/build-optee/imx8mp/release/bl31/xlat_tables_context.o
 .text.enable_mmu_el1
                0x0000000000000000       0x48 /home/mx3g/linux/mpu/nxp/frdm-imx8mp/tmp/work/imx8mpfrdm-poky-linux/imx-atf/2.10+git/git/build-optee/imx8mp/release/bl31/xlat_tables_context.o
 .text.enable_mmu_el2
                0x0000000000000000       0x48 /home/mx3g/linux/mpu/nxp/frdm-imx8mp/tmp/work/imx8mpfrdm-poky-linux/imx-atf/2.10+git/git/build-optee/imx8mp/release/bl31/xlat_tables_context.o
 .text.enable_mmu
                0x0000000000000000        0x4 /home/mx3g/linux/mpu/nxp/frdm-imx8mp/tmp/work/imx8mpfrdm-poky-linux/imx-atf/2.10+git/git/build-optee/imx8mp/release/bl31/xlat_tables_context.o
 .eh_frame      0x0000000000000000      0x160 /home/mx3g/linux/mpu/nxp/frdm-imx8mp/tmp/work/imx8mpfrdm-poky-linux/imx-atf/2.10+git/git/build-optee/imx8mp/release/bl31/xlat_tables_context.o
 .text          0x0000000000000000        0x0 /home/mx3g/linux/mpu/nxp/frdm-imx8mp/tmp/work/imx8mpfrdm-poky-linux/imx-atf/2.10+git/git/build-optee/imx8mp/release/bl31/xlat_tables_core.o
 .data          0x0000000000000000        0x0 /home/mx3g/linux/mpu/nxp/frdm-imx8mp/tmp/work/imx8mpfrdm-poky-linux/imx-atf/2.10+git/git/build-optee/imx8mp/release/bl31/xlat_tables_core.o
 .bss           0x0000000000000000        0x0 /home/mx3g/linux/mpu/nxp/frdm-imx8mp/tmp/work/imx8mpfrdm-poky-linux/imx-atf/2.10+git/git/build-optee/imx8mp/release/bl31/xlat_tables_core.o
 .text.mmap_add_region_alloc_va_ctx
                0x0000000000000000       0x64 /home/mx3g/linux/mpu/nxp/frdm-imx8mp/tmp/work/imx8mpfrdm-poky-linux/imx-atf/2.10+git/git/build-optee/imx8mp/release/bl31/xlat_tables_core.o
 .eh_frame      0x0000000000000000      0x168 /home/mx3g/linux/mpu/nxp/frdm-imx8mp/tmp/work/imx8mpfrdm-poky-linux/imx-atf/2.10+git/git/build-optee/imx8mp/release/bl31/xlat_tables_core.o
 .text          0x0000000000000000        0x0 /home/mx3g/linux/mpu/nxp/frdm-imx8mp/tmp/work/imx8mpfrdm-poky-linux/imx-atf/2.10+git/git/build-optee/imx8mp/release/bl31/xlat_tables_utils.o
 .data          0x0000000000000000        0x0 /home/mx3g/linux/mpu/nxp/frdm-imx8mp/tmp/work/imx8mpfrdm-poky-linux/imx-atf/2.10+git/git/build-optee/imx8mp/release/bl31/xlat_tables_utils.o
 .bss           0x0000000000000000        0x0 /home/mx3g/linux/mpu/nxp/frdm-imx8mp/tmp/work/imx8mpfrdm-poky-linux/imx-atf/2.10+git/git/build-optee/imx8mp/release/bl31/xlat_tables_utils.o
 .text.find_xlat_table_entry
                0x0000000000000000       0x94 /home/mx3g/linux/mpu/nxp/frdm-imx8mp/tmp/work/imx8mpfrdm-poky-linux/imx-atf/2.10+git/git/build-optee/imx8mp/release/bl31/xlat_tables_utils.o
 .text.xlat_get_mem_attributes_internal
                0x0000000000000000       0xec /home/mx3g/linux/mpu/nxp/frdm-imx8mp/tmp/work/imx8mpfrdm-poky-linux/imx-atf/2.10+git/git/build-optee/imx8mp/release/bl31/xlat_tables_utils.o
 .text.xlat_get_mem_attributes_ctx
                0x0000000000000000       0x10 /home/mx3g/linux/mpu/nxp/frdm-imx8mp/tmp/work/imx8mpfrdm-poky-linux/imx-atf/2.10+git/git/build-optee/imx8mp/release/bl31/xlat_tables_utils.o
 .text.xlat_change_mem_attributes_ctx
                0x0000000000000000      0x188 /home/mx3g/linux/mpu/nxp/frdm-imx8mp/tmp/work/imx8mpfrdm-poky-linux/imx-atf/2.10+git/git/build-optee/imx8mp/release/bl31/xlat_tables_utils.o
 .eh_frame      0x0000000000000000       0xe8 /home/mx3g/linux/mpu/nxp/frdm-imx8mp/tmp/work/imx8mpfrdm-poky-linux/imx-atf/2.10+git/git/build-optee/imx8mp/release/bl31/xlat_tables_utils.o
 .text          0x0000000000000000        0x0 /home/mx3g/linux/mpu/nxp/frdm-imx8mp/tmp/work/imx8mpfrdm-poky-linux/imx-atf/2.10+git/git/build-optee/imx8mp/release/bl31/plat_common.o
 .data          0x0000000000000000        0x0 /home/mx3g/linux/mpu/nxp/frdm-imx8mp/tmp/work/imx8mpfrdm-poky-linux/imx-atf/2.10+git/git/build-optee/imx8mp/release/bl31/plat_common.o
 .bss           0x0000000000000000        0x0 /home/mx3g/linux/mpu/nxp/frdm-imx8mp/tmp/work/imx8mpfrdm-poky-linux/imx-atf/2.10+git/git/build-optee/imx8mp/release/bl31/plat_common.o
 .text.platform_core_pos_helper
                0x0000000000000000        0x4 /home/mx3g/linux/mpu/nxp/frdm-imx8mp/tmp/work/imx8mpfrdm-poky-linux/imx-atf/2.10+git/git/build-optee/imx8mp/release/bl31/plat_common.o
 .rodata.get_el_str.str1.1
                0x0000000000000000        0xc /home/mx3g/linux/mpu/nxp/frdm-imx8mp/tmp/work/imx8mpfrdm-poky-linux/imx-atf/2.10+git/git/build-optee/imx8mp/release/bl31/plat_common.o
 .text.get_el_str
                0x0000000000000000       0x30 /home/mx3g/linux/mpu/nxp/frdm-imx8mp/tmp/work/imx8mpfrdm-poky-linux/imx-atf/2.10+git/git/build-optee/imx8mp/release/bl31/plat_common.o
 .eh_frame      0x0000000000000000       0x50 /home/mx3g/linux/mpu/nxp/frdm-imx8mp/tmp/work/imx8mpfrdm-poky-linux/imx-atf/2.10+git/git/build-optee/imx8mp/release/bl31/plat_common.o
 .text          0x0000000000000000        0x0 /home/mx3g/linux/mpu/nxp/frdm-imx8mp/tmp/work/imx8mpfrdm-poky-linux/imx-atf/2.10+git/git/build-optee/imx8mp/release/bl31/plat_bl_common.o
 .data          0x0000000000000000        0x0 /home/mx3g/linux/mpu/nxp/frdm-imx8mp/tmp/work/imx8mpfrdm-poky-linux/imx-atf/2.10+git/git/build-optee/imx8mp/release/bl31/plat_bl_common.o
 .bss           0x0000000000000000        0x0 /home/mx3g/linux/mpu/nxp/frdm-imx8mp/tmp/work/imx8mpfrdm-poky-linux/imx-atf/2.10+git/git/build-optee/imx8mp/release/bl31/plat_bl_common.o
 .text.bl2_el3_plat_prepare_exit
                0x0000000000000000        0x4 /home/mx3g/linux/mpu/nxp/frdm-imx8mp/tmp/work/imx8mpfrdm-poky-linux/imx-atf/2.10+git/git/build-optee/imx8mp/release/bl31/plat_bl_common.o
 .text.plat_error_handler
                0x0000000000000000        0x8 /home/mx3g/linux/mpu/nxp/frdm-imx8mp/tmp/work/imx8mpfrdm-poky-linux/imx-atf/2.10+git/git/build-optee/imx8mp/release/bl31/plat_bl_common.o
 .text.bl2_plat_preload_setup
                0x0000000000000000        0x4 /home/mx3g/linux/mpu/nxp/frdm-imx8mp/tmp/work/imx8mpfrdm-poky-linux/imx-atf/2.10+git/git/build-optee/imx8mp/release/bl31/plat_bl_common.o
 .text.bl2_plat_handle_pre_image_load
                0x0000000000000000        0x8 /home/mx3g/linux/mpu/nxp/frdm-imx8mp/tmp/work/imx8mpfrdm-poky-linux/imx-atf/2.10+git/git/build-optee/imx8mp/release/bl31/plat_bl_common.o
 .text.bl2_plat_handle_post_image_load
                0x0000000000000000        0x8 /home/mx3g/linux/mpu/nxp/frdm-imx8mp/tmp/work/imx8mpfrdm-poky-linux/imx-atf/2.10+git/git/build-optee/imx8mp/release/bl31/plat_bl_common.o
 .text.plat_try_next_boot_source
                0x0000000000000000        0x8 /home/mx3g/linux/mpu/nxp/frdm-imx8mp/tmp/work/imx8mpfrdm-poky-linux/imx-atf/2.10+git/git/build-optee/imx8mp/release/bl31/plat_bl_common.o
 .text.plat_get_enc_key_info
                0x0000000000000000       0x64 /home/mx3g/linux/mpu/nxp/frdm-imx8mp/tmp/work/imx8mpfrdm-poky-linux/imx-atf/2.10+git/git/build-optee/imx8mp/release/bl31/plat_bl_common.o
 .rodata.plat_get_enc_key_info.str1.1
                0x0000000000000000       0x21 /home/mx3g/linux/mpu/nxp/frdm-imx8mp/tmp/work/imx8mpfrdm-poky-linux/imx-atf/2.10+git/git/build-optee/imx8mp/release/bl31/plat_bl_common.o
 .eh_frame      0x0000000000000000      0x118 /home/mx3g/linux/mpu/nxp/frdm-imx8mp/tmp/work/imx8mpfrdm-poky-linux/imx-atf/2.10+git/git/build-optee/imx8mp/release/bl31/plat_bl_common.o
 .text          0x0000000000000000        0x0 /home/mx3g/linux/mpu/nxp/frdm-imx8mp/tmp/work/imx8mpfrdm-poky-linux/imx-atf/2.10+git/git/build-optee/imx8mp/release/bl31/plat_gicv3.o
 .data          0x0000000000000000        0x0 /home/mx3g/linux/mpu/nxp/frdm-imx8mp/tmp/work/imx8mpfrdm-poky-linux/imx-atf/2.10+git/git/build-optee/imx8mp/release/bl31/plat_gicv3.o
 .bss           0x0000000000000000        0x0 /home/mx3g/linux/mpu/nxp/frdm-imx8mp/tmp/work/imx8mpfrdm-poky-linux/imx-atf/2.10+git/git/build-optee/imx8mp/release/bl31/plat_gicv3.o
 .text.plat_ic_get_pending_interrupt_id
                0x0000000000000000       0x20 /home/mx3g/linux/mpu/nxp/frdm-imx8mp/tmp/work/imx8mpfrdm-poky-linux/imx-atf/2.10+git/git/build-optee/imx8mp/release/bl31/plat_gicv3.o
 .text.plat_ic_get_interrupt_type
                0x0000000000000000       0x38 /home/mx3g/linux/mpu/nxp/frdm-imx8mp/tmp/work/imx8mpfrdm-poky-linux/imx-atf/2.10+git/git/build-optee/imx8mp/release/bl31/plat_gicv3.o
 .text.plat_ic_get_running_priority
                0x0000000000000000        0x4 /home/mx3g/linux/mpu/nxp/frdm-imx8mp/tmp/work/imx8mpfrdm-poky-linux/imx-atf/2.10+git/git/build-optee/imx8mp/release/bl31/plat_gicv3.o
 .text.plat_ic_is_spi
                0x0000000000000000       0x10 /home/mx3g/linux/mpu/nxp/frdm-imx8mp/tmp/work/imx8mpfrdm-poky-linux/imx-atf/2.10+git/git/build-optee/imx8mp/release/bl31/plat_gicv3.o
 .text.plat_ic_is_ppi
                0x0000000000000000       0x10 /home/mx3g/linux/mpu/nxp/frdm-imx8mp/tmp/work/imx8mpfrdm-poky-linux/imx-atf/2.10+git/git/build-optee/imx8mp/release/bl31/plat_gicv3.o
 .text.plat_ic_is_sgi
                0x0000000000000000        0xc /home/mx3g/linux/mpu/nxp/frdm-imx8mp/tmp/work/imx8mpfrdm-poky-linux/imx-atf/2.10+git/git/build-optee/imx8mp/release/bl31/plat_gicv3.o
 .text.plat_ic_get_interrupt_active
                0x0000000000000000       0x28 /home/mx3g/linux/mpu/nxp/frdm-imx8mp/tmp/work/imx8mpfrdm-poky-linux/imx-atf/2.10+git/git/build-optee/imx8mp/release/bl31/plat_gicv3.o
 .text.plat_ic_enable_interrupt
                0x0000000000000000       0x28 /home/mx3g/linux/mpu/nxp/frdm-imx8mp/tmp/work/imx8mpfrdm-poky-linux/imx-atf/2.10+git/git/build-optee/imx8mp/release/bl31/plat_gicv3.o
 .text.plat_ic_disable_interrupt
                0x0000000000000000       0x28 /home/mx3g/linux/mpu/nxp/frdm-imx8mp/tmp/work/imx8mpfrdm-poky-linux/imx-atf/2.10+git/git/build-optee/imx8mp/release/bl31/plat_gicv3.o
 .text.plat_ic_set_interrupt_priority
                0x0000000000000000       0x30 /home/mx3g/linux/mpu/nxp/frdm-imx8mp/tmp/work/imx8mpfrdm-poky-linux/imx-atf/2.10+git/git/build-optee/imx8mp/release/bl31/plat_gicv3.o
 .text.plat_ic_set_interrupt_type
                0x0000000000000000       0x3c /home/mx3g/linux/mpu/nxp/frdm-imx8mp/tmp/work/imx8mpfrdm-poky-linux/imx-atf/2.10+git/git/build-optee/imx8mp/release/bl31/plat_gicv3.o
 .text.plat_ic_raise_ns_sgi
                0x0000000000000000        0xc /home/mx3g/linux/mpu/nxp/frdm-imx8mp/tmp/work/imx8mpfrdm-poky-linux/imx-atf/2.10+git/git/build-optee/imx8mp/release/bl31/plat_gicv3.o
 .text.plat_ic_raise_s_el1_sgi
                0x0000000000000000        0xc /home/mx3g/linux/mpu/nxp/frdm-imx8mp/tmp/work/imx8mpfrdm-poky-linux/imx-atf/2.10+git/git/build-optee/imx8mp/release/bl31/plat_gicv3.o
 .text.plat_ic_set_spi_routing
                0x0000000000000000        0xc /home/mx3g/linux/mpu/nxp/frdm-imx8mp/tmp/work/imx8mpfrdm-poky-linux/imx-atf/2.10+git/git/build-optee/imx8mp/release/bl31/plat_gicv3.o
 .text.plat_ic_set_interrupt_pending
                0x0000000000000000       0x28 /home/mx3g/linux/mpu/nxp/frdm-imx8mp/tmp/work/imx8mpfrdm-poky-linux/imx-atf/2.10+git/git/build-optee/imx8mp/release/bl31/plat_gicv3.o
 .text.plat_ic_clear_interrupt_pending
                0x0000000000000000       0x28 /home/mx3g/linux/mpu/nxp/frdm-imx8mp/tmp/work/imx8mpfrdm-poky-linux/imx-atf/2.10+git/git/build-optee/imx8mp/release/bl31/plat_gicv3.o
 .text.plat_ic_set_priority_mask
                0x0000000000000000        0x4 /home/mx3g/linux/mpu/nxp/frdm-imx8mp/tmp/work/imx8mpfrdm-poky-linux/imx-atf/2.10+git/git/build-optee/imx8mp/release/bl31/plat_gicv3.o
 .text.plat_ic_get_interrupt_id
                0x0000000000000000       0x14 /home/mx3g/linux/mpu/nxp/frdm-imx8mp/tmp/work/imx8mpfrdm-poky-linux/imx-atf/2.10+git/git/build-optee/imx8mp/release/bl31/plat_gicv3.o
 .eh_frame      0x0000000000000000      0x298 /home/mx3g/linux/mpu/nxp/frdm-imx8mp/tmp/work/imx8mpfrdm-poky-linux/imx-atf/2.10+git/git/build-optee/imx8mp/release/bl31/plat_gicv3.o
 .text          0x0000000000000000        0x0 /home/mx3g/linux/mpu/nxp/frdm-imx8mp/tmp/work/imx8mpfrdm-poky-linux/imx-atf/2.10+git/git/build-optee/imx8mp/release/bl31/plat_log_common.o
 .data          0x0000000000000000        0x0 /home/mx3g/linux/mpu/nxp/frdm-imx8mp/tmp/work/imx8mpfrdm-poky-linux/imx-atf/2.10+git/git/build-optee/imx8mp/release/bl31/plat_log_common.o
 .bss           0x0000000000000000        0x0 /home/mx3g/linux/mpu/nxp/frdm-imx8mp/tmp/work/imx8mpfrdm-poky-linux/imx-atf/2.10+git/git/build-optee/imx8mp/release/bl31/plat_log_common.o
 .eh_frame      0x0000000000000000       0x28 /home/mx3g/linux/mpu/nxp/frdm-imx8mp/tmp/work/imx8mpfrdm-poky-linux/imx-atf/2.10+git/git/build-optee/imx8mp/release/bl31/plat_log_common.o
 .text          0x0000000000000000        0x0 /home/mx3g/linux/mpu/nxp/frdm-imx8mp/tmp/work/imx8mpfrdm-poky-linux/imx-atf/2.10+git/git/build-optee/imx8mp/release/bl31/plat_psci_common.o
 .data          0x0000000000000000        0x0 /home/mx3g/linux/mpu/nxp/frdm-imx8mp/tmp/work/imx8mpfrdm-poky-linux/imx-atf/2.10+git/git/build-optee/imx8mp/release/bl31/plat_psci_common.o
 .bss           0x0000000000000000        0x0 /home/mx3g/linux/mpu/nxp/frdm-imx8mp/tmp/work/imx8mpfrdm-poky-linux/imx-atf/2.10+git/git/build-optee/imx8mp/release/bl31/plat_psci_common.o
 .eh_frame      0x0000000000000000       0x28 /home/mx3g/linux/mpu/nxp/frdm-imx8mp/tmp/work/imx8mpfrdm-poky-linux/imx-atf/2.10+git/git/build-optee/imx8mp/release/bl31/plat_psci_common.o
 .text          0x0000000000000000        0x0 /home/mx3g/linux/mpu/nxp/frdm-imx8mp/tmp/work/imx8mpfrdm-poky-linux/imx-atf/2.10+git/git/build-optee/imx8mp/release/bl31/imx8_topology.o
 .data          0x0000000000000000        0x0 /home/mx3g/linux/mpu/nxp/frdm-imx8mp/tmp/work/imx8mpfrdm-poky-linux/imx-atf/2.10+git/git/build-optee/imx8mp/release/bl31/imx8_topology.o
 .bss           0x0000000000000000        0x0 /home/mx3g/linux/mpu/nxp/frdm-imx8mp/tmp/work/imx8mpfrdm-poky-linux/imx-atf/2.10+git/git/build-optee/imx8mp/release/bl31/imx8_topology.o
 .eh_frame      0x0000000000000000       0x40 /home/mx3g/linux/mpu/nxp/frdm-imx8mp/tmp/work/imx8mpfrdm-poky-linux/imx-atf/2.10+git/git/build-optee/imx8mp/release/bl31/imx8_topology.o
 .text          0x0000000000000000        0x0 /home/mx3g/linux/mpu/nxp/frdm-imx8mp/tmp/work/imx8mpfrdm-poky-linux/imx-atf/2.10+git/git/build-optee/imx8mp/release/bl31/imx_sip_handler.o
 .data          0x0000000000000000        0x0 /home/mx3g/linux/mpu/nxp/frdm-imx8mp/tmp/work/imx8mpfrdm-poky-linux/imx-atf/2.10+git/git/build-optee/imx8mp/release/bl31/imx_sip_handler.o
 .bss           0x0000000000000000        0x0 /home/mx3g/linux/mpu/nxp/frdm-imx8mp/tmp/work/imx8mpfrdm-poky-linux/imx-atf/2.10+git/git/build-optee/imx8mp/release/bl31/imx_sip_handler.o
 .eh_frame      0x0000000000000000       0x60 /home/mx3g/linux/mpu/nxp/frdm-imx8mp/tmp/work/imx8mpfrdm-poky-linux/imx-atf/2.10+git/git/build-optee/imx8mp/release/bl31/imx_sip_handler.o
 .text          0x0000000000000000        0x0 /home/mx3g/linux/mpu/nxp/frdm-imx8mp/tmp/work/imx8mpfrdm-poky-linux/imx-atf/2.10+git/git/build-optee/imx8mp/release/bl31/imx_sip_svc.o
 .data          0x0000000000000000        0x0 /home/mx3g/linux/mpu/nxp/frdm-imx8mp/tmp/work/imx8mpfrdm-poky-linux/imx-atf/2.10+git/git/build-optee/imx8mp/release/bl31/imx_sip_svc.o
 .bss           0x0000000000000000        0x0 /home/mx3g/linux/mpu/nxp/frdm-imx8mp/tmp/work/imx8mpfrdm-poky-linux/imx-atf/2.10+git/git/build-optee/imx8mp/release/bl31/imx_sip_svc.o
 .eh_frame      0x0000000000000000       0x50 /home/mx3g/linux/mpu/nxp/frdm-imx8mp/tmp/work/imx8mpfrdm-poky-linux/imx-atf/2.10+git/git/build-optee/imx8mp/release/bl31/imx_sip_svc.o
 .text          0x0000000000000000        0x0 /home/mx3g/linux/mpu/nxp/frdm-imx8mp/tmp/work/imx8mpfrdm-poky-linux/imx-atf/2.10+git/git/build-optee/imx8mp/release/bl31/plat_imx8_gic.o
 .data          0x0000000000000000        0x0 /home/mx3g/linux/mpu/nxp/frdm-imx8mp/tmp/work/imx8mpfrdm-poky-linux/imx-atf/2.10+git/git/build-optee/imx8mp/release/bl31/plat_imx8_gic.o
 .bss           0x0000000000000000        0x0 /home/mx3g/linux/mpu/nxp/frdm-imx8mp/tmp/work/imx8mpfrdm-poky-linux/imx-atf/2.10+git/git/build-optee/imx8mp/release/bl31/plat_imx8_gic.o
 .eh_frame      0x0000000000000000      0x110 /home/mx3g/linux/mpu/nxp/frdm-imx8mp/tmp/work/imx8mpfrdm-poky-linux/imx-atf/2.10+git/git/build-optee/imx8mp/release/bl31/plat_imx8_gic.o
 .text          0x0000000000000000        0x0 /home/mx3g/linux/mpu/nxp/frdm-imx8mp/tmp/work/imx8mpfrdm-poky-linux/imx-atf/2.10+git/git/build-optee/imx8mp/release/bl31/clock.o
 .data          0x0000000000000000        0x0 /home/mx3g/linux/mpu/nxp/frdm-imx8mp/tmp/work/imx8mpfrdm-poky-linux/imx-atf/2.10+git/git/build-optee/imx8mp/release/bl31/clock.o
 .bss           0x0000000000000000        0x0 /home/mx3g/linux/mpu/nxp/frdm-imx8mp/tmp/work/imx8mpfrdm-poky-linux/imx-atf/2.10+git/git/build-optee/imx8mp/release/bl31/clock.o
 .eh_frame      0x0000000000000000       0x78 /home/mx3g/linux/mpu/nxp/frdm-imx8mp/tmp/work/imx8mpfrdm-poky-linux/imx-atf/2.10+git/git/build-optee/imx8mp/release/bl31/clock.o
 .text          0x0000000000000000        0x0 /home/mx3g/linux/mpu/nxp/frdm-imx8mp/tmp/work/imx8mpfrdm-poky-linux/imx-atf/2.10+git/git/build-optee/imx8mp/release/bl31/ddr4_dvfs.o
 .data          0x0000000000000000        0x0 /home/mx3g/linux/mpu/nxp/frdm-imx8mp/tmp/work/imx8mpfrdm-poky-linux/imx-atf/2.10+git/git/build-optee/imx8mp/release/bl31/ddr4_dvfs.o
 .bss           0x0000000000000000        0x0 /home/mx3g/linux/mpu/nxp/frdm-imx8mp/tmp/work/imx8mpfrdm-poky-linux/imx-atf/2.10+git/git/build-optee/imx8mp/release/bl31/ddr4_dvfs.o
 .eh_frame      0x0000000000000000       0x98 /home/mx3g/linux/mpu/nxp/frdm-imx8mp/tmp/work/imx8mpfrdm-poky-linux/imx-atf/2.10+git/git/build-optee/imx8mp/release/bl31/ddr4_dvfs.o
 .text          0x0000000000000000        0x0 /home/mx3g/linux/mpu/nxp/frdm-imx8mp/tmp/work/imx8mpfrdm-poky-linux/imx-atf/2.10+git/git/build-optee/imx8mp/release/bl31/dram.o
 .data          0x0000000000000000        0x0 /home/mx3g/linux/mpu/nxp/frdm-imx8mp/tmp/work/imx8mpfrdm-poky-linux/imx-atf/2.10+git/git/build-optee/imx8mp/release/bl31/dram.o
 .bss           0x0000000000000000        0x0 /home/mx3g/linux/mpu/nxp/frdm-imx8mp/tmp/work/imx8mpfrdm-poky-linux/imx-atf/2.10+git/git/build-optee/imx8mp/release/bl31/dram.o
 .eh_frame      0x0000000000000000      0x108 /home/mx3g/linux/mpu/nxp/frdm-imx8mp/tmp/work/imx8mpfrdm-poky-linux/imx-atf/2.10+git/git/build-optee/imx8mp/release/bl31/dram.o
 .text          0x0000000000000000        0x0 /home/mx3g/linux/mpu/nxp/frdm-imx8mp/tmp/work/imx8mpfrdm-poky-linux/imx-atf/2.10+git/git/build-optee/imx8mp/release/bl31/dram_retention.o
 .data          0x0000000000000000        0x0 /home/mx3g/linux/mpu/nxp/frdm-imx8mp/tmp/work/imx8mpfrdm-poky-linux/imx-atf/2.10+git/git/build-optee/imx8mp/release/bl31/dram_retention.o
 .bss           0x0000000000000000        0x0 /home/mx3g/linux/mpu/nxp/frdm-imx8mp/tmp/work/imx8mpfrdm-poky-linux/imx-atf/2.10+git/git/build-optee/imx8mp/release/bl31/dram_retention.o
 .eh_frame      0x0000000000000000       0x60 /home/mx3g/linux/mpu/nxp/frdm-imx8mp/tmp/work/imx8mpfrdm-poky-linux/imx-atf/2.10+git/git/build-optee/imx8mp/release/bl31/dram_retention.o
 .text          0x0000000000000000        0x0 /home/mx3g/linux/mpu/nxp/frdm-imx8mp/tmp/work/imx8mpfrdm-poky-linux/imx-atf/2.10+git/git/build-optee/imx8mp/release/bl31/lpddr4_dvfs.o
 .data          0x0000000000000000        0x0 /home/mx3g/linux/mpu/nxp/frdm-imx8mp/tmp/work/imx8mpfrdm-poky-linux/imx-atf/2.10+git/git/build-optee/imx8mp/release/bl31/lpddr4_dvfs.o
 .bss           0x0000000000000000        0x0 /home/mx3g/linux/mpu/nxp/frdm-imx8mp/tmp/work/imx8mpfrdm-poky-linux/imx-atf/2.10+git/git/build-optee/imx8mp/release/bl31/lpddr4_dvfs.o
 .eh_frame      0x0000000000000000       0x60 /home/mx3g/linux/mpu/nxp/frdm-imx8mp/tmp/work/imx8mpfrdm-poky-linux/imx-atf/2.10+git/git/build-optee/imx8mp/release/bl31/lpddr4_dvfs.o
 .text          0x0000000000000000        0x0 /home/mx3g/linux/mpu/nxp/frdm-imx8mp/tmp/work/imx8mpfrdm-poky-linux/imx-atf/2.10+git/git/build-optee/imx8mp/release/bl31/gpc_common.o
 .data          0x0000000000000000        0x0 /home/mx3g/linux/mpu/nxp/frdm-imx8mp/tmp/work/imx8mpfrdm-poky-linux/imx-atf/2.10+git/git/build-optee/imx8mp/release/bl31/gpc_common.o
 .bss           0x0000000000000000        0x0 /home/mx3g/linux/mpu/nxp/frdm-imx8mp/tmp/work/imx8mpfrdm-poky-linux/imx-atf/2.10+git/git/build-optee/imx8mp/release/bl31/gpc_common.o
 .text.imx_set_cluster_standby
                0x0000000000000000       0x28 /home/mx3g/linux/mpu/nxp/frdm-imx8mp/tmp/work/imx8mpfrdm-poky-linux/imx-atf/2.10+git/git/build-optee/imx8mp/release/bl31/gpc_common.o
 .eh_frame      0x0000000000000000      0x1d0 /home/mx3g/linux/mpu/nxp/frdm-imx8mp/tmp/work/imx8mpfrdm-poky-linux/imx-atf/2.10+git/git/build-optee/imx8mp/release/bl31/gpc_common.o
 .text          0x0000000000000000        0x0 /home/mx3g/linux/mpu/nxp/frdm-imx8mp/tmp/work/imx8mpfrdm-poky-linux/imx-atf/2.10+git/git/build-optee/imx8mp/release/bl31/imx8m_caam.o
 .data          0x0000000000000000        0x0 /home/mx3g/linux/mpu/nxp/frdm-imx8mp/tmp/work/imx8mpfrdm-poky-linux/imx-atf/2.10+git/git/build-optee/imx8mp/release/bl31/imx8m_caam.o
 .bss           0x0000000000000000        0x0 /home/mx3g/linux/mpu/nxp/frdm-imx8mp/tmp/work/imx8mpfrdm-poky-linux/imx-atf/2.10+git/git/build-optee/imx8mp/release/bl31/imx8m_caam.o
 .eh_frame      0x0000000000000000       0x38 /home/mx3g/linux/mpu/nxp/frdm-imx8mp/tmp/work/imx8mpfrdm-poky-linux/imx-atf/2.10+git/git/build-optee/imx8mp/release/bl31/imx8m_caam.o
 .text          0x0000000000000000        0x0 /home/mx3g/linux/mpu/nxp/frdm-imx8mp/tmp/work/imx8mpfrdm-poky-linux/imx-atf/2.10+git/git/build-optee/imx8mp/release/bl31/imx8m_ccm.o
 .data          0x0000000000000000        0x0 /home/mx3g/linux/mpu/nxp/frdm-imx8mp/tmp/work/imx8mpfrdm-poky-linux/imx-atf/2.10+git/git/build-optee/imx8mp/release/bl31/imx8m_ccm.o
 .bss           0x0000000000000000        0x0 /home/mx3g/linux/mpu/nxp/frdm-imx8mp/tmp/work/imx8mpfrdm-poky-linux/imx-atf/2.10+git/git/build-optee/imx8mp/release/bl31/imx8m_ccm.o
 .text.imx8m_uart_get_base
                0x0000000000000000       0x4c /home/mx3g/linux/mpu/nxp/frdm-imx8mp/tmp/work/imx8mpfrdm-poky-linux/imx-atf/2.10+git/git/build-optee/imx8mp/release/bl31/imx8m_ccm.o
 .rodata.imx8m_uart_info
                0x0000000000000000       0x20 /home/mx3g/linux/mpu/nxp/frdm-imx8mp/tmp/work/imx8mpfrdm-poky-linux/imx-atf/2.10+git/git/build-optee/imx8mp/release/bl31/imx8m_ccm.o
 .comment       0x0000000000000000       0x13 /home/mx3g/linux/mpu/nxp/frdm-imx8mp/tmp/work/imx8mpfrdm-poky-linux/imx-atf/2.10+git/git/build-optee/imx8mp/release/bl31/imx8m_ccm.o
 .note.GNU-stack
                0x0000000000000000        0x0 /home/mx3g/linux/mpu/nxp/frdm-imx8mp/tmp/work/imx8mpfrdm-poky-linux/imx-atf/2.10+git/git/build-optee/imx8mp/release/bl31/imx8m_ccm.o
 .eh_frame      0x0000000000000000       0x28 /home/mx3g/linux/mpu/nxp/frdm-imx8mp/tmp/work/imx8mpfrdm-poky-linux/imx-atf/2.10+git/git/build-optee/imx8mp/release/bl31/imx8m_ccm.o
 .text          0x0000000000000000        0x0 /home/mx3g/linux/mpu/nxp/frdm-imx8mp/tmp/work/imx8mpfrdm-poky-linux/imx-atf/2.10+git/git/build-optee/imx8mp/release/bl31/imx8m_csu.o
 .data          0x0000000000000000        0x0 /home/mx3g/linux/mpu/nxp/frdm-imx8mp/tmp/work/imx8mpfrdm-poky-linux/imx-atf/2.10+git/git/build-optee/imx8mp/release/bl31/imx8m_csu.o
 .bss           0x0000000000000000        0x0 /home/mx3g/linux/mpu/nxp/frdm-imx8mp/tmp/work/imx8mpfrdm-poky-linux/imx-atf/2.10+git/git/build-optee/imx8mp/release/bl31/imx8m_csu.o
 .eh_frame      0x0000000000000000       0x28 /home/mx3g/linux/mpu/nxp/frdm-imx8mp/tmp/work/imx8mpfrdm-poky-linux/imx-atf/2.10+git/git/build-optee/imx8mp/release/bl31/imx8m_csu.o
 .text          0x0000000000000000        0x0 /home/mx3g/linux/mpu/nxp/frdm-imx8mp/tmp/work/imx8mpfrdm-poky-linux/imx-atf/2.10+git/git/build-optee/imx8mp/release/bl31/imx8m_psci_common.o
 .data          0x0000000000000000        0x0 /home/mx3g/linux/mpu/nxp/frdm-imx8mp/tmp/work/imx8mpfrdm-poky-linux/imx-atf/2.10+git/git/build-optee/imx8mp/release/bl31/imx8m_psci_common.o
 .bss           0x0000000000000000        0x0 /home/mx3g/linux/mpu/nxp/frdm-imx8mp/tmp/work/imx8mpfrdm-poky-linux/imx-atf/2.10+git/git/build-optee/imx8mp/release/bl31/imx8m_psci_common.o
 .text.imx_system_reset2
                0x0000000000000000       0x30 /home/mx3g/linux/mpu/nxp/frdm-imx8mp/tmp/work/imx8mpfrdm-poky-linux/imx-atf/2.10+git/git/build-optee/imx8mp/release/bl31/imx8m_psci_common.o
 .eh_frame      0x0000000000000000      0x188 /home/mx3g/linux/mpu/nxp/frdm-imx8mp/tmp/work/imx8mpfrdm-poky-linux/imx-atf/2.10+git/git/build-optee/imx8mp/release/bl31/imx8m_psci_common.o
 .text          0x0000000000000000        0x0 /home/mx3g/linux/mpu/nxp/frdm-imx8mp/tmp/work/imx8mpfrdm-poky-linux/imx-atf/2.10+git/git/build-optee/imx8mp/release/bl31/imx8m_snvs.o
 .data          0x0000000000000000        0x0 /home/mx3g/linux/mpu/nxp/frdm-imx8mp/tmp/work/imx8mpfrdm-poky-linux/imx-atf/2.10+git/git/build-optee/imx8mp/release/bl31/imx8m_snvs.o
 .bss           0x0000000000000000        0x0 /home/mx3g/linux/mpu/nxp/frdm-imx8mp/tmp/work/imx8mpfrdm-poky-linux/imx-atf/2.10+git/git/build-optee/imx8mp/release/bl31/imx8m_snvs.o
 .text.enable_snvs_privileged_access
                0x0000000000000000       0x18 /home/mx3g/linux/mpu/nxp/frdm-imx8mp/tmp/work/imx8mpfrdm-poky-linux/imx-atf/2.10+git/git/build-optee/imx8mp/release/bl31/imx8m_snvs.o
 .comment       0x0000000000000000       0x13 /home/mx3g/linux/mpu/nxp/frdm-imx8mp/tmp/work/imx8mpfrdm-poky-linux/imx-atf/2.10+git/git/build-optee/imx8mp/release/bl31/imx8m_snvs.o
 .note.GNU-stack
                0x0000000000000000        0x0 /home/mx3g/linux/mpu/nxp/frdm-imx8mp/tmp/work/imx8mpfrdm-poky-linux/imx-atf/2.10+git/git/build-optee/imx8mp/release/bl31/imx8m_snvs.o
 .eh_frame      0x0000000000000000       0x28 /home/mx3g/linux/mpu/nxp/frdm-imx8mp/tmp/work/imx8mpfrdm-poky-linux/imx-atf/2.10+git/git/build-optee/imx8mp/release/bl31/imx8m_snvs.o
 .text          0x0000000000000000        0x0 /home/mx3g/linux/mpu/nxp/frdm-imx8mp/tmp/work/imx8mpfrdm-poky-linux/imx-atf/2.10+git/git/build-optee/imx8mp/release/bl31/gpc.o
 .data          0x0000000000000000        0x0 /home/mx3g/linux/mpu/nxp/frdm-imx8mp/tmp/work/imx8mpfrdm-poky-linux/imx-atf/2.10+git/git/build-optee/imx8mp/release/bl31/gpc.o
 .bss           0x0000000000000000        0x0 /home/mx3g/linux/mpu/nxp/frdm-imx8mp/tmp/work/imx8mpfrdm-poky-linux/imx-atf/2.10+git/git/build-optee/imx8mp/release/bl31/gpc.o
 .eh_frame      0x0000000000000000       0xd0 /home/mx3g/linux/mpu/nxp/frdm-imx8mp/tmp/work/imx8mpfrdm-poky-linux/imx-atf/2.10+git/git/build-optee/imx8mp/release/bl31/gpc.o
 .text          0x0000000000000000        0x0 /home/mx3g/linux/mpu/nxp/frdm-imx8mp/tmp/work/imx8mpfrdm-poky-linux/imx-atf/2.10+git/git/build-optee/imx8mp/release/bl31/imx8mp_bl31_setup.o
 .data          0x0000000000000000        0x0 /home/mx3g/linux/mpu/nxp/frdm-imx8mp/tmp/work/imx8mpfrdm-poky-linux/imx-atf/2.10+git/git/build-optee/imx8mp/release/bl31/imx8mp_bl31_setup.o
 .bss           0x0000000000000000        0x0 /home/mx3g/linux/mpu/nxp/frdm-imx8mp/tmp/work/imx8mpfrdm-poky-linux/imx-atf/2.10+git/git/build-optee/imx8mp/release/bl31/imx8mp_bl31_setup.o
 .eh_frame      0x0000000000000000       0xb0 /home/mx3g/linux/mpu/nxp/frdm-imx8mp/tmp/work/imx8mpfrdm-poky-linux/imx-atf/2.10+git/git/build-optee/imx8mp/release/bl31/imx8mp_bl31_setup.o
 .text          0x0000000000000000        0x0 /home/mx3g/linux/mpu/nxp/frdm-imx8mp/tmp/work/imx8mpfrdm-poky-linux/imx-atf/2.10+git/git/build-optee/imx8mp/release/bl31/imx8mp_psci.o
 .data          0x0000000000000000        0x0 /home/mx3g/linux/mpu/nxp/frdm-imx8mp/tmp/work/imx8mpfrdm-poky-linux/imx-atf/2.10+git/git/build-optee/imx8mp/release/bl31/imx8mp_psci.o
 .bss           0x0000000000000000        0x0 /home/mx3g/linux/mpu/nxp/frdm-imx8mp/tmp/work/imx8mpfrdm-poky-linux/imx-atf/2.10+git/git/build-optee/imx8mp/release/bl31/imx8mp_psci.o
 .eh_frame      0x0000000000000000       0x38 /home/mx3g/linux/mpu/nxp/frdm-imx8mp/tmp/work/imx8mpfrdm-poky-linux/imx-atf/2.10+git/git/build-optee/imx8mp/release/bl31/imx8mp_psci.o
 .text          0x0000000000000000        0x0 /home/mx3g/linux/mpu/nxp/frdm-imx8mp/tmp/work/imx8mpfrdm-poky-linux/imx-atf/2.10+git/git/build-optee/imx8mp/release/bl31/imx_aipstz.o
 .data          0x0000000000000000        0x0 /home/mx3g/linux/mpu/nxp/frdm-imx8mp/tmp/work/imx8mpfrdm-poky-linux/imx-atf/2.10+git/git/build-optee/imx8mp/release/bl31/imx_aipstz.o
 .bss           0x0000000000000000        0x0 /home/mx3g/linux/mpu/nxp/frdm-imx8mp/tmp/work/imx8mpfrdm-poky-linux/imx-atf/2.10+git/git/build-optee/imx8mp/release/bl31/imx_aipstz.o
 .eh_frame      0x0000000000000000       0x28 /home/mx3g/linux/mpu/nxp/frdm-imx8mp/tmp/work/imx8mpfrdm-poky-linux/imx-atf/2.10+git/git/build-optee/imx8mp/release/bl31/imx_aipstz.o
 .text          0x0000000000000000        0x0 /home/mx3g/linux/mpu/nxp/frdm-imx8mp/tmp/work/imx8mpfrdm-poky-linux/imx-atf/2.10+git/git/build-optee/imx8mp/release/bl31/imx_hab.o
 .data          0x0000000000000000        0x0 /home/mx3g/linux/mpu/nxp/frdm-imx8mp/tmp/work/imx8mpfrdm-poky-linux/imx-atf/2.10+git/git/build-optee/imx8mp/release/bl31/imx_hab.o
 .bss           0x0000000000000000        0x0 /home/mx3g/linux/mpu/nxp/frdm-imx8mp/tmp/work/imx8mpfrdm-poky-linux/imx-atf/2.10+git/git/build-optee/imx8mp/release/bl31/imx_hab.o
 .eh_frame      0x0000000000000000       0x60 /home/mx3g/linux/mpu/nxp/frdm-imx8mp/tmp/work/imx8mpfrdm-poky-linux/imx-atf/2.10+git/git/build-optee/imx8mp/release/bl31/imx_hab.o
 .text          0x0000000000000000        0x0 /home/mx3g/linux/mpu/nxp/frdm-imx8mp/tmp/work/imx8mpfrdm-poky-linux/imx-atf/2.10+git/git/build-optee/imx8mp/release/bl31/imx_rdc.o
 .data          0x0000000000000000        0x0 /home/mx3g/linux/mpu/nxp/frdm-imx8mp/tmp/work/imx8mpfrdm-poky-linux/imx-atf/2.10+git/git/build-optee/imx8mp/release/bl31/imx_rdc.o
 .bss           0x0000000000000000        0x0 /home/mx3g/linux/mpu/nxp/frdm-imx8mp/tmp/work/imx8mpfrdm-poky-linux/imx-atf/2.10+git/git/build-optee/imx8mp/release/bl31/imx_rdc.o
 .eh_frame      0x0000000000000000       0x28 /home/mx3g/linux/mpu/nxp/frdm-imx8mp/tmp/work/imx8mpfrdm-poky-linux/imx-atf/2.10+git/git/build-optee/imx8mp/release/bl31/imx_rdc.o
 .text          0x0000000000000000        0x0 /home/mx3g/linux/mpu/nxp/frdm-imx8mp/tmp/work/imx8mpfrdm-poky-linux/imx-atf/2.10+git/git/build-optee/imx8mp/release/bl31/arm_arch_svc_setup.o
 .data          0x0000000000000000        0x0 /home/mx3g/linux/mpu/nxp/frdm-imx8mp/tmp/work/imx8mpfrdm-poky-linux/imx-atf/2.10+git/git/build-optee/imx8mp/release/bl31/arm_arch_svc_setup.o
 .bss           0x0000000000000000        0x0 /home/mx3g/linux/mpu/nxp/frdm-imx8mp/tmp/work/imx8mpfrdm-poky-linux/imx-atf/2.10+git/git/build-optee/imx8mp/release/bl31/arm_arch_svc_setup.o
 .eh_frame      0x0000000000000000       0x38 /home/mx3g/linux/mpu/nxp/frdm-imx8mp/tmp/work/imx8mpfrdm-poky-linux/imx-atf/2.10+git/git/build-optee/imx8mp/release/bl31/arm_arch_svc_setup.o
 .text          0x0000000000000000        0x0 /home/mx3g/linux/mpu/nxp/frdm-imx8mp/tmp/work/imx8mpfrdm-poky-linux/imx-atf/2.10+git/git/build-optee/imx8mp/release/bl31/opteed_common.o
 .data          0x0000000000000000        0x0 /home/mx3g/linux/mpu/nxp/frdm-imx8mp/tmp/work/imx8mpfrdm-poky-linux/imx-atf/2.10+git/git/build-optee/imx8mp/release/bl31/opteed_common.o
 .bss           0x0000000000000000        0x0 /home/mx3g/linux/mpu/nxp/frdm-imx8mp/tmp/work/imx8mpfrdm-poky-linux/imx-atf/2.10+git/git/build-optee/imx8mp/release/bl31/opteed_common.o
 .eh_frame      0x0000000000000000       0x90 /home/mx3g/linux/mpu/nxp/frdm-imx8mp/tmp/work/imx8mpfrdm-poky-linux/imx-atf/2.10+git/git/build-optee/imx8mp/release/bl31/opteed_common.o
 .text          0x0000000000000000        0x0 /home/mx3g/linux/mpu/nxp/frdm-imx8mp/tmp/work/imx8mpfrdm-poky-linux/imx-atf/2.10+git/git/build-optee/imx8mp/release/bl31/opteed_main.o
 .data          0x0000000000000000        0x0 /home/mx3g/linux/mpu/nxp/frdm-imx8mp/tmp/work/imx8mpfrdm-poky-linux/imx-atf/2.10+git/git/build-optee/imx8mp/release/bl31/opteed_main.o
 .bss           0x0000000000000000        0x0 /home/mx3g/linux/mpu/nxp/frdm-imx8mp/tmp/work/imx8mpfrdm-poky-linux/imx-atf/2.10+git/git/build-optee/imx8mp/release/bl31/opteed_main.o
 .text.dual32to64
                0x0000000000000000        0xc /home/mx3g/linux/mpu/nxp/frdm-imx8mp/tmp/work/imx8mpfrdm-poky-linux/imx-atf/2.10+git/git/build-optee/imx8mp/release/bl31/opteed_main.o
 .eh_frame      0x0000000000000000       0xd8 /home/mx3g/linux/mpu/nxp/frdm-imx8mp/tmp/work/imx8mpfrdm-poky-linux/imx-atf/2.10+git/git/build-optee/imx8mp/release/bl31/opteed_main.o
 .text          0x0000000000000000        0x0 /home/mx3g/linux/mpu/nxp/frdm-imx8mp/tmp/work/imx8mpfrdm-poky-linux/imx-atf/2.10+git/git/build-optee/imx8mp/release/bl31/opteed_pm.o
 .data          0x0000000000000000        0x0 /home/mx3g/linux/mpu/nxp/frdm-imx8mp/tmp/work/imx8mpfrdm-poky-linux/imx-atf/2.10+git/git/build-optee/imx8mp/release/bl31/opteed_pm.o
 .bss           0x0000000000000000        0x0 /home/mx3g/linux/mpu/nxp/frdm-imx8mp/tmp/work/imx8mpfrdm-poky-linux/imx-atf/2.10+git/git/build-optee/imx8mp/release/bl31/opteed_pm.o
 .eh_frame      0x0000000000000000      0x140 /home/mx3g/linux/mpu/nxp/frdm-imx8mp/tmp/work/imx8mpfrdm-poky-linux/imx-atf/2.10+git/git/build-optee/imx8mp/release/bl31/opteed_pm.o
 .text          0x0000000000000000        0x0 /home/mx3g/linux/mpu/nxp/frdm-imx8mp/tmp/work/imx8mpfrdm-poky-linux/imx-atf/2.10+git/git/build-optee/imx8mp/release/bl31/std_svc_setup.o
 .data          0x0000000000000000        0x0 /home/mx3g/linux/mpu/nxp/frdm-imx8mp/tmp/work/imx8mpfrdm-poky-linux/imx-atf/2.10+git/git/build-optee/imx8mp/release/bl31/std_svc_setup.o
 .bss           0x0000000000000000        0x0 /home/mx3g/linux/mpu/nxp/frdm-imx8mp/tmp/work/imx8mpfrdm-poky-linux/imx-atf/2.10+git/git/build-optee/imx8mp/release/bl31/std_svc_setup.o
 .eh_frame      0x0000000000000000       0x58 /home/mx3g/linux/mpu/nxp/frdm-imx8mp/tmp/work/imx8mpfrdm-poky-linux/imx-atf/2.10+git/git/build-optee/imx8mp/release/bl31/std_svc_setup.o
 .text          0x0000000000000000        0x0 /home/mx3g/linux/mpu/nxp/frdm-imx8mp/tmp/work/imx8mpfrdm-poky-linux/imx-atf/2.10+git/git/build-optee/imx8mp/release/bl31/bl31_entrypoint.o
 .data          0x0000000000000000        0x0 /home/mx3g/linux/mpu/nxp/frdm-imx8mp/tmp/work/imx8mpfrdm-poky-linux/imx-atf/2.10+git/git/build-optee/imx8mp/release/bl31/bl31_entrypoint.o
 .bss           0x0000000000000000        0x0 /home/mx3g/linux/mpu/nxp/frdm-imx8mp/tmp/work/imx8mpfrdm-poky-linux/imx-atf/2.10+git/git/build-optee/imx8mp/release/bl31/bl31_entrypoint.o
 .text          0x0000000000000000        0x0 /home/mx3g/linux/mpu/nxp/frdm-imx8mp/tmp/work/imx8mpfrdm-poky-linux/imx-atf/2.10+git/git/build-optee/imx8mp/release/bl31/crash_reporting.o
 .data          0x0000000000000000        0x0 /home/mx3g/linux/mpu/nxp/frdm-imx8mp/tmp/work/imx8mpfrdm-poky-linux/imx-atf/2.10+git/git/build-optee/imx8mp/release/bl31/crash_reporting.o
 .bss           0x0000000000000000        0x0 /home/mx3g/linux/mpu/nxp/frdm-imx8mp/tmp/work/imx8mpfrdm-poky-linux/imx-atf/2.10+git/git/build-optee/imx8mp/release/bl31/crash_reporting.o
 .text.asm.crash_panic
                0x0000000000000000        0x4 /home/mx3g/linux/mpu/nxp/frdm-imx8mp/tmp/work/imx8mpfrdm-poky-linux/imx-atf/2.10+git/git/build-optee/imx8mp/release/bl31/crash_reporting.o
 .text          0x0000000000000000        0x0 /home/mx3g/linux/mpu/nxp/frdm-imx8mp/tmp/work/imx8mpfrdm-poky-linux/imx-atf/2.10+git/git/build-optee/imx8mp/release/bl31/runtime_exceptions.o
 .data          0x0000000000000000        0x0 /home/mx3g/linux/mpu/nxp/frdm-imx8mp/tmp/work/imx8mpfrdm-poky-linux/imx-atf/2.10+git/git/build-optee/imx8mp/release/bl31/runtime_exceptions.o
 .bss           0x0000000000000000        0x0 /home/mx3g/linux/mpu/nxp/frdm-imx8mp/tmp/work/imx8mpfrdm-poky-linux/imx-atf/2.10+git/git/build-optee/imx8mp/release/bl31/runtime_exceptions.o
 .text          0x0000000000000000        0x0 /home/mx3g/linux/mpu/nxp/frdm-imx8mp/tmp/work/imx8mpfrdm-poky-linux/imx-atf/2.10+git/git/build-optee/imx8mp/release/bl31/debug.o
 .data          0x0000000000000000        0x0 /home/mx3g/linux/mpu/nxp/frdm-imx8mp/tmp/work/imx8mpfrdm-poky-linux/imx-atf/2.10+git/git/build-optee/imx8mp/release/bl31/debug.o
 .bss           0x0000000000000000        0x0 /home/mx3g/linux/mpu/nxp/frdm-imx8mp/tmp/work/imx8mpfrdm-poky-linux/imx-atf/2.10+git/git/build-optee/imx8mp/release/bl31/debug.o
 .text          0x0000000000000000        0x0 /home/mx3g/linux/mpu/nxp/frdm-imx8mp/tmp/work/imx8mpfrdm-poky-linux/imx-atf/2.10+git/git/build-optee/imx8mp/release/bl31/cache_helpers.o
 .data          0x0000000000000000        0x0 /home/mx3g/linux/mpu/nxp/frdm-imx8mp/tmp/work/imx8mpfrdm-poky-linux/imx-atf/2.10+git/git/build-optee/imx8mp/release/bl31/cache_helpers.o
 .bss           0x0000000000000000        0x0 /home/mx3g/linux/mpu/nxp/frdm-imx8mp/tmp/work/imx8mpfrdm-poky-linux/imx-atf/2.10+git/git/build-optee/imx8mp/release/bl31/cache_helpers.o
 .text.asm.flush_dcache_to_popa_range
                0x0000000000000000       0x38 /home/mx3g/linux/mpu/nxp/frdm-imx8mp/tmp/work/imx8mpfrdm-poky-linux/imx-atf/2.10+git/git/build-optee/imx8mp/release/bl31/cache_helpers.o
 .text.asm.dcsw_op_louis
                0x0000000000000000       0x14 /home/mx3g/linux/mpu/nxp/frdm-imx8mp/tmp/work/imx8mpfrdm-poky-linux/imx-atf/2.10+git/git/build-optee/imx8mp/release/bl31/cache_helpers.o
 .text.asm.dcsw_op_level3
                0x0000000000000000       0x10 /home/mx3g/linux/mpu/nxp/frdm-imx8mp/tmp/work/imx8mpfrdm-poky-linux/imx-atf/2.10+git/git/build-optee/imx8mp/release/bl31/cache_helpers.o
 .text          0x0000000000000000        0x0 /home/mx3g/linux/mpu/nxp/frdm-imx8mp/tmp/work/imx8mpfrdm-poky-linux/imx-atf/2.10+git/git/build-optee/imx8mp/release/bl31/misc_helpers.o
 .data          0x0000000000000000        0x0 /home/mx3g/linux/mpu/nxp/frdm-imx8mp/tmp/work/imx8mpfrdm-poky-linux/imx-atf/2.10+git/git/build-optee/imx8mp/release/bl31/misc_helpers.o
 .bss           0x0000000000000000        0x0 /home/mx3g/linux/mpu/nxp/frdm-imx8mp/tmp/work/imx8mpfrdm-poky-linux/imx-atf/2.10+git/git/build-optee/imx8mp/release/bl31/misc_helpers.o
 .text.asm.smc  0x0000000000000000        0x4 /home/mx3g/linux/mpu/nxp/frdm-imx8mp/tmp/work/imx8mpfrdm-poky-linux/imx-atf/2.10+git/git/build-optee/imx8mp/release/bl31/misc_helpers.o
 .text.asm.memcpy16
                0x0000000000000000       0x30 /home/mx3g/linux/mpu/nxp/frdm-imx8mp/tmp/work/imx8mpfrdm-poky-linux/imx-atf/2.10+git/git/build-optee/imx8mp/release/bl31/misc_helpers.o
 .text.asm.disable_mmu_el3
                0x0000000000000000       0x1c /home/mx3g/linux/mpu/nxp/frdm-imx8mp/tmp/work/imx8mpfrdm-poky-linux/imx-atf/2.10+git/git/build-optee/imx8mp/release/bl31/misc_helpers.o
 .text.asm.disable_mmu_icache_el3
                0x0000000000000000        0x8 /home/mx3g/linux/mpu/nxp/frdm-imx8mp/tmp/work/imx8mpfrdm-poky-linux/imx-atf/2.10+git/git/build-optee/imx8mp/release/bl31/misc_helpers.o
 .text.asm.disable_mmu_el1
                0x0000000000000000       0x1c /home/mx3g/linux/mpu/nxp/frdm-imx8mp/tmp/work/imx8mpfrdm-poky-linux/imx-atf/2.10+git/git/build-optee/imx8mp/release/bl31/misc_helpers.o
 .text.asm.disable_mmu_icache_el1
                0x0000000000000000        0x8 /home/mx3g/linux/mpu/nxp/frdm-imx8mp/tmp/work/imx8mpfrdm-poky-linux/imx-atf/2.10+git/git/build-optee/imx8mp/release/bl31/misc_helpers.o
 .text.asm.gpt_tlbi_by_pa_ll
                0x0000000000000000       0x10 /home/mx3g/linux/mpu/nxp/frdm-imx8mp/tmp/work/imx8mpfrdm-poky-linux/imx-atf/2.10+git/git/build-optee/imx8mp/release/bl31/misc_helpers.o
 .text          0x0000000000000000        0x0 /home/mx3g/linux/mpu/nxp/frdm-imx8mp/tmp/work/imx8mpfrdm-poky-linux/imx-atf/2.10+git/git/build-optee/imx8mp/release/bl31/cortex_a53.o
 .data          0x0000000000000000        0x0 /home/mx3g/linux/mpu/nxp/frdm-imx8mp/tmp/work/imx8mpfrdm-poky-linux/imx-atf/2.10+git/git/build-optee/imx8mp/release/bl31/cortex_a53.o
 .bss           0x0000000000000000        0x0 /home/mx3g/linux/mpu/nxp/frdm-imx8mp/tmp/work/imx8mpfrdm-poky-linux/imx-atf/2.10+git/git/build-optee/imx8mp/release/bl31/cortex_a53.o
 .text.asm.erratum_cortex_a53_826319_wa
                0x0000000000000000       0x24 /home/mx3g/linux/mpu/nxp/frdm-imx8mp/tmp/work/imx8mpfrdm-poky-linux/imx-atf/2.10+git/git/build-optee/imx8mp/release/bl31/cortex_a53.o
 .text.asm.erratum_cortex_a53_836870_wa
                0x0000000000000000       0x20 /home/mx3g/linux/mpu/nxp/frdm-imx8mp/tmp/work/imx8mpfrdm-poky-linux/imx-atf/2.10+git/git/build-optee/imx8mp/release/bl31/cortex_a53.o
 .rodata.cortex_a53_regs
                0x0000000000000000       0x36 /home/mx3g/linux/mpu/nxp/frdm-imx8mp/tmp/work/imx8mpfrdm-poky-linux/imx-atf/2.10+git/git/build-optee/imx8mp/release/bl31/cortex_a53.o
 .text.asm.cortex_a53_cpu_reg_dump
                0x0000000000000000       0x18 /home/mx3g/linux/mpu/nxp/frdm-imx8mp/tmp/work/imx8mpfrdm-poky-linux/imx-atf/2.10+git/git/build-optee/imx8mp/release/bl31/cortex_a53.o
 .text          0x0000000000000000        0x0 /home/mx3g/linux/mpu/nxp/frdm-imx8mp/tmp/work/imx8mpfrdm-poky-linux/imx-atf/2.10+git/git/build-optee/imx8mp/release/bl31/cpu_helpers.o
 .data          0x0000000000000000        0x0 /home/mx3g/linux/mpu/nxp/frdm-imx8mp/tmp/work/imx8mpfrdm-poky-linux/imx-atf/2.10+git/git/build-optee/imx8mp/release/bl31/cpu_helpers.o
 .bss           0x0000000000000000        0x0 /home/mx3g/linux/mpu/nxp/frdm-imx8mp/tmp/work/imx8mpfrdm-poky-linux/imx-atf/2.10+git/git/build-optee/imx8mp/release/bl31/cpu_helpers.o
 .text.asm.cpu_rev_var_range
                0x0000000000000000       0x24 /home/mx3g/linux/mpu/nxp/frdm-imx8mp/tmp/work/imx8mpfrdm-poky-linux/imx-atf/2.10+git/git/build-optee/imx8mp/release/bl31/cpu_helpers.o
 .text.asm.wa_cve_2018_3639_get_disable_ptr
                0x0000000000000000       0x10 /home/mx3g/linux/mpu/nxp/frdm-imx8mp/tmp/work/imx8mpfrdm-poky-linux/imx-atf/2.10+git/git/build-optee/imx8mp/release/bl31/cpu_helpers.o
 .text          0x0000000000000000        0x0 /home/mx3g/linux/mpu/nxp/frdm-imx8mp/tmp/work/imx8mpfrdm-poky-linux/imx-atf/2.10+git/git/build-optee/imx8mp/release/bl31/dsu_helpers.o
 .data          0x0000000000000000        0x0 /home/mx3g/linux/mpu/nxp/frdm-imx8mp/tmp/work/imx8mpfrdm-poky-linux/imx-atf/2.10+git/git/build-optee/imx8mp/release/bl31/dsu_helpers.o
 .bss           0x0000000000000000        0x0 /home/mx3g/linux/mpu/nxp/frdm-imx8mp/tmp/work/imx8mpfrdm-poky-linux/imx-atf/2.10+git/git/build-optee/imx8mp/release/bl31/dsu_helpers.o
 .text.asm.check_errata_dsu_798953
                0x0000000000000000       0x20 /home/mx3g/linux/mpu/nxp/frdm-imx8mp/tmp/work/imx8mpfrdm-poky-linux/imx-atf/2.10+git/git/build-optee/imx8mp/release/bl31/dsu_helpers.o
 .text.asm.errata_dsu_798953_wa
                0x0000000000000000       0x20 /home/mx3g/linux/mpu/nxp/frdm-imx8mp/tmp/work/imx8mpfrdm-poky-linux/imx-atf/2.10+git/git/build-optee/imx8mp/release/bl31/dsu_helpers.o
 .text.asm.is_scu_present_in_dsu
                0x0000000000000000        0x8 /home/mx3g/linux/mpu/nxp/frdm-imx8mp/tmp/work/imx8mpfrdm-poky-linux/imx-atf/2.10+git/git/build-optee/imx8mp/release/bl31/dsu_helpers.o
 .text.asm.check_errata_dsu_936184
                0x0000000000000000       0x38 /home/mx3g/linux/mpu/nxp/frdm-imx8mp/tmp/work/imx8mpfrdm-poky-linux/imx-atf/2.10+git/git/build-optee/imx8mp/release/bl31/dsu_helpers.o
 .text.asm.errata_dsu_936184_wa
                0x0000000000000000       0x30 /home/mx3g/linux/mpu/nxp/frdm-imx8mp/tmp/work/imx8mpfrdm-poky-linux/imx-atf/2.10+git/git/build-optee/imx8mp/release/bl31/dsu_helpers.o
 .text.asm.check_errata_dsu_2313941
                0x0000000000000000       0x20 /home/mx3g/linux/mpu/nxp/frdm-imx8mp/tmp/work/imx8mpfrdm-poky-linux/imx-atf/2.10+git/git/build-optee/imx8mp/release/bl31/dsu_helpers.o
 .text.asm.errata_dsu_2313941_wa
                0x0000000000000000       0x20 /home/mx3g/linux/mpu/nxp/frdm-imx8mp/tmp/work/imx8mpfrdm-poky-linux/imx-atf/2.10+git/git/build-optee/imx8mp/release/bl31/dsu_helpers.o
 .debug_frame   0x0000000000000000       0xb8 /home/mx3g/linux/mpu/nxp/frdm-imx8mp/tmp/work/imx8mpfrdm-poky-linux/imx-atf/2.10+git/git/build-optee/imx8mp/release/bl31/dsu_helpers.o
 .text          0x0000000000000000        0x0 /home/mx3g/linux/mpu/nxp/frdm-imx8mp/tmp/work/imx8mpfrdm-poky-linux/imx-atf/2.10+git/git/build-optee/imx8mp/release/bl31/wa_cve_2017_5715_bpiall.o
 .data          0x0000000000000000        0x0 /home/mx3g/linux/mpu/nxp/frdm-imx8mp/tmp/work/imx8mpfrdm-poky-linux/imx-atf/2.10+git/git/build-optee/imx8mp/release/bl31/wa_cve_2017_5715_bpiall.o
 .bss           0x0000000000000000        0x0 /home/mx3g/linux/mpu/nxp/frdm-imx8mp/tmp/work/imx8mpfrdm-poky-linux/imx-atf/2.10+git/git/build-optee/imx8mp/release/bl31/wa_cve_2017_5715_bpiall.o
 .vectors       0x0000000000000000     0x1000 /home/mx3g/linux/mpu/nxp/frdm-imx8mp/tmp/work/imx8mpfrdm-poky-linux/imx-atf/2.10+git/git/build-optee/imx8mp/release/bl31/wa_cve_2017_5715_bpiall.o
 .text.asm.bpiall_ret_sync_exception_aarch32_tail
                0x0000000000000000        0x8 /home/mx3g/linux/mpu/nxp/frdm-imx8mp/tmp/work/imx8mpfrdm-poky-linux/imx-atf/2.10+git/git/build-optee/imx8mp/release/bl31/wa_cve_2017_5715_bpiall.o
 .debug_frame   0x0000000000000000      0x328 /home/mx3g/linux/mpu/nxp/frdm-imx8mp/tmp/work/imx8mpfrdm-poky-linux/imx-atf/2.10+git/git/build-optee/imx8mp/release/bl31/wa_cve_2017_5715_bpiall.o
 .text          0x0000000000000000        0x0 /home/mx3g/linux/mpu/nxp/frdm-imx8mp/tmp/work/imx8mpfrdm-poky-linux/imx-atf/2.10+git/git/build-optee/imx8mp/release/bl31/wa_cve_2017_5715_mmu.o
 .data          0x0000000000000000        0x0 /home/mx3g/linux/mpu/nxp/frdm-imx8mp/tmp/work/imx8mpfrdm-poky-linux/imx-atf/2.10+git/git/build-optee/imx8mp/release/bl31/wa_cve_2017_5715_mmu.o
 .bss           0x0000000000000000        0x0 /home/mx3g/linux/mpu/nxp/frdm-imx8mp/tmp/work/imx8mpfrdm-poky-linux/imx-atf/2.10+git/git/build-optee/imx8mp/release/bl31/wa_cve_2017_5715_mmu.o
 .vectors       0x0000000000000000      0x800 /home/mx3g/linux/mpu/nxp/frdm-imx8mp/tmp/work/imx8mpfrdm-poky-linux/imx-atf/2.10+git/git/build-optee/imx8mp/release/bl31/wa_cve_2017_5715_mmu.o
 .debug_frame   0x0000000000000000      0x190 /home/mx3g/linux/mpu/nxp/frdm-imx8mp/tmp/work/imx8mpfrdm-poky-linux/imx-atf/2.10+git/git/build-optee/imx8mp/release/bl31/wa_cve_2017_5715_mmu.o
 .text          0x0000000000000000        0x0 /home/mx3g/linux/mpu/nxp/frdm-imx8mp/tmp/work/imx8mpfrdm-poky-linux/imx-atf/2.10+git/git/build-optee/imx8mp/release/bl31/context.o
 .data          0x0000000000000000        0x0 /home/mx3g/linux/mpu/nxp/frdm-imx8mp/tmp/work/imx8mpfrdm-poky-linux/imx-atf/2.10+git/git/build-optee/imx8mp/release/bl31/context.o
 .bss           0x0000000000000000        0x0 /home/mx3g/linux/mpu/nxp/frdm-imx8mp/tmp/work/imx8mpfrdm-poky-linux/imx-atf/2.10+git/git/build-optee/imx8mp/release/bl31/context.o
 .text.asm.save_and_update_ptw_el1_sys_regs
                0x0000000000000000       0x34 /home/mx3g/linux/mpu/nxp/frdm-imx8mp/tmp/work/imx8mpfrdm-poky-linux/imx-atf/2.10+git/git/build-optee/imx8mp/release/bl31/context.o
 .text          0x0000000000000000        0x0 /home/mx3g/linux/mpu/nxp/frdm-imx8mp/tmp/work/imx8mpfrdm-poky-linux/imx-atf/2.10+git/git/build-optee/imx8mp/release/bl31/cpu_data.o
 .data          0x0000000000000000        0x0 /home/mx3g/linux/mpu/nxp/frdm-imx8mp/tmp/work/imx8mpfrdm-poky-linux/imx-atf/2.10+git/git/build-optee/imx8mp/release/bl31/cpu_data.o
 .bss           0x0000000000000000        0x0 /home/mx3g/linux/mpu/nxp/frdm-imx8mp/tmp/work/imx8mpfrdm-poky-linux/imx-atf/2.10+git/git/build-optee/imx8mp/release/bl31/cpu_data.o
 .text          0x0000000000000000        0x0 /home/mx3g/linux/mpu/nxp/frdm-imx8mp/tmp/work/imx8mpfrdm-poky-linux/imx-atf/2.10+git/git/build-optee/imx8mp/release/bl31/spinlock.o
 .data          0x0000000000000000        0x0 /home/mx3g/linux/mpu/nxp/frdm-imx8mp/tmp/work/imx8mpfrdm-poky-linux/imx-atf/2.10+git/git/build-optee/imx8mp/release/bl31/spinlock.o
 .bss           0x0000000000000000        0x0 /home/mx3g/linux/mpu/nxp/frdm-imx8mp/tmp/work/imx8mpfrdm-poky-linux/imx-atf/2.10+git/git/build-optee/imx8mp/release/bl31/spinlock.o
 .text          0x0000000000000000        0x0 /home/mx3g/linux/mpu/nxp/frdm-imx8mp/tmp/work/imx8mpfrdm-poky-linux/imx-atf/2.10+git/git/build-optee/imx8mp/release/bl31/psci_helpers.o
 .data          0x0000000000000000        0x0 /home/mx3g/linux/mpu/nxp/frdm-imx8mp/tmp/work/imx8mpfrdm-poky-linux/imx-atf/2.10+git/git/build-optee/imx8mp/release/bl31/psci_helpers.o
 .bss           0x0000000000000000        0x0 /home/mx3g/linux/mpu/nxp/frdm-imx8mp/tmp/work/imx8mpfrdm-poky-linux/imx-atf/2.10+git/git/build-optee/imx8mp/release/bl31/psci_helpers.o
 .text          0x0000000000000000        0x0 /home/mx3g/linux/mpu/nxp/frdm-imx8mp/tmp/work/imx8mpfrdm-poky-linux/imx-atf/2.10+git/git/build-optee/imx8mp/release/bl31/runtime_errata.o
 .data          0x0000000000000000        0x0 /home/mx3g/linux/mpu/nxp/frdm-imx8mp/tmp/work/imx8mpfrdm-poky-linux/imx-atf/2.10+git/git/build-optee/imx8mp/release/bl31/runtime_errata.o
 .bss           0x0000000000000000        0x0 /home/mx3g/linux/mpu/nxp/frdm-imx8mp/tmp/work/imx8mpfrdm-poky-linux/imx-atf/2.10+git/git/build-optee/imx8mp/release/bl31/runtime_errata.o
 .text.asm.apply_cpu_pwr_dwn_errata
                0x0000000000000000       0x10 /home/mx3g/linux/mpu/nxp/frdm-imx8mp/tmp/work/imx8mpfrdm-poky-linux/imx-atf/2.10+git/git/build-optee/imx8mp/release/bl31/runtime_errata.o
 .debug_frame   0x0000000000000000       0x28 /home/mx3g/linux/mpu/nxp/frdm-imx8mp/tmp/work/imx8mpfrdm-poky-linux/imx-atf/2.10+git/git/build-optee/imx8mp/release/bl31/runtime_errata.o
 .text          0x0000000000000000        0x0 /home/mx3g/linux/mpu/nxp/frdm-imx8mp/tmp/work/imx8mpfrdm-poky-linux/imx-atf/2.10+git/git/build-optee/imx8mp/release/bl31/enable_mmu.o
 .data          0x0000000000000000        0x0 /home/mx3g/linux/mpu/nxp/frdm-imx8mp/tmp/work/imx8mpfrdm-poky-linux/imx-atf/2.10+git/git/build-optee/imx8mp/release/bl31/enable_mmu.o
 .bss           0x0000000000000000        0x0 /home/mx3g/linux/mpu/nxp/frdm-imx8mp/tmp/work/imx8mpfrdm-poky-linux/imx-atf/2.10+git/git/build-optee/imx8mp/release/bl31/enable_mmu.o
 .text.asm.enable_mmu_direct_el1
                0x0000000000000000       0x58 /home/mx3g/linux/mpu/nxp/frdm-imx8mp/tmp/work/imx8mpfrdm-poky-linux/imx-atf/2.10+git/git/build-optee/imx8mp/release/bl31/enable_mmu.o
 .text.asm.enable_mmu_direct_el2
                0x0000000000000000       0x58 /home/mx3g/linux/mpu/nxp/frdm-imx8mp/tmp/work/imx8mpfrdm-poky-linux/imx-atf/2.10+git/git/build-optee/imx8mp/release/bl31/enable_mmu.o
 .text          0x0000000000000000        0x0 /home/mx3g/linux/mpu/nxp/frdm-imx8mp/tmp/work/imx8mpfrdm-poky-linux/imx-atf/2.10+git/git/build-optee/imx8mp/release/bl31/platform_helpers.o
 .data          0x0000000000000000        0x0 /home/mx3g/linux/mpu/nxp/frdm-imx8mp/tmp/work/imx8mpfrdm-poky-linux/imx-atf/2.10+git/git/build-optee/imx8mp/release/bl31/platform_helpers.o
 .bss           0x0000000000000000        0x0 /home/mx3g/linux/mpu/nxp/frdm-imx8mp/tmp/work/imx8mpfrdm-poky-linux/imx-atf/2.10+git/git/build-optee/imx8mp/release/bl31/platform_helpers.o
 .text.asm.plat_report_exception
                0x0000000000000000        0x4 /home/mx3g/linux/mpu/nxp/frdm-imx8mp/tmp/work/imx8mpfrdm-poky-linux/imx-atf/2.10+git/git/build-optee/imx8mp/release/bl31/platform_helpers.o
 .text.asm.plat_reset_handler
                0x0000000000000000        0x4 /home/mx3g/linux/mpu/nxp/frdm-imx8mp/tmp/work/imx8mpfrdm-poky-linux/imx-atf/2.10+git/git/build-optee/imx8mp/release/bl31/platform_helpers.o
 .text.asm.bl1_plat_prepare_exit
                0x0000000000000000        0x4 /home/mx3g/linux/mpu/nxp/frdm-imx8mp/tmp/work/imx8mpfrdm-poky-linux/imx-atf/2.10+git/git/build-optee/imx8mp/release/bl31/platform_helpers.o
 .text.asm.bl32_plat_enable_mmu
                0x0000000000000000        0x4 /home/mx3g/linux/mpu/nxp/frdm-imx8mp/tmp/work/imx8mpfrdm-poky-linux/imx-atf/2.10+git/git/build-optee/imx8mp/release/bl31/platform_helpers.o
 .text.asm.plat_handle_uncontainable_ea
                0x0000000000000000        0x4 /home/mx3g/linux/mpu/nxp/frdm-imx8mp/tmp/work/imx8mpfrdm-poky-linux/imx-atf/2.10+git/git/build-optee/imx8mp/release/bl31/platform_helpers.o
 .text.asm.plat_handle_double_fault
                0x0000000000000000        0x4 /home/mx3g/linux/mpu/nxp/frdm-imx8mp/tmp/work/imx8mpfrdm-poky-linux/imx-atf/2.10+git/git/build-optee/imx8mp/release/bl31/platform_helpers.o
 .text          0x0000000000000000        0x0 /home/mx3g/linux/mpu/nxp/frdm-imx8mp/tmp/work/imx8mpfrdm-poky-linux/imx-atf/2.10+git/git/build-optee/imx8mp/release/bl31/platform_mp_stack.o
 .data          0x0000000000000000        0x0 /home/mx3g/linux/mpu/nxp/frdm-imx8mp/tmp/work/imx8mpfrdm-poky-linux/imx-atf/2.10+git/git/build-optee/imx8mp/release/bl31/platform_mp_stack.o
 .bss           0x0000000000000000        0x0 /home/mx3g/linux/mpu/nxp/frdm-imx8mp/tmp/work/imx8mpfrdm-poky-linux/imx-atf/2.10+git/git/build-optee/imx8mp/release/bl31/platform_mp_stack.o
 .text          0x0000000000000000        0x0 /home/mx3g/linux/mpu/nxp/frdm-imx8mp/tmp/work/imx8mpfrdm-poky-linux/imx-atf/2.10+git/git/build-optee/imx8mp/release/bl31/imx8_helpers.o
 .data          0x0000000000000000        0x0 /home/mx3g/linux/mpu/nxp/frdm-imx8mp/tmp/work/imx8mpfrdm-poky-linux/imx-atf/2.10+git/git/build-optee/imx8mp/release/bl31/imx8_helpers.o
 .bss           0x0000000000000000        0x0 /home/mx3g/linux/mpu/nxp/frdm-imx8mp/tmp/work/imx8mpfrdm-poky-linux/imx-atf/2.10+git/git/build-optee/imx8mp/release/bl31/imx8_helpers.o
 .text.asm.plat_calc_core_pos
                0x0000000000000000       0x10 /home/mx3g/linux/mpu/nxp/frdm-imx8mp/tmp/work/imx8mpfrdm-poky-linux/imx-atf/2.10+git/git/build-optee/imx8mp/release/bl31/imx8_helpers.o
 .text.asm.plat_get_core_pos
                0x0000000000000000       0x14 /home/mx3g/linux/mpu/nxp/frdm-imx8mp/tmp/work/imx8mpfrdm-poky-linux/imx-atf/2.10+git/git/build-optee/imx8mp/release/bl31/imx8_helpers.o
 .text          0x0000000000000000        0x0 /home/mx3g/linux/mpu/nxp/frdm-imx8mp/tmp/work/imx8mpfrdm-poky-linux/imx-atf/2.10+git/git/build-optee/imx8mp/release/bl31/imx_uart_console.o
 .data          0x0000000000000000        0x0 /home/mx3g/linux/mpu/nxp/frdm-imx8mp/tmp/work/imx8mpfrdm-poky-linux/imx-atf/2.10+git/git/build-optee/imx8mp/release/bl31/imx_uart_console.o
 .bss           0x0000000000000000        0x0 /home/mx3g/linux/mpu/nxp/frdm-imx8mp/tmp/work/imx8mpfrdm-poky-linux/imx-atf/2.10+git/git/build-optee/imx8mp/release/bl31/imx_uart_console.o
 .text.asm.console_imx_uart_getc
                0x0000000000000000       0x24 /home/mx3g/linux/mpu/nxp/frdm-imx8mp/tmp/work/imx8mpfrdm-poky-linux/imx-atf/2.10+git/git/build-optee/imx8mp/release/bl31/imx_uart_console.o
 .text          0x0000000000000000        0x0 /home/mx3g/linux/mpu/nxp/frdm-imx8mp/tmp/work/imx8mpfrdm-poky-linux/imx-atf/2.10+git/git/build-optee/imx8mp/release/bl31/opteed_helpers.o
 .data          0x0000000000000000        0x0 /home/mx3g/linux/mpu/nxp/frdm-imx8mp/tmp/work/imx8mpfrdm-poky-linux/imx-atf/2.10+git/git/build-optee/imx8mp/release/bl31/opteed_helpers.o
 .bss           0x0000000000000000        0x0 /home/mx3g/linux/mpu/nxp/frdm-imx8mp/tmp/work/imx8mpfrdm-poky-linux/imx-atf/2.10+git/git/build-optee/imx8mp/release/bl31/opteed_helpers.o
 .text          0x0000000000000000        0x0 /home/mx3g/linux/mpu/nxp/frdm-imx8mp/tmp/work/imx8mpfrdm-poky-linux/imx-atf/2.10+git/git/build-optee/imx8mp/release/lib/libc.a(memcmp.o)
 .data          0x0000000000000000        0x0 /home/mx3g/linux/mpu/nxp/frdm-imx8mp/tmp/work/imx8mpfrdm-poky-linux/imx-atf/2.10+git/git/build-optee/imx8mp/release/lib/libc.a(memcmp.o)
 .bss           0x0000000000000000        0x0 /home/mx3g/linux/mpu/nxp/frdm-imx8mp/tmp/work/imx8mpfrdm-poky-linux/imx-atf/2.10+git/git/build-optee/imx8mp/release/lib/libc.a(memcmp.o)
 .eh_frame      0x0000000000000000       0x28 /home/mx3g/linux/mpu/nxp/frdm-imx8mp/tmp/work/imx8mpfrdm-poky-linux/imx-atf/2.10+git/git/build-optee/imx8mp/release/lib/libc.a(memcmp.o)
 .text          0x0000000000000000        0x0 /home/mx3g/linux/mpu/nxp/frdm-imx8mp/tmp/work/imx8mpfrdm-poky-linux/imx-atf/2.10+git/git/build-optee/imx8mp/release/lib/libc.a(memcpy.o)
 .data          0x0000000000000000        0x0 /home/mx3g/linux/mpu/nxp/frdm-imx8mp/tmp/work/imx8mpfrdm-poky-linux/imx-atf/2.10+git/git/build-optee/imx8mp/release/lib/libc.a(memcpy.o)
 .bss           0x0000000000000000        0x0 /home/mx3g/linux/mpu/nxp/frdm-imx8mp/tmp/work/imx8mpfrdm-poky-linux/imx-atf/2.10+git/git/build-optee/imx8mp/release/lib/libc.a(memcpy.o)
 .eh_frame      0x0000000000000000       0x28 /home/mx3g/linux/mpu/nxp/frdm-imx8mp/tmp/work/imx8mpfrdm-poky-linux/imx-atf/2.10+git/git/build-optee/imx8mp/release/lib/libc.a(memcpy.o)
 .text          0x0000000000000000        0x0 /home/mx3g/linux/mpu/nxp/frdm-imx8mp/tmp/work/imx8mpfrdm-poky-linux/imx-atf/2.10+git/git/build-optee/imx8mp/release/lib/libc.a(memmove.o)
 .data          0x0000000000000000        0x0 /home/mx3g/linux/mpu/nxp/frdm-imx8mp/tmp/work/imx8mpfrdm-poky-linux/imx-atf/2.10+git/git/build-optee/imx8mp/release/lib/libc.a(memmove.o)
 .bss           0x0000000000000000        0x0 /home/mx3g/linux/mpu/nxp/frdm-imx8mp/tmp/work/imx8mpfrdm-poky-linux/imx-atf/2.10+git/git/build-optee/imx8mp/release/lib/libc.a(memmove.o)
 .eh_frame      0x0000000000000000       0x28 /home/mx3g/linux/mpu/nxp/frdm-imx8mp/tmp/work/imx8mpfrdm-poky-linux/imx-atf/2.10+git/git/build-optee/imx8mp/release/lib/libc.a(memmove.o)
 .text          0x0000000000000000        0x0 /home/mx3g/linux/mpu/nxp/frdm-imx8mp/tmp/work/imx8mpfrdm-poky-linux/imx-atf/2.10+git/git/build-optee/imx8mp/release/lib/libc.a(memset.o)
 .data          0x0000000000000000        0x0 /home/mx3g/linux/mpu/nxp/frdm-imx8mp/tmp/work/imx8mpfrdm-poky-linux/imx-atf/2.10+git/git/build-optee/imx8mp/release/lib/libc.a(memset.o)
 .bss           0x0000000000000000        0x0 /home/mx3g/linux/mpu/nxp/frdm-imx8mp/tmp/work/imx8mpfrdm-poky-linux/imx-atf/2.10+git/git/build-optee/imx8mp/release/lib/libc.a(memset.o)
 .eh_frame      0x0000000000000000       0x28 /home/mx3g/linux/mpu/nxp/frdm-imx8mp/tmp/work/imx8mpfrdm-poky-linux/imx-atf/2.10+git/git/build-optee/imx8mp/release/lib/libc.a(memset.o)
 .text          0x0000000000000000        0x0 /home/mx3g/linux/mpu/nxp/frdm-imx8mp/tmp/work/imx8mpfrdm-poky-linux/imx-atf/2.10+git/git/build-optee/imx8mp/release/lib/libc.a(printf.o)
 .data          0x0000000000000000        0x0 /home/mx3g/linux/mpu/nxp/frdm-imx8mp/tmp/work/imx8mpfrdm-poky-linux/imx-atf/2.10+git/git/build-optee/imx8mp/release/lib/libc.a(printf.o)
 .bss           0x0000000000000000        0x0 /home/mx3g/linux/mpu/nxp/frdm-imx8mp/tmp/work/imx8mpfrdm-poky-linux/imx-atf/2.10+git/git/build-optee/imx8mp/release/lib/libc.a(printf.o)
 .text.printf   0x0000000000000000       0x54 /home/mx3g/linux/mpu/nxp/frdm-imx8mp/tmp/work/imx8mpfrdm-poky-linux/imx-atf/2.10+git/git/build-optee/imx8mp/release/lib/libc.a(printf.o)
 .eh_frame      0x0000000000000000       0xb0 /home/mx3g/linux/mpu/nxp/frdm-imx8mp/tmp/work/imx8mpfrdm-poky-linux/imx-atf/2.10+git/git/build-optee/imx8mp/release/lib/libc.a(printf.o)
 .text          0x0000000000000000        0x0 /home/mx3g/linux/mpu/nxp/frdm-imx8mp/tmp/work/imx8mpfrdm-poky-linux/imx-atf/2.10+git/git/build-optee/imx8mp/release/lib/libc.a(strchr.o)
 .data          0x0000000000000000        0x0 /home/mx3g/linux/mpu/nxp/frdm-imx8mp/tmp/work/imx8mpfrdm-poky-linux/imx-atf/2.10+git/git/build-optee/imx8mp/release/lib/libc.a(strchr.o)
 .bss           0x0000000000000000        0x0 /home/mx3g/linux/mpu/nxp/frdm-imx8mp/tmp/work/imx8mpfrdm-poky-linux/imx-atf/2.10+git/git/build-optee/imx8mp/release/lib/libc.a(strchr.o)
 .eh_frame      0x0000000000000000       0x28 /home/mx3g/linux/mpu/nxp/frdm-imx8mp/tmp/work/imx8mpfrdm-poky-linux/imx-atf/2.10+git/git/build-optee/imx8mp/release/lib/libc.a(strchr.o)
 .text          0x0000000000000000        0x0 /home/mx3g/linux/mpu/nxp/frdm-imx8mp/tmp/work/imx8mpfrdm-poky-linux/imx-atf/2.10+git/git/build-optee/imx8mp/release/lib/libc.a(strlen.o)
 .data          0x0000000000000000        0x0 /home/mx3g/linux/mpu/nxp/frdm-imx8mp/tmp/work/imx8mpfrdm-poky-linux/imx-atf/2.10+git/git/build-optee/imx8mp/release/lib/libc.a(strlen.o)
 .bss           0x0000000000000000        0x0 /home/mx3g/linux/mpu/nxp/frdm-imx8mp/tmp/work/imx8mpfrdm-poky-linux/imx-atf/2.10+git/git/build-optee/imx8mp/release/lib/libc.a(strlen.o)
 .eh_frame      0x0000000000000000       0x28 /home/mx3g/linux/mpu/nxp/frdm-imx8mp/tmp/work/imx8mpfrdm-poky-linux/imx-atf/2.10+git/git/build-optee/imx8mp/release/lib/libc.a(strlen.o)

Memory Configuration

Name             Origin             Length             Attributes
RAM              0x0000000000970000 0x0000000000020000 xrw
*default*        0x0000000000000000 0xffffffffffffffff

Linker script and memory map

                0x0000000000970000                RAM_REGION_START = ORIGIN (RAM)
                0x0000000000020000                RAM_REGION_LENGTH = LENGTH (RAM)
                0x0000000000970000                . = 0x970000
                0x0000000000000001                ASSERT ((. == ALIGN (0x1000)), BL31_BASE address is not aligned on a page boundary.)
                0x0000000000970000                __BL31_START__ = .

.ro             0x0000000000970000     0xb000
                0x0000000000970000                __RO_START__ = .
 *bl31_entrypoint.o(SORT_BY_ALIGNMENT(.text*))
 .text.asm.bl31_entrypoint
                0x0000000000970000      0x148 /home/mx3g/linux/mpu/nxp/frdm-imx8mp/tmp/work/imx8mpfrdm-poky-linux/imx-atf/2.10+git/git/build-optee/imx8mp/release/bl31/bl31_entrypoint.o
                0x0000000000970000                bl31_entrypoint
 .text.asm.bl31_warm_entrypoint
                0x0000000000970148       0x60 /home/mx3g/linux/mpu/nxp/frdm-imx8mp/tmp/work/imx8mpfrdm-poky-linux/imx-atf/2.10+git/git/build-optee/imx8mp/release/bl31/bl31_entrypoint.o
                0x0000000000970148                bl31_warm_entrypoint
 *(SORT_BY_ALIGNMENT(.text*))
 .text.cm_get_context
                0x00000000009701a8       0x14 /home/mx3g/linux/mpu/nxp/frdm-imx8mp/tmp/work/imx8mpfrdm-poky-linux/imx-atf/2.10+git/git/build-optee/imx8mp/release/bl31/bl31_context_mgmt.o
                0x00000000009701a8                cm_get_context
 .text.cm_set_context
                0x00000000009701bc       0x14 /home/mx3g/linux/mpu/nxp/frdm-imx8mp/tmp/work/imx8mpfrdm-poky-linux/imx-atf/2.10+git/git/build-optee/imx8mp/release/bl31/bl31_context_mgmt.o
                0x00000000009701bc                cm_set_context
 .text.cm_get_context_by_index
                0x00000000009701d0       0x2c /home/mx3g/linux/mpu/nxp/frdm-imx8mp/tmp/work/imx8mpfrdm-poky-linux/imx-atf/2.10+git/git/build-optee/imx8mp/release/bl31/bl31_context_mgmt.o
                0x00000000009701d0                cm_get_context_by_index
 .text.cm_set_context_by_index
                0x00000000009701fc       0x30 /home/mx3g/linux/mpu/nxp/frdm-imx8mp/tmp/work/imx8mpfrdm-poky-linux/imx-atf/2.10+git/git/build-optee/imx8mp/release/bl31/bl31_context_mgmt.o
                0x00000000009701fc                cm_set_context_by_index
 .text.get_arm_std_svc_args
                0x000000000097022c        0xc /home/mx3g/linux/mpu/nxp/frdm-imx8mp/tmp/work/imx8mpfrdm-poky-linux/imx-atf/2.10+git/git/build-optee/imx8mp/release/bl31/bl31_main.o
                0x000000000097022c                get_arm_std_svc_args
 .text.bl31_setup
                0x0000000000970238       0x14 /home/mx3g/linux/mpu/nxp/frdm-imx8mp/tmp/work/imx8mpfrdm-poky-linux/imx-atf/2.10+git/git/build-optee/imx8mp/release/bl31/bl31_main.o
                0x0000000000970238                bl31_setup
 .text.bl31_prepare_next_image_entry
                0x000000000097024c       0x74 /home/mx3g/linux/mpu/nxp/frdm-imx8mp/tmp/work/imx8mpfrdm-poky-linux/imx-atf/2.10+git/git/build-optee/imx8mp/release/bl31/bl31_main.o
                0x000000000097024c                bl31_prepare_next_image_entry
 .text.bl31_main
                0x00000000009702c0       0x70 /home/mx3g/linux/mpu/nxp/frdm-imx8mp/tmp/work/imx8mpfrdm-poky-linux/imx-atf/2.10+git/git/build-optee/imx8mp/release/bl31/bl31_main.o
                0x00000000009702c0                bl31_main
 .text.bl31_register_bl32_init
                0x0000000000970330        0xc /home/mx3g/linux/mpu/nxp/frdm-imx8mp/tmp/work/imx8mpfrdm-poky-linux/imx-atf/2.10+git/git/build-optee/imx8mp/release/bl31/bl31_main.o
                0x0000000000970330                bl31_register_bl32_init
 .text.handle_sysreg_trap
                0x000000000097033c        0x8 /home/mx3g/linux/mpu/nxp/frdm-imx8mp/tmp/work/imx8mpfrdm-poky-linux/imx-atf/2.10+git/git/build-optee/imx8mp/release/bl31/bl31_traps.o
                0x000000000097033c                handle_sysreg_trap
 .text.set_scr_el3_from_rm
                0x0000000000970344       0x84 /home/mx3g/linux/mpu/nxp/frdm-imx8mp/tmp/work/imx8mpfrdm-poky-linux/imx-atf/2.10+git/git/build-optee/imx8mp/release/bl31/interrupt_mgmt.o
 .text.get_scr_el3_from_routing_model
                0x00000000009703c8       0x30 /home/mx3g/linux/mpu/nxp/frdm-imx8mp/tmp/work/imx8mpfrdm-poky-linux/imx-atf/2.10+git/git/build-optee/imx8mp/release/bl31/interrupt_mgmt.o
                0x00000000009703c8                get_scr_el3_from_routing_model
 .text.set_routing_model
                0x00000000009703f8       0x94 /home/mx3g/linux/mpu/nxp/frdm-imx8mp/tmp/work/imx8mpfrdm-poky-linux/imx-atf/2.10+git/git/build-optee/imx8mp/release/bl31/interrupt_mgmt.o
                0x00000000009703f8                set_routing_model
 .text.register_interrupt_type_handler
                0x000000000097048c       0x68 /home/mx3g/linux/mpu/nxp/frdm-imx8mp/tmp/work/imx8mpfrdm-poky-linux/imx-atf/2.10+git/git/build-optee/imx8mp/release/bl31/interrupt_mgmt.o
                0x000000000097048c                register_interrupt_type_handler
 .text.get_interrupt_type_handler
                0x00000000009704f4       0x3c /home/mx3g/linux/mpu/nxp/frdm-imx8mp/tmp/work/imx8mpfrdm-poky-linux/imx-atf/2.10+git/git/build-optee/imx8mp/release/bl31/interrupt_mgmt.o
                0x00000000009704f4                get_interrupt_type_handler
 .text.print_entry_point_info
                0x0000000000970530        0x4 /home/mx3g/linux/mpu/nxp/frdm-imx8mp/tmp/work/imx8mpfrdm-poky-linux/imx-atf/2.10+git/git/build-optee/imx8mp/release/bl31/bl_common.o
                0x0000000000970530                print_entry_point_info
 .text.runtime_svc_init
                0x0000000000970534      0x130 /home/mx3g/linux/mpu/nxp/frdm-imx8mp/tmp/work/imx8mpfrdm-poky-linux/imx-atf/2.10+git/git/build-optee/imx8mp/release/bl31/runtime_svc.o
                0x0000000000970534                runtime_svc_init
 .text.tf_log   0x0000000000970664       0x94 /home/mx3g/linux/mpu/nxp/frdm-imx8mp/tmp/work/imx8mpfrdm-poky-linux/imx-atf/2.10+git/git/build-optee/imx8mp/release/bl31/tf_log.o
                0x0000000000970664                tf_log
 .text.arm_gicv3_distif_pre_save
                0x00000000009706f8       0x30 /home/mx3g/linux/mpu/nxp/frdm-imx8mp/tmp/work/imx8mpfrdm-poky-linux/imx-atf/2.10+git/git/build-optee/imx8mp/release/bl31/arm_gicv3_common.o
                0x00000000009706f8                arm_gicv3_distif_pre_save
 .text.arm_gicv3_distif_post_restore
                0x0000000000970728       0x38 /home/mx3g/linux/mpu/nxp/frdm-imx8mp/tmp/work/imx8mpfrdm-poky-linux/imx-atf/2.10+git/git/build-optee/imx8mp/release/bl31/arm_gicv3_common.o
                0x0000000000970728                arm_gicv3_distif_post_restore
 .text.gicv3_distif_pre_save
                0x0000000000970760        0x4 /home/mx3g/linux/mpu/nxp/frdm-imx8mp/tmp/work/imx8mpfrdm-poky-linux/imx-atf/2.10+git/git/build-optee/imx8mp/release/bl31/gic-x00.o
                0x0000000000970760                gicv3_distif_pre_save
 .text.gicv3_distif_post_restore
                0x0000000000970764        0x4 /home/mx3g/linux/mpu/nxp/frdm-imx8mp/tmp/work/imx8mpfrdm-poky-linux/imx-atf/2.10+git/git/build-optee/imx8mp/release/bl31/gic-x00.o
                0x0000000000970764                gicv3_distif_post_restore
 .text.gicv3_rdistif_on
                0x0000000000970768        0x4 /home/mx3g/linux/mpu/nxp/frdm-imx8mp/tmp/work/imx8mpfrdm-poky-linux/imx-atf/2.10+git/git/build-optee/imx8mp/release/bl31/gic-x00.o
                0x0000000000970768                gicv3_rdistif_on
 .text.gicv3_check_erratas_applies
                0x000000000097076c       0x1c /home/mx3g/linux/mpu/nxp/frdm-imx8mp/tmp/work/imx8mpfrdm-poky-linux/imx-atf/2.10+git/git/build-optee/imx8mp/release/bl31/gic-x00.o
                0x000000000097076c                gicv3_check_erratas_applies
 .text.gicd_set_icfgr
                0x0000000000970788       0x34 /home/mx3g/linux/mpu/nxp/frdm-imx8mp/tmp/work/imx8mpfrdm-poky-linux/imx-atf/2.10+git/git/build-optee/imx8mp/release/bl31/gicdv3_helpers.o
                0x0000000000970788                gicd_set_icfgr
 .text.gicd_clr_igroupr
                0x00000000009707bc       0x24 /home/mx3g/linux/mpu/nxp/frdm-imx8mp/tmp/work/imx8mpfrdm-poky-linux/imx-atf/2.10+git/git/build-optee/imx8mp/release/bl31/gicdv3_helpers.o
                0x00000000009707bc                gicd_clr_igroupr
 .text.gicd_set_igrpmodr
                0x00000000009707e0       0x24 /home/mx3g/linux/mpu/nxp/frdm-imx8mp/tmp/work/imx8mpfrdm-poky-linux/imx-atf/2.10+git/git/build-optee/imx8mp/release/bl31/gicdv3_helpers.o
                0x00000000009707e0                gicd_set_igrpmodr
 .text.gicd_clr_igrpmodr
                0x0000000000970804       0x24 /home/mx3g/linux/mpu/nxp/frdm-imx8mp/tmp/work/imx8mpfrdm-poky-linux/imx-atf/2.10+git/git/build-optee/imx8mp/release/bl31/gicdv3_helpers.o
                0x0000000000970804                gicd_clr_igrpmodr
 .text.gicd_set_isenabler
                0x0000000000970828       0x1c /home/mx3g/linux/mpu/nxp/frdm-imx8mp/tmp/work/imx8mpfrdm-poky-linux/imx-atf/2.10+git/git/build-optee/imx8mp/release/bl31/gicdv3_helpers.o
                0x0000000000970828                gicd_set_isenabler
 .text.gicd_set_ipriorityr
                0x0000000000970844       0x14 /home/mx3g/linux/mpu/nxp/frdm-imx8mp/tmp/work/imx8mpfrdm-poky-linux/imx-atf/2.10+git/git/build-optee/imx8mp/release/bl31/gicdv3_helpers.o
                0x0000000000970844                gicd_set_ipriorityr
 .text.gicd_read_icfgr
                0x0000000000970858       0x14 /home/mx3g/linux/mpu/nxp/frdm-imx8mp/tmp/work/imx8mpfrdm-poky-linux/imx-atf/2.10+git/git/build-optee/imx8mp/release/bl31/gicdv3_helpers.o
                0x0000000000970858                gicd_read_icfgr
 .text.gicd_write_icfgr
                0x000000000097086c       0x14 /home/mx3g/linux/mpu/nxp/frdm-imx8mp/tmp/work/imx8mpfrdm-poky-linux/imx-atf/2.10+git/git/build-optee/imx8mp/release/bl31/gicdv3_helpers.o
                0x000000000097086c                gicd_write_icfgr
 .text.gicd_read_igroupr
                0x0000000000970880       0x14 /home/mx3g/linux/mpu/nxp/frdm-imx8mp/tmp/work/imx8mpfrdm-poky-linux/imx-atf/2.10+git/git/build-optee/imx8mp/release/bl31/gicdv3_helpers.o
                0x0000000000970880                gicd_read_igroupr
 .text.gicd_write_igroupr
                0x0000000000970894       0x14 /home/mx3g/linux/mpu/nxp/frdm-imx8mp/tmp/work/imx8mpfrdm-poky-linux/imx-atf/2.10+git/git/build-optee/imx8mp/release/bl31/gicdv3_helpers.o
                0x0000000000970894                gicd_write_igroupr
 .text.gicd_read_igrpmodr
                0x00000000009708a8       0x14 /home/mx3g/linux/mpu/nxp/frdm-imx8mp/tmp/work/imx8mpfrdm-poky-linux/imx-atf/2.10+git/git/build-optee/imx8mp/release/bl31/gicdv3_helpers.o
                0x00000000009708a8                gicd_read_igrpmodr
 .text.gicd_write_igrpmodr
                0x00000000009708bc       0x14 /home/mx3g/linux/mpu/nxp/frdm-imx8mp/tmp/work/imx8mpfrdm-poky-linux/imx-atf/2.10+git/git/build-optee/imx8mp/release/bl31/gicdv3_helpers.o
                0x00000000009708bc                gicd_write_igrpmodr
 .text.gicd_read_ipriorityr
                0x00000000009708d0       0x10 /home/mx3g/linux/mpu/nxp/frdm-imx8mp/tmp/work/imx8mpfrdm-poky-linux/imx-atf/2.10+git/git/build-optee/imx8mp/release/bl31/gicdv3_helpers.o
                0x00000000009708d0                gicd_read_ipriorityr
 .text.gicd_write_ipriorityr
                0x00000000009708e0       0x10 /home/mx3g/linux/mpu/nxp/frdm-imx8mp/tmp/work/imx8mpfrdm-poky-linux/imx-atf/2.10+git/git/build-optee/imx8mp/release/bl31/gicdv3_helpers.o
                0x00000000009708e0                gicd_write_ipriorityr
 .text.gicd_read_isactiver
                0x00000000009708f0       0x14 /home/mx3g/linux/mpu/nxp/frdm-imx8mp/tmp/work/imx8mpfrdm-poky-linux/imx-atf/2.10+git/git/build-optee/imx8mp/release/bl31/gicdv3_helpers.o
                0x00000000009708f0                gicd_read_isactiver
 .text.gicd_write_isactiver
                0x0000000000970904       0x14 /home/mx3g/linux/mpu/nxp/frdm-imx8mp/tmp/work/imx8mpfrdm-poky-linux/imx-atf/2.10+git/git/build-optee/imx8mp/release/bl31/gicdv3_helpers.o
                0x0000000000970904                gicd_write_isactiver
 .text.gicd_read_isenabler
                0x0000000000970918       0x14 /home/mx3g/linux/mpu/nxp/frdm-imx8mp/tmp/work/imx8mpfrdm-poky-linux/imx-atf/2.10+git/git/build-optee/imx8mp/release/bl31/gicdv3_helpers.o
                0x0000000000970918                gicd_read_isenabler
 .text.gicd_write_isenabler
                0x000000000097092c       0x14 /home/mx3g/linux/mpu/nxp/frdm-imx8mp/tmp/work/imx8mpfrdm-poky-linux/imx-atf/2.10+git/git/build-optee/imx8mp/release/bl31/gicdv3_helpers.o
                0x000000000097092c                gicd_write_isenabler
 .text.gicd_read_ispendr
                0x0000000000970940       0x14 /home/mx3g/linux/mpu/nxp/frdm-imx8mp/tmp/work/imx8mpfrdm-poky-linux/imx-atf/2.10+git/git/build-optee/imx8mp/release/bl31/gicdv3_helpers.o
                0x0000000000970940                gicd_read_ispendr
 .text.gicd_write_ispendr
                0x0000000000970954       0x14 /home/mx3g/linux/mpu/nxp/frdm-imx8mp/tmp/work/imx8mpfrdm-poky-linux/imx-atf/2.10+git/git/build-optee/imx8mp/release/bl31/gicdv3_helpers.o
                0x0000000000970954                gicd_write_ispendr
 .text.gicd_read_nsacr
                0x0000000000970968       0x14 /home/mx3g/linux/mpu/nxp/frdm-imx8mp/tmp/work/imx8mpfrdm-poky-linux/imx-atf/2.10+git/git/build-optee/imx8mp/release/bl31/gicdv3_helpers.o
                0x0000000000970968                gicd_read_nsacr
 .text.gicd_write_nsacr
                0x000000000097097c       0x14 /home/mx3g/linux/mpu/nxp/frdm-imx8mp/tmp/work/imx8mpfrdm-poky-linux/imx-atf/2.10+git/git/build-optee/imx8mp/release/bl31/gicdv3_helpers.o
                0x000000000097097c                gicd_write_nsacr
 .text.gicr_write_ipriorityr
                0x0000000000970990       0x14 /home/mx3g/linux/mpu/nxp/frdm-imx8mp/tmp/work/imx8mpfrdm-poky-linux/imx-atf/2.10+git/git/build-optee/imx8mp/release/bl31/gicrv3_helpers.o
                0x0000000000970990                gicr_write_ipriorityr
 .text.gicr_set_ipriorityr
                0x00000000009709a4       0x18 /home/mx3g/linux/mpu/nxp/frdm-imx8mp/tmp/work/imx8mpfrdm-poky-linux/imx-atf/2.10+git/git/build-optee/imx8mp/release/bl31/gicrv3_helpers.o
                0x00000000009709a4                gicr_set_ipriorityr
 .text.gicr_clr_igroupr
                0x00000000009709bc       0x28 /home/mx3g/linux/mpu/nxp/frdm-imx8mp/tmp/work/imx8mpfrdm-poky-linux/imx-atf/2.10+git/git/build-optee/imx8mp/release/bl31/gicrv3_helpers.o
                0x00000000009709bc                gicr_clr_igroupr
 .text.gicr_set_igrpmodr
                0x00000000009709e4       0x28 /home/mx3g/linux/mpu/nxp/frdm-imx8mp/tmp/work/imx8mpfrdm-poky-linux/imx-atf/2.10+git/git/build-optee/imx8mp/release/bl31/gicrv3_helpers.o
                0x00000000009709e4                gicr_set_igrpmodr
 .text.gicr_clr_igrpmodr
                0x0000000000970a0c       0x28 /home/mx3g/linux/mpu/nxp/frdm-imx8mp/tmp/work/imx8mpfrdm-poky-linux/imx-atf/2.10+git/git/build-optee/imx8mp/release/bl31/gicrv3_helpers.o
                0x0000000000970a0c                gicr_clr_igrpmodr
 .text.gicr_set_isenabler
                0x0000000000970a34       0x20 /home/mx3g/linux/mpu/nxp/frdm-imx8mp/tmp/work/imx8mpfrdm-poky-linux/imx-atf/2.10+git/git/build-optee/imx8mp/release/bl31/gicrv3_helpers.o
                0x0000000000970a34                gicr_set_isenabler
 .text.gicr_set_icfgr
                0x0000000000970a54       0x38 /home/mx3g/linux/mpu/nxp/frdm-imx8mp/tmp/work/imx8mpfrdm-poky-linux/imx-atf/2.10+git/git/build-optee/imx8mp/release/bl31/gicrv3_helpers.o
                0x0000000000970a54                gicr_set_icfgr
 .text.gicv3_rdistif_mark_core_awake
                0x0000000000970a8c       0x38 /home/mx3g/linux/mpu/nxp/frdm-imx8mp/tmp/work/imx8mpfrdm-poky-linux/imx-atf/2.10+git/git/build-optee/imx8mp/release/bl31/gicv3_helpers.o
                0x0000000000970a8c                gicv3_rdistif_mark_core_awake
 .text.gicv3_rdistif_mark_core_asleep
                0x0000000000970ac4       0x1c /home/mx3g/linux/mpu/nxp/frdm-imx8mp/tmp/work/imx8mpfrdm-poky-linux/imx-atf/2.10+git/git/build-optee/imx8mp/release/bl31/gicv3_helpers.o
                0x0000000000970ac4                gicv3_rdistif_mark_core_asleep
 .text.gicv3_rdistif_base_addrs_probe
                0x0000000000970ae0       0x6c /home/mx3g/linux/mpu/nxp/frdm-imx8mp/tmp/work/imx8mpfrdm-poky-linux/imx-atf/2.10+git/git/build-optee/imx8mp/release/bl31/gicv3_helpers.o
                0x0000000000970ae0                gicv3_rdistif_base_addrs_probe
 .text.gicv3_get_spi_limit
                0x0000000000970b4c       0x1c /home/mx3g/linux/mpu/nxp/frdm-imx8mp/tmp/work/imx8mpfrdm-poky-linux/imx-atf/2.10+git/git/build-optee/imx8mp/release/bl31/gicv3_helpers.o
                0x0000000000970b4c                gicv3_get_spi_limit
 .text.gicv3_spis_config_defaults
                0x0000000000970b68       0x98 /home/mx3g/linux/mpu/nxp/frdm-imx8mp/tmp/work/imx8mpfrdm-poky-linux/imx-atf/2.10+git/git/build-optee/imx8mp/release/bl31/gicv3_helpers.o
                0x0000000000970b68                gicv3_spis_config_defaults
 .text.gicv3_secure_spis_config_props
                0x0000000000970c00       0xec /home/mx3g/linux/mpu/nxp/frdm-imx8mp/tmp/work/imx8mpfrdm-poky-linux/imx-atf/2.10+git/git/build-optee/imx8mp/release/bl31/gicv3_helpers.o
                0x0000000000970c00                gicv3_secure_spis_config_props
 .text.gicv3_ppi_sgi_config_defaults
                0x0000000000970cec       0x70 /home/mx3g/linux/mpu/nxp/frdm-imx8mp/tmp/work/imx8mpfrdm-poky-linux/imx-atf/2.10+git/git/build-optee/imx8mp/release/bl31/gicv3_helpers.o
                0x0000000000970cec                gicv3_ppi_sgi_config_defaults
 .text.gicv3_secure_ppi_sgi_config_props
                0x0000000000970d5c       0xcc /home/mx3g/linux/mpu/nxp/frdm-imx8mp/tmp/work/imx8mpfrdm-poky-linux/imx-atf/2.10+git/git/build-optee/imx8mp/release/bl31/gicv3_helpers.o
                0x0000000000970d5c                gicv3_secure_ppi_sgi_config_props
 .text.gicv3_get_component_prodid_rev
                0x0000000000970e28       0x18 /home/mx3g/linux/mpu/nxp/frdm-imx8mp/tmp/work/imx8mpfrdm-poky-linux/imx-atf/2.10+git/git/build-optee/imx8mp/release/bl31/gicv3_helpers.o
                0x0000000000970e28                gicv3_get_component_prodid_rev
 .text.gicd_wait_for_pending_write
                0x0000000000970e40        0xc /home/mx3g/linux/mpu/nxp/frdm-imx8mp/tmp/work/imx8mpfrdm-poky-linux/imx-atf/2.10+git/git/build-optee/imx8mp/release/bl31/gicv3_main.o
 .text.gicr_wait_for_pending_write
                0x0000000000970e4c        0xc /home/mx3g/linux/mpu/nxp/frdm-imx8mp/tmp/work/imx8mpfrdm-poky-linux/imx-atf/2.10+git/git/build-optee/imx8mp/release/bl31/gicv3_main.o
 .text.gicv3_driver_init
                0x0000000000970e58       0x74 /home/mx3g/linux/mpu/nxp/frdm-imx8mp/tmp/work/imx8mpfrdm-poky-linux/imx-atf/2.10+git/git/build-optee/imx8mp/release/bl31/gicv3_main.o
                0x0000000000970e58                gicv3_driver_init
 .text.gicv3_distif_init
                0x0000000000970ecc       0x74 /home/mx3g/linux/mpu/nxp/frdm-imx8mp/tmp/work/imx8mpfrdm-poky-linux/imx-atf/2.10+git/git/build-optee/imx8mp/release/bl31/gicv3_main.o
                0x0000000000970ecc                gicv3_distif_init
 .text.gicv3_rdistif_init
                0x0000000000970f40       0x90 /home/mx3g/linux/mpu/nxp/frdm-imx8mp/tmp/work/imx8mpfrdm-poky-linux/imx-atf/2.10+git/git/build-optee/imx8mp/release/bl31/gicv3_main.o
                0x0000000000970f40                gicv3_rdistif_init
 .text.gicv3_cpuif_enable
                0x0000000000970fd0       0x90 /home/mx3g/linux/mpu/nxp/frdm-imx8mp/tmp/work/imx8mpfrdm-poky-linux/imx-atf/2.10+git/git/build-optee/imx8mp/release/bl31/gicv3_main.o
                0x0000000000970fd0                gicv3_cpuif_enable
 .text.gicv3_cpuif_disable
                0x0000000000971060       0x40 /home/mx3g/linux/mpu/nxp/frdm-imx8mp/tmp/work/imx8mpfrdm-poky-linux/imx-atf/2.10+git/git/build-optee/imx8mp/release/bl31/gicv3_main.o
                0x0000000000971060                gicv3_cpuif_disable
 .text.gicv3_get_pending_interrupt_type
                0x00000000009710a0        0xc /home/mx3g/linux/mpu/nxp/frdm-imx8mp/tmp/work/imx8mpfrdm-poky-linux/imx-atf/2.10+git/git/build-optee/imx8mp/release/bl31/gicv3_main.o
                0x00000000009710a0                gicv3_get_pending_interrupt_type
 .text.gicv3_rdistif_save
                0x00000000009710ac       0xdc /home/mx3g/linux/mpu/nxp/frdm-imx8mp/tmp/work/imx8mpfrdm-poky-linux/imx-atf/2.10+git/git/build-optee/imx8mp/release/bl31/gicv3_main.o
                0x00000000009710ac                gicv3_rdistif_save
 .text.gicv3_rdistif_init_restore
                0x0000000000971188      0x11c /home/mx3g/linux/mpu/nxp/frdm-imx8mp/tmp/work/imx8mpfrdm-poky-linux/imx-atf/2.10+git/git/build-optee/imx8mp/release/bl31/gicv3_main.o
                0x0000000000971188                gicv3_rdistif_init_restore
 .text.gicv3_distif_save
                0x00000000009712a4      0x1f4 /home/mx3g/linux/mpu/nxp/frdm-imx8mp/tmp/work/imx8mpfrdm-poky-linux/imx-atf/2.10+git/git/build-optee/imx8mp/release/bl31/gicv3_main.o
                0x00000000009712a4                gicv3_distif_save
 .text.gicv3_distif_init_restore
                0x0000000000971498      0x210 /home/mx3g/linux/mpu/nxp/frdm-imx8mp/tmp/work/imx8mpfrdm-poky-linux/imx-atf/2.10+git/git/build-optee/imx8mp/release/bl31/gicv3_main.o
                0x0000000000971498                gicv3_distif_init_restore
 .text.gicv3_raise_sgi
                0x00000000009716a8       0x68 /home/mx3g/linux/mpu/nxp/frdm-imx8mp/tmp/work/imx8mpfrdm-poky-linux/imx-atf/2.10+git/git/build-optee/imx8mp/release/bl31/gicv3_main.o
                0x00000000009716a8                gicv3_raise_sgi
 .text.tzc380_init
                0x0000000000971710       0x2c /home/mx3g/linux/mpu/nxp/frdm-imx8mp/tmp/work/imx8mpfrdm-poky-linux/imx-atf/2.10+git/git/build-optee/imx8mp/release/bl31/tzc380.o
                0x0000000000971710                tzc380_init
 .text.tzc380_configure_region
                0x000000000097173c       0x30 /home/mx3g/linux/mpu/nxp/frdm-imx8mp/tmp/work/imx8mpfrdm-poky-linux/imx-atf/2.10+git/git/build-optee/imx8mp/release/bl31/tzc380.o
                0x000000000097173c                tzc380_configure_region
 .text.console_is_registered
                0x000000000097176c       0x2c /home/mx3g/linux/mpu/nxp/frdm-imx8mp/tmp/work/imx8mpfrdm-poky-linux/imx-atf/2.10+git/git/build-optee/imx8mp/release/bl31/multi_console.o
                0x000000000097176c                console_is_registered
 .text.console_register
                0x0000000000971798       0x34 /home/mx3g/linux/mpu/nxp/frdm-imx8mp/tmp/work/imx8mpfrdm-poky-linux/imx-atf/2.10+git/git/build-optee/imx8mp/release/bl31/multi_console.o
                0x0000000000971798                console_register
 .text.console_switch_state
                0x00000000009717cc        0xc /home/mx3g/linux/mpu/nxp/frdm-imx8mp/tmp/work/imx8mpfrdm-poky-linux/imx-atf/2.10+git/git/build-optee/imx8mp/release/bl31/multi_console.o
                0x00000000009717cc                console_switch_state
 .text.console_set_scope
                0x00000000009717d8       0x18 /home/mx3g/linux/mpu/nxp/frdm-imx8mp/tmp/work/imx8mpfrdm-poky-linux/imx-atf/2.10+git/git/build-optee/imx8mp/release/bl31/multi_console.o
                0x00000000009717d8                console_set_scope
 .text.console_putc
                0x00000000009717f0       0xa8 /home/mx3g/linux/mpu/nxp/frdm-imx8mp/tmp/work/imx8mpfrdm-poky-linux/imx-atf/2.10+git/git/build-optee/imx8mp/release/bl31/multi_console.o
                0x00000000009717f0                console_putc
 .text.putchar  0x0000000000971898       0x28 /home/mx3g/linux/mpu/nxp/frdm-imx8mp/tmp/work/imx8mpfrdm-poky-linux/imx-atf/2.10+git/git/build-optee/imx8mp/release/bl31/multi_console.o
                0x0000000000971898                putchar
 .text.console_flush
                0x00000000009718c0       0x54 /home/mx3g/linux/mpu/nxp/frdm-imx8mp/tmp/work/imx8mpfrdm-poky-linux/imx-atf/2.10+git/git/build-optee/imx8mp/release/bl31/multi_console.o
                0x00000000009718c0                console_flush
 .text.udelay   0x0000000000971914       0x68 /home/mx3g/linux/mpu/nxp/frdm-imx8mp/tmp/work/imx8mpfrdm-poky-linux/imx-atf/2.10+git/git/build-optee/imx8mp/release/bl31/delay_timer.o
                0x0000000000971914                udelay
 .text.timer_init
                0x000000000097197c        0xc /home/mx3g/linux/mpu/nxp/frdm-imx8mp/tmp/work/imx8mpfrdm-poky-linux/imx-atf/2.10+git/git/build-optee/imx8mp/release/bl31/delay_timer.o
                0x000000000097197c                timer_init
 .text.get_timer_value
                0x0000000000971988        0xc /home/mx3g/linux/mpu/nxp/frdm-imx8mp/tmp/work/imx8mpfrdm-poky-linux/imx-atf/2.10+git/git/build-optee/imx8mp/release/bl31/generic_delay_timer.o
 .text.generic_delay_timer_init_args
                0x0000000000971994       0x20 /home/mx3g/linux/mpu/nxp/frdm-imx8mp/tmp/work/imx8mpfrdm-poky-linux/imx-atf/2.10+git/git/build-optee/imx8mp/release/bl31/generic_delay_timer.o
                0x0000000000971994                generic_delay_timer_init_args
 .text.generic_delay_timer_init
                0x00000000009719b4       0x5c /home/mx3g/linux/mpu/nxp/frdm-imx8mp/tmp/work/imx8mpfrdm-poky-linux/imx-atf/2.10+git/git/build-optee/imx8mp/release/bl31/generic_delay_timer.o
                0x00000000009719b4                generic_delay_timer_init
 .text.print_errata_status
                0x0000000000971a10        0x4 /home/mx3g/linux/mpu/nxp/frdm-imx8mp/tmp/work/imx8mpfrdm-poky-linux/imx-atf/2.10+git/git/build-optee/imx8mp/release/bl31/errata_report.o
                0x0000000000971a10                print_errata_status
 .text.read_feat_mpam_version
                0x0000000000971a14       0x1c /home/mx3g/linux/mpu/nxp/frdm-imx8mp/tmp/work/imx8mpfrdm-poky-linux/imx-atf/2.10+git/git/build-optee/imx8mp/release/bl31/context_mgmt.o
 .text.cm_init  0x0000000000971a30        0x4 /home/mx3g/linux/mpu/nxp/frdm-imx8mp/tmp/work/imx8mpfrdm-poky-linux/imx-atf/2.10+git/git/build-optee/imx8mp/release/bl31/context_mgmt.o
                0x0000000000971a30                cm_init
 .text.cm_setup_context
                0x0000000000971a34      0x1a4 /home/mx3g/linux/mpu/nxp/frdm-imx8mp/tmp/work/imx8mpfrdm-poky-linux/imx-atf/2.10+git/git/build-optee/imx8mp/release/bl31/context_mgmt.o
                0x0000000000971a34                cm_setup_context
 .text.cm_manage_extensions_el3
                0x0000000000971bd8       0x20 /home/mx3g/linux/mpu/nxp/frdm-imx8mp/tmp/work/imx8mpfrdm-poky-linux/imx-atf/2.10+git/git/build-optee/imx8mp/release/bl31/context_mgmt.o
                0x0000000000971bd8                cm_manage_extensions_el3
 .text.manage_extensions_nonsecure_per_world
                0x0000000000971bf8       0x28 /home/mx3g/linux/mpu/nxp/frdm-imx8mp/tmp/work/imx8mpfrdm-poky-linux/imx-atf/2.10+git/git/build-optee/imx8mp/release/bl31/context_mgmt.o
                0x0000000000971bf8                manage_extensions_nonsecure_per_world
 .text.cm_init_context_by_index
                0x0000000000971c20       0x30 /home/mx3g/linux/mpu/nxp/frdm-imx8mp/tmp/work/imx8mpfrdm-poky-linux/imx-atf/2.10+git/git/build-optee/imx8mp/release/bl31/context_mgmt.o
                0x0000000000971c20                cm_init_context_by_index
 .text.cm_init_my_context
                0x0000000000971c50       0x30 /home/mx3g/linux/mpu/nxp/frdm-imx8mp/tmp/work/imx8mpfrdm-poky-linux/imx-atf/2.10+git/git/build-optee/imx8mp/release/bl31/context_mgmt.o
                0x0000000000971c50                cm_init_my_context
 .text.cm_el1_sysregs_context_save
                0x0000000000971c80       0x70 /home/mx3g/linux/mpu/nxp/frdm-imx8mp/tmp/work/imx8mpfrdm-poky-linux/imx-atf/2.10+git/git/build-optee/imx8mp/release/bl31/context_mgmt.o
                0x0000000000971c80                cm_el1_sysregs_context_save
 .text.cm_el1_sysregs_context_restore
                0x0000000000971cf0       0x70 /home/mx3g/linux/mpu/nxp/frdm-imx8mp/tmp/work/imx8mpfrdm-poky-linux/imx-atf/2.10+git/git/build-optee/imx8mp/release/bl31/context_mgmt.o
                0x0000000000971cf0                cm_el1_sysregs_context_restore
 .text.cm_set_elr_el3
                0x0000000000971d60       0x24 /home/mx3g/linux/mpu/nxp/frdm-imx8mp/tmp/work/imx8mpfrdm-poky-linux/imx-atf/2.10+git/git/build-optee/imx8mp/release/bl31/context_mgmt.o
                0x0000000000971d60                cm_set_elr_el3
 .text.cm_write_scr_el3_bit
                0x0000000000971d84       0x40 /home/mx3g/linux/mpu/nxp/frdm-imx8mp/tmp/work/imx8mpfrdm-poky-linux/imx-atf/2.10+git/git/build-optee/imx8mp/release/bl31/context_mgmt.o
                0x0000000000971d84                cm_write_scr_el3_bit
 .text.cm_set_next_eret_context
                0x0000000000971dc4       0x20 /home/mx3g/linux/mpu/nxp/frdm-imx8mp/tmp/work/imx8mpfrdm-poky-linux/imx-atf/2.10+git/git/build-optee/imx8mp/release/bl31/context_mgmt.o
                0x0000000000971dc4                cm_set_next_eret_context
 .text.cm_prepare_el3_exit
                0x0000000000971de4       0x54 /home/mx3g/linux/mpu/nxp/frdm-imx8mp/tmp/work/imx8mpfrdm-poky-linux/imx-atf/2.10+git/git/build-optee/imx8mp/release/bl31/context_mgmt.o
                0x0000000000971de4                cm_prepare_el3_exit
 .text.cm_prepare_el3_exit_ns
                0x0000000000971e38        0x8 /home/mx3g/linux/mpu/nxp/frdm-imx8mp/tmp/work/imx8mpfrdm-poky-linux/imx-atf/2.10+git/git/build-optee/imx8mp/release/bl31/context_mgmt.o
                0x0000000000971e38                cm_prepare_el3_exit_ns
 .text.mpam_enable
                0x0000000000971e40       0x14 /home/mx3g/linux/mpu/nxp/frdm-imx8mp/tmp/work/imx8mpfrdm-poky-linux/imx-atf/2.10+git/git/build-optee/imx8mp/release/bl31/mpam.o
                0x0000000000971e40                mpam_enable
 .text.pmuv3_enable
                0x0000000000971e54        0x4 /home/mx3g/linux/mpu/nxp/frdm-imx8mp/tmp/work/imx8mpfrdm-poky-linux/imx-atf/2.10+git/git/build-optee/imx8mp/release/bl31/pmuv3.o
                0x0000000000971e54                pmuv3_enable
 .text.pmuv3_init_el3
                0x0000000000971e58       0x40 /home/mx3g/linux/mpu/nxp/frdm-imx8mp/tmp/work/imx8mpfrdm-poky-linux/imx-atf/2.10+git/git/build-optee/imx8mp/release/bl31/pmuv3.o
                0x0000000000971e58                pmuv3_init_el3
 .text.spe_drain_buffers_hook
                0x0000000000971e98       0x24 /home/mx3g/linux/mpu/nxp/frdm-imx8mp/tmp/work/imx8mpfrdm-poky-linux/imx-atf/2.10+git/git/build-optee/imx8mp/release/bl31/spe.o
 .text.spe_init_el3
                0x0000000000971ebc       0x1c /home/mx3g/linux/mpu/nxp/frdm-imx8mp/tmp/work/imx8mpfrdm-poky-linux/imx-atf/2.10+git/git/build-optee/imx8mp/release/bl31/spe.o
                0x0000000000971ebc                spe_init_el3
 .text.sve_enable_per_world
                0x0000000000971ed8       0x20 /home/mx3g/linux/mpu/nxp/frdm-imx8mp/tmp/work/imx8mpfrdm-poky-linux/imx-atf/2.10+git/git/build-optee/imx8mp/release/bl31/sve.o
                0x0000000000971ed8                sve_enable_per_world
 .text.sve_disable_per_world
                0x0000000000971ef8       0x18 /home/mx3g/linux/mpu/nxp/frdm-imx8mp/tmp/work/imx8mpfrdm-poky-linux/imx-atf/2.10+git/git/build-optee/imx8mp/release/bl31/sve.o
                0x0000000000971ef8                sve_disable_per_world
 .text.bakery_lock_get
                0x0000000000971f10       0xbc /home/mx3g/linux/mpu/nxp/frdm-imx8mp/tmp/work/imx8mpfrdm-poky-linux/imx-atf/2.10+git/git/build-optee/imx8mp/release/bl31/bakery_lock_coherent.o
                0x0000000000971f10                bakery_lock_get
 .text.bakery_lock_release
                0x0000000000971fcc       0x34 /home/mx3g/linux/mpu/nxp/frdm-imx8mp/tmp/work/imx8mpfrdm-poky-linux/imx-atf/2.10+git/git/build-optee/imx8mp/release/bl31/bakery_lock_coherent.o
                0x0000000000971fcc                bakery_lock_release
 .text.psci_set_req_local_pwr_state
                0x0000000000972000       0x34 /home/mx3g/linux/mpu/nxp/frdm-imx8mp/tmp/work/imx8mpfrdm-poky-linux/imx-atf/2.10+git/git/build-optee/imx8mp/release/bl31/psci_common.o
 .text.psci_validate_power_state
                0x0000000000972034       0x28 /home/mx3g/linux/mpu/nxp/frdm-imx8mp/tmp/work/imx8mpfrdm-poky-linux/imx-atf/2.10+git/git/build-optee/imx8mp/release/bl31/psci_common.o
                0x0000000000972034                psci_validate_power_state
 .text.psci_query_sys_suspend_pwrstate
                0x000000000097205c       0x14 /home/mx3g/linux/mpu/nxp/frdm-imx8mp/tmp/work/imx8mpfrdm-poky-linux/imx-atf/2.10+git/git/build-optee/imx8mp/release/bl31/psci_common.o
                0x000000000097205c                psci_query_sys_suspend_pwrstate
 .text.psci_is_last_on_cpu
                0x0000000000972070       0x70 /home/mx3g/linux/mpu/nxp/frdm-imx8mp/tmp/work/imx8mpfrdm-poky-linux/imx-atf/2.10+git/git/build-optee/imx8mp/release/bl31/psci_common.o
                0x0000000000972070                psci_is_last_on_cpu
 .text.psci_init_req_local_pwr_states
                0x00000000009720e0       0x54 /home/mx3g/linux/mpu/nxp/frdm-imx8mp/tmp/work/imx8mpfrdm-poky-linux/imx-atf/2.10+git/git/build-optee/imx8mp/release/bl31/psci_common.o
                0x00000000009720e0                psci_init_req_local_pwr_states
 .text.psci_get_target_local_pwr_states
                0x0000000000972134       0x88 /home/mx3g/linux/mpu/nxp/frdm-imx8mp/tmp/work/imx8mpfrdm-poky-linux/imx-atf/2.10+git/git/build-optee/imx8mp/release/bl31/psci_common.o
                0x0000000000972134                psci_get_target_local_pwr_states
 .text.psci_set_target_local_pwr_states
                0x00000000009721bc       0x7c /home/mx3g/linux/mpu/nxp/frdm-imx8mp/tmp/work/imx8mpfrdm-poky-linux/imx-atf/2.10+git/git/build-optee/imx8mp/release/bl31/psci_common.o
                0x00000000009721bc                psci_set_target_local_pwr_states
 .text.psci_get_parent_pwr_domain_nodes
                0x0000000000972238       0x40 /home/mx3g/linux/mpu/nxp/frdm-imx8mp/tmp/work/imx8mpfrdm-poky-linux/imx-atf/2.10+git/git/build-optee/imx8mp/release/bl31/psci_common.o
                0x0000000000972238                psci_get_parent_pwr_domain_nodes
 .text.psci_set_pwr_domains_to_run
                0x0000000000972278       0x84 /home/mx3g/linux/mpu/nxp/frdm-imx8mp/tmp/work/imx8mpfrdm-poky-linux/imx-atf/2.10+git/git/build-optee/imx8mp/release/bl31/psci_common.o
                0x0000000000972278                psci_set_pwr_domains_to_run
 .text.psci_do_state_coordination
                0x00000000009722fc      0x120 /home/mx3g/linux/mpu/nxp/frdm-imx8mp/tmp/work/imx8mpfrdm-poky-linux/imx-atf/2.10+git/git/build-optee/imx8mp/release/bl31/psci_common.o
                0x00000000009722fc                psci_do_state_coordination
 .text.psci_find_max_off_lvl
                0x000000000097241c       0x4c /home/mx3g/linux/mpu/nxp/frdm-imx8mp/tmp/work/imx8mpfrdm-poky-linux/imx-atf/2.10+git/git/build-optee/imx8mp/release/bl31/psci_common.o
                0x000000000097241c                psci_find_max_off_lvl
 .text.psci_find_target_suspend_lvl
                0x0000000000972468       0x34 /home/mx3g/linux/mpu/nxp/frdm-imx8mp/tmp/work/imx8mpfrdm-poky-linux/imx-atf/2.10+git/git/build-optee/imx8mp/release/bl31/psci_common.o
                0x0000000000972468                psci_find_target_suspend_lvl
 .text.psci_acquire_pwr_domain_locks
                0x000000000097249c       0x6c /home/mx3g/linux/mpu/nxp/frdm-imx8mp/tmp/work/imx8mpfrdm-poky-linux/imx-atf/2.10+git/git/build-optee/imx8mp/release/bl31/psci_common.o
                0x000000000097249c                psci_acquire_pwr_domain_locks
 .text.psci_release_pwr_domain_locks
                0x0000000000972508       0x58 /home/mx3g/linux/mpu/nxp/frdm-imx8mp/tmp/work/imx8mpfrdm-poky-linux/imx-atf/2.10+git/git/build-optee/imx8mp/release/bl31/psci_common.o
                0x0000000000972508                psci_release_pwr_domain_locks
 .text.psci_validate_entry_point
                0x0000000000972560       0xf4 /home/mx3g/linux/mpu/nxp/frdm-imx8mp/tmp/work/imx8mpfrdm-poky-linux/imx-atf/2.10+git/git/build-optee/imx8mp/release/bl31/psci_common.o
                0x0000000000972560                psci_validate_entry_point
 .text.psci_warmboot_entrypoint
                0x0000000000972654       0xdc /home/mx3g/linux/mpu/nxp/frdm-imx8mp/tmp/work/imx8mpfrdm-poky-linux/imx-atf/2.10+git/git/build-optee/imx8mp/release/bl31/psci_common.o
                0x0000000000972654                psci_warmboot_entrypoint
 .text.psci_register_spd_pm_hook
                0x0000000000972730       0x44 /home/mx3g/linux/mpu/nxp/frdm-imx8mp/tmp/work/imx8mpfrdm-poky-linux/imx-atf/2.10+git/git/build-optee/imx8mp/release/bl31/psci_common.o
                0x0000000000972730                psci_register_spd_pm_hook
 .text.psci_spd_migrate_info
                0x0000000000972774       0x24 /home/mx3g/linux/mpu/nxp/frdm-imx8mp/tmp/work/imx8mpfrdm-poky-linux/imx-atf/2.10+git/git/build-optee/imx8mp/release/bl31/psci_common.o
                0x0000000000972774                psci_spd_migrate_info
 .text.psci_print_power_domain_map
                0x0000000000972798        0x4 /home/mx3g/linux/mpu/nxp/frdm-imx8mp/tmp/work/imx8mpfrdm-poky-linux/imx-atf/2.10+git/git/build-optee/imx8mp/release/bl31/psci_common.o
                0x0000000000972798                psci_print_power_domain_map
 .text.psci_pwrdown_cpu
                0x000000000097279c        0x4 /home/mx3g/linux/mpu/nxp/frdm-imx8mp/tmp/work/imx8mpfrdm-poky-linux/imx-atf/2.10+git/git/build-optee/imx8mp/release/bl31/psci_common.o
                0x000000000097279c                psci_pwrdown_cpu
 .text.is_valid_mpidr
                0x00000000009727a0       0x1c /home/mx3g/linux/mpu/nxp/frdm-imx8mp/tmp/work/imx8mpfrdm-poky-linux/imx-atf/2.10+git/git/build-optee/imx8mp/release/bl31/psci_main.o
 .text.psci_cpu_on
                0x00000000009727bc       0x60 /home/mx3g/linux/mpu/nxp/frdm-imx8mp/tmp/work/imx8mpfrdm-poky-linux/imx-atf/2.10+git/git/build-optee/imx8mp/release/bl31/psci_main.o
                0x00000000009727bc                psci_cpu_on
 .text.psci_cpu_suspend
                0x000000000097281c      0x104 /home/mx3g/linux/mpu/nxp/frdm-imx8mp/tmp/work/imx8mpfrdm-poky-linux/imx-atf/2.10+git/git/build-optee/imx8mp/release/bl31/psci_main.o
                0x000000000097281c                psci_cpu_suspend
 .text.psci_system_suspend
                0x0000000000972920       0x80 /home/mx3g/linux/mpu/nxp/frdm-imx8mp/tmp/work/imx8mpfrdm-poky-linux/imx-atf/2.10+git/git/build-optee/imx8mp/release/bl31/psci_main.o
                0x0000000000972920                psci_system_suspend
 .text.psci_cpu_off
                0x00000000009729a0        0x8 /home/mx3g/linux/mpu/nxp/frdm-imx8mp/tmp/work/imx8mpfrdm-poky-linux/imx-atf/2.10+git/git/build-optee/imx8mp/release/bl31/psci_main.o
                0x00000000009729a0                psci_cpu_off
 .text.psci_affinity_info
                0x00000000009729a8       0x5c /home/mx3g/linux/mpu/nxp/frdm-imx8mp/tmp/work/imx8mpfrdm-poky-linux/imx-atf/2.10+git/git/build-optee/imx8mp/release/bl31/psci_main.o
                0x00000000009729a8                psci_affinity_info
 .text.psci_migrate
                0x0000000000972a04       0x88 /home/mx3g/linux/mpu/nxp/frdm-imx8mp/tmp/work/imx8mpfrdm-poky-linux/imx-atf/2.10+git/git/build-optee/imx8mp/release/bl31/psci_main.o
                0x0000000000972a04                psci_migrate
 .text.psci_migrate_info_type
                0x0000000000972a8c       0x18 /home/mx3g/linux/mpu/nxp/frdm-imx8mp/tmp/work/imx8mpfrdm-poky-linux/imx-atf/2.10+git/git/build-optee/imx8mp/release/bl31/psci_main.o
                0x0000000000972a8c                psci_migrate_info_type
 .text.psci_migrate_info_up_cpu
                0x0000000000972aa4       0x28 /home/mx3g/linux/mpu/nxp/frdm-imx8mp/tmp/work/imx8mpfrdm-poky-linux/imx-atf/2.10+git/git/build-optee/imx8mp/release/bl31/psci_main.o
                0x0000000000972aa4                psci_migrate_info_up_cpu
 .text.psci_node_hw_state
                0x0000000000972acc       0x5c /home/mx3g/linux/mpu/nxp/frdm-imx8mp/tmp/work/imx8mpfrdm-poky-linux/imx-atf/2.10+git/git/build-optee/imx8mp/release/bl31/psci_main.o
                0x0000000000972acc                psci_node_hw_state
 .text.psci_features
                0x0000000000972b28       0x68 /home/mx3g/linux/mpu/nxp/frdm-imx8mp/tmp/work/imx8mpfrdm-poky-linux/imx-atf/2.10+git/git/build-optee/imx8mp/release/bl31/psci_main.o
                0x0000000000972b28                psci_features
 .text.psci_smc_handler
                0x0000000000972b90      0x150 /home/mx3g/linux/mpu/nxp/frdm-imx8mp/tmp/work/imx8mpfrdm-poky-linux/imx-atf/2.10+git/git/build-optee/imx8mp/release/bl31/psci_main.o
                0x0000000000972b90                psci_smc_handler
 .text.psci_mem_protect
                0x0000000000972ce0       0x60 /home/mx3g/linux/mpu/nxp/frdm-imx8mp/tmp/work/imx8mpfrdm-poky-linux/imx-atf/2.10+git/git/build-optee/imx8mp/release/bl31/psci_mem_protect.o
                0x0000000000972ce0                psci_mem_protect
 .text.psci_mem_chk_range
                0x0000000000972d40       0x4c /home/mx3g/linux/mpu/nxp/frdm-imx8mp/tmp/work/imx8mpfrdm-poky-linux/imx-atf/2.10+git/git/build-optee/imx8mp/release/bl31/psci_mem_protect.o
                0x0000000000972d40                psci_mem_chk_range
 .text.psci_do_cpu_off
                0x0000000000972d8c      0x158 /home/mx3g/linux/mpu/nxp/frdm-imx8mp/tmp/work/imx8mpfrdm-poky-linux/imx-atf/2.10+git/git/build-optee/imx8mp/release/bl31/psci_off.o
                0x0000000000972d8c                psci_do_cpu_off
 .text.psci_cpu_on_start
                0x0000000000972ee4      0x164 /home/mx3g/linux/mpu/nxp/frdm-imx8mp/tmp/work/imx8mpfrdm-poky-linux/imx-atf/2.10+git/git/build-optee/imx8mp/release/bl31/psci_on.o
                0x0000000000972ee4                psci_cpu_on_start
 .text.psci_cpu_on_finish
                0x0000000000973048       0xdc /home/mx3g/linux/mpu/nxp/frdm-imx8mp/tmp/work/imx8mpfrdm-poky-linux/imx-atf/2.10+git/git/build-optee/imx8mp/release/bl31/psci_on.o
                0x0000000000973048                psci_cpu_on_finish
 .text.psci_arch_setup
                0x0000000000973124       0x20 /home/mx3g/linux/mpu/nxp/frdm-imx8mp/tmp/work/imx8mpfrdm-poky-linux/imx-atf/2.10+git/git/build-optee/imx8mp/release/bl31/psci_setup.o
                0x0000000000973124                psci_arch_setup
 .text.psci_setup
                0x0000000000973144      0x344 /home/mx3g/linux/mpu/nxp/frdm-imx8mp/tmp/work/imx8mpfrdm-poky-linux/imx-atf/2.10+git/git/build-optee/imx8mp/release/bl31/psci_setup.o
                0x0000000000973144                psci_setup
 .text.psci_cpu_suspend_start
                0x0000000000973488      0x1d8 /home/mx3g/linux/mpu/nxp/frdm-imx8mp/tmp/work/imx8mpfrdm-poky-linux/imx-atf/2.10+git/git/build-optee/imx8mp/release/bl31/psci_suspend.o
                0x0000000000973488                psci_cpu_suspend_start
 .text.psci_cpu_suspend_finish
                0x0000000000973660       0xa8 /home/mx3g/linux/mpu/nxp/frdm-imx8mp/tmp/work/imx8mpfrdm-poky-linux/imx-atf/2.10+git/git/build-optee/imx8mp/release/bl31/psci_suspend.o
                0x0000000000973660                psci_cpu_suspend_finish
 .text.psci_system_off
                0x0000000000973708       0x40 /home/mx3g/linux/mpu/nxp/frdm-imx8mp/tmp/work/imx8mpfrdm-poky-linux/imx-atf/2.10+git/git/build-optee/imx8mp/release/bl31/psci_system_off.o
                0x0000000000973708                psci_system_off
 .text.psci_system_reset
                0x0000000000973748       0x40 /home/mx3g/linux/mpu/nxp/frdm-imx8mp/tmp/work/imx8mpfrdm-poky-linux/imx-atf/2.10+git/git/build-optee/imx8mp/release/bl31/psci_system_off.o
                0x0000000000973748                psci_system_reset
 .text.psci_system_reset2
                0x0000000000973788       0xb0 /home/mx3g/linux/mpu/nxp/frdm-imx8mp/tmp/work/imx8mpfrdm-poky-linux/imx-atf/2.10+git/git/build-optee/imx8mp/release/bl31/psci_system_off.o
                0x0000000000973788                psci_system_reset2
 .text.xlat_arch_get_pas
                0x0000000000973838       0x14 /home/mx3g/linux/mpu/nxp/frdm-imx8mp/tmp/work/imx8mpfrdm-poky-linux/imx-atf/2.10+git/git/build-optee/imx8mp/release/bl31/xlat_tables_arch.o
                0x0000000000973838                xlat_arch_get_pas
 .text.tcr_physical_addr_size_bits
                0x000000000097384c       0x4c /home/mx3g/linux/mpu/nxp/frdm-imx8mp/tmp/work/imx8mpfrdm-poky-linux/imx-atf/2.10+git/git/build-optee/imx8mp/release/bl31/xlat_tables_arch.o
                0x000000000097384c                tcr_physical_addr_size_bits
 .text.is_dcache_enabled
                0x0000000000973898        0xc /home/mx3g/linux/mpu/nxp/frdm-imx8mp/tmp/work/imx8mpfrdm-poky-linux/imx-atf/2.10+git/git/build-optee/imx8mp/release/bl31/xlat_tables_arch.o
                0x0000000000973898                is_dcache_enabled
 .text.xlat_arch_regime_get_xn_desc
                0x00000000009738a4       0x14 /home/mx3g/linux/mpu/nxp/frdm-imx8mp/tmp/work/imx8mpfrdm-poky-linux/imx-atf/2.10+git/git/build-optee/imx8mp/release/bl31/xlat_tables_arch.o
                0x00000000009738a4                xlat_arch_regime_get_xn_desc
 .text.xlat_arch_current_el
                0x00000000009738b8        0xc /home/mx3g/linux/mpu/nxp/frdm-imx8mp/tmp/work/imx8mpfrdm-poky-linux/imx-atf/2.10+git/git/build-optee/imx8mp/release/bl31/xlat_tables_arch.o
                0x00000000009738b8                xlat_arch_current_el
 .text.setup_mmu_cfg
                0x00000000009738c4       0x7c /home/mx3g/linux/mpu/nxp/frdm-imx8mp/tmp/work/imx8mpfrdm-poky-linux/imx-atf/2.10+git/git/build-optee/imx8mp/release/bl31/xlat_tables_arch.o
                0x00000000009738c4                setup_mmu_cfg
 .text.mmap_add
                0x0000000000973940       0x10 /home/mx3g/linux/mpu/nxp/frdm-imx8mp/tmp/work/imx8mpfrdm-poky-linux/imx-atf/2.10+git/git/build-optee/imx8mp/release/bl31/xlat_tables_context.o
                0x0000000000973940                mmap_add
 .text.init_xlat_tables
                0x0000000000973950       0x3c /home/mx3g/linux/mpu/nxp/frdm-imx8mp/tmp/work/imx8mpfrdm-poky-linux/imx-atf/2.10+git/git/build-optee/imx8mp/release/bl31/xlat_tables_context.o
                0x0000000000973950                init_xlat_tables
 .text.enable_mmu_el3
                0x000000000097398c       0x48 /home/mx3g/linux/mpu/nxp/frdm-imx8mp/tmp/work/imx8mpfrdm-poky-linux/imx-atf/2.10+git/git/build-optee/imx8mp/release/bl31/xlat_tables_context.o
                0x000000000097398c                enable_mmu_el3
 .text.xlat_clean_dcache_range
                0x00000000009739d4       0x3c /home/mx3g/linux/mpu/nxp/frdm-imx8mp/tmp/work/imx8mpfrdm-poky-linux/imx-atf/2.10+git/git/build-optee/imx8mp/release/bl31/xlat_tables_core.o
 .text.xlat_desc
                0x0000000000973a10       0xec /home/mx3g/linux/mpu/nxp/frdm-imx8mp/tmp/work/imx8mpfrdm-poky-linux/imx-atf/2.10+git/git/build-optee/imx8mp/release/bl31/xlat_tables_core.o
                0x0000000000973a10                xlat_desc
 .text.xlat_tables_map_region
                0x0000000000973afc      0x20c /home/mx3g/linux/mpu/nxp/frdm-imx8mp/tmp/work/imx8mpfrdm-poky-linux/imx-atf/2.10+git/git/build-optee/imx8mp/release/bl31/xlat_tables_core.o
 .text.mmap_add_region_ctx
                0x0000000000973d08      0x230 /home/mx3g/linux/mpu/nxp/frdm-imx8mp/tmp/work/imx8mpfrdm-poky-linux/imx-atf/2.10+git/git/build-optee/imx8mp/release/bl31/xlat_tables_core.o
                0x0000000000973d08                mmap_add_region_ctx
 .text.mmap_add_ctx
                0x0000000000973f38       0x3c /home/mx3g/linux/mpu/nxp/frdm-imx8mp/tmp/work/imx8mpfrdm-poky-linux/imx-atf/2.10+git/git/build-optee/imx8mp/release/bl31/xlat_tables_core.o
                0x0000000000973f38                mmap_add_ctx
 .text.init_xlat_tables_ctx
                0x0000000000973f74      0x100 /home/mx3g/linux/mpu/nxp/frdm-imx8mp/tmp/work/imx8mpfrdm-poky-linux/imx-atf/2.10+git/git/build-optee/imx8mp/release/bl31/xlat_tables_core.o
                0x0000000000973f74                init_xlat_tables_ctx
 .text.xlat_mmap_print
                0x0000000000974074        0x4 /home/mx3g/linux/mpu/nxp/frdm-imx8mp/tmp/work/imx8mpfrdm-poky-linux/imx-atf/2.10+git/git/build-optee/imx8mp/release/bl31/xlat_tables_utils.o
                0x0000000000974074                xlat_mmap_print
 .text.xlat_tables_print
                0x0000000000974078        0x4 /home/mx3g/linux/mpu/nxp/frdm-imx8mp/tmp/work/imx8mpfrdm-poky-linux/imx-atf/2.10+git/git/build-optee/imx8mp/release/bl31/xlat_tables_utils.o
                0x0000000000974078                xlat_tables_print
 .text.bl31_plat_runtime_setup
                0x000000000097407c        0x8 /home/mx3g/linux/mpu/nxp/frdm-imx8mp/tmp/work/imx8mpfrdm-poky-linux/imx-atf/2.10+git/git/build-optee/imx8mp/release/bl31/plat_common.o
                0x000000000097407c                bl31_plat_runtime_setup
 .text.plat_get_soc_version
                0x0000000000974084        0x8 /home/mx3g/linux/mpu/nxp/frdm-imx8mp/tmp/work/imx8mpfrdm-poky-linux/imx-atf/2.10+git/git/build-optee/imx8mp/release/bl31/plat_bl_common.o
                0x0000000000974084                plat_get_soc_version
 .text.plat_get_soc_revision
                0x000000000097408c        0x8 /home/mx3g/linux/mpu/nxp/frdm-imx8mp/tmp/work/imx8mpfrdm-poky-linux/imx-atf/2.10+git/git/build-optee/imx8mp/release/bl31/plat_bl_common.o
                0x000000000097408c                plat_get_soc_revision
 .text.plat_is_smccc_feature_available
                0x0000000000974094        0x8 /home/mx3g/linux/mpu/nxp/frdm-imx8mp/tmp/work/imx8mpfrdm-poky-linux/imx-atf/2.10+git/git/build-optee/imx8mp/release/bl31/plat_bl_common.o
                0x0000000000974094                plat_is_smccc_feature_available
 .text.setup_page_tables
                0x000000000097409c       0x28 /home/mx3g/linux/mpu/nxp/frdm-imx8mp/tmp/work/imx8mpfrdm-poky-linux/imx-atf/2.10+git/git/build-optee/imx8mp/release/bl31/plat_bl_common.o
                0x000000000097409c                setup_page_tables
 .text.plat_ic_get_pending_interrupt_type
                0x00000000009740c4       0x34 /home/mx3g/linux/mpu/nxp/frdm-imx8mp/tmp/work/imx8mpfrdm-poky-linux/imx-atf/2.10+git/git/build-optee/imx8mp/release/bl31/plat_gicv3.o
                0x00000000009740c4                plat_ic_get_pending_interrupt_type
 .text.plat_ic_acknowledge_interrupt
                0x00000000009740f8        0xc /home/mx3g/linux/mpu/nxp/frdm-imx8mp/tmp/work/imx8mpfrdm-poky-linux/imx-atf/2.10+git/git/build-optee/imx8mp/release/bl31/plat_gicv3.o
                0x00000000009740f8                plat_ic_acknowledge_interrupt
 .text.plat_ic_end_of_interrupt
                0x0000000000974104       0x10 /home/mx3g/linux/mpu/nxp/frdm-imx8mp/tmp/work/imx8mpfrdm-poky-linux/imx-atf/2.10+git/git/build-optee/imx8mp/release/bl31/plat_gicv3.o
                0x0000000000974104                plat_ic_end_of_interrupt
 .text.plat_interrupt_type_to_line
                0x0000000000974114       0x48 /home/mx3g/linux/mpu/nxp/frdm-imx8mp/tmp/work/imx8mpfrdm-poky-linux/imx-atf/2.10+git/git/build-optee/imx8mp/release/bl31/plat_gicv3.o
                0x0000000000974114                plat_interrupt_type_to_line
 .text.plat_ic_has_interrupt_type
                0x000000000097415c        0xc /home/mx3g/linux/mpu/nxp/frdm-imx8mp/tmp/work/imx8mpfrdm-poky-linux/imx-atf/2.10+git/git/build-optee/imx8mp/release/bl31/plat_gicv3.o
                0x000000000097415c                plat_ic_has_interrupt_type
 .text.plat_ic_raise_el3_sgi
                0x0000000000974168        0xc /home/mx3g/linux/mpu/nxp/frdm-imx8mp/tmp/work/imx8mpfrdm-poky-linux/imx-atf/2.10+git/git/build-optee/imx8mp/release/bl31/plat_gicv3.o
                0x0000000000974168                plat_ic_raise_el3_sgi
 .text.plat_log_get_prefix
                0x0000000000974174       0x30 /home/mx3g/linux/mpu/nxp/frdm-imx8mp/tmp/work/imx8mpfrdm-poky-linux/imx-atf/2.10+git/git/build-optee/imx8mp/release/bl31/plat_log_common.o
                0x0000000000974174                plat_log_get_prefix
 .text.plat_get_target_pwr_state
                0x00000000009741a4       0x28 /home/mx3g/linux/mpu/nxp/frdm-imx8mp/tmp/work/imx8mpfrdm-poky-linux/imx-atf/2.10+git/git/build-optee/imx8mp/release/bl31/plat_psci_common.o
                0x00000000009741a4                plat_get_target_pwr_state
 .text.plat_get_power_domain_tree_desc
                0x00000000009741cc        0xc /home/mx3g/linux/mpu/nxp/frdm-imx8mp/tmp/work/imx8mpfrdm-poky-linux/imx-atf/2.10+git/git/build-optee/imx8mp/release/bl31/imx8_topology.o
                0x00000000009741cc                plat_get_power_domain_tree_desc
 .text.plat_core_pos_by_mpidr
                0x00000000009741d8       0x38 /home/mx3g/linux/mpu/nxp/frdm-imx8mp/tmp/work/imx8mpfrdm-poky-linux/imx-atf/2.10+git/git/build-optee/imx8mp/release/bl31/imx8_topology.o
                0x00000000009741d8                plat_core_pos_by_mpidr
 .text.imx_buildinfo_handler
                0x0000000000974210       0x84 /home/mx3g/linux/mpu/nxp/frdm-imx8mp/tmp/work/imx8mpfrdm-poky-linux/imx-atf/2.10+git/git/build-optee/imx8mp/release/bl31/imx_sip_handler.o
                0x0000000000974210                imx_buildinfo_handler
 .text.imx_kernel_entry_handler
                0x0000000000974294       0x64 /home/mx3g/linux/mpu/nxp/frdm-imx8mp/tmp/work/imx8mpfrdm-poky-linux/imx-atf/2.10+git/git/build-optee/imx8mp/release/bl31/imx_sip_handler.o
                0x0000000000974294                imx_kernel_entry_handler
 .text.imx_sip_setup
                0x00000000009742f8        0x8 /home/mx3g/linux/mpu/nxp/frdm-imx8mp/tmp/work/imx8mpfrdm-poky-linux/imx-atf/2.10+git/git/build-optee/imx8mp/release/bl31/imx_sip_svc.o
 .text.imx_sip_handler
                0x0000000000974300       0xc4 /home/mx3g/linux/mpu/nxp/frdm-imx8mp/tmp/work/imx8mpfrdm-poky-linux/imx-atf/2.10+git/git/build-optee/imx8mp/release/bl31/imx_sip_svc.o
 .text.plat_imx_mpidr_to_core_pos
                0x00000000009743c4        0x4 /home/mx3g/linux/mpu/nxp/frdm-imx8mp/tmp/work/imx8mpfrdm-poky-linux/imx-atf/2.10+git/git/build-optee/imx8mp/release/bl31/plat_imx8_gic.o
 .text.plat_gic_driver_init
                0x00000000009743c8        0xc /home/mx3g/linux/mpu/nxp/frdm-imx8mp/tmp/work/imx8mpfrdm-poky-linux/imx-atf/2.10+git/git/build-optee/imx8mp/release/bl31/plat_imx8_gic.o
                0x00000000009743c8                plat_gic_driver_init
 .text.plat_gic_init
                0x00000000009743d4       0x40 /home/mx3g/linux/mpu/nxp/frdm-imx8mp/tmp/work/imx8mpfrdm-poky-linux/imx-atf/2.10+git/git/build-optee/imx8mp/release/bl31/plat_imx8_gic.o
                0x00000000009743d4                plat_gic_init
 .text.plat_gic_cpuif_enable
                0x0000000000974414       0x14 /home/mx3g/linux/mpu/nxp/frdm-imx8mp/tmp/work/imx8mpfrdm-poky-linux/imx-atf/2.10+git/git/build-optee/imx8mp/release/bl31/plat_imx8_gic.o
                0x0000000000974414                plat_gic_cpuif_enable
 .text.plat_gic_cpuif_disable
                0x0000000000974428       0x14 /home/mx3g/linux/mpu/nxp/frdm-imx8mp/tmp/work/imx8mpfrdm-poky-linux/imx-atf/2.10+git/git/build-optee/imx8mp/release/bl31/plat_imx8_gic.o
                0x0000000000974428                plat_gic_cpuif_disable
 .text.plat_gic_pcpu_init
                0x000000000097443c       0x14 /home/mx3g/linux/mpu/nxp/frdm-imx8mp/tmp/work/imx8mpfrdm-poky-linux/imx-atf/2.10+git/git/build-optee/imx8mp/release/bl31/plat_imx8_gic.o
                0x000000000097443c                plat_gic_pcpu_init
 .text.plat_gic_save
                0x0000000000974450       0x48 /home/mx3g/linux/mpu/nxp/frdm-imx8mp/tmp/work/imx8mpfrdm-poky-linux/imx-atf/2.10+git/git/build-optee/imx8mp/release/bl31/plat_imx8_gic.o
                0x0000000000974450                plat_gic_save
 .text.plat_gic_restore
                0x0000000000974498       0x50 /home/mx3g/linux/mpu/nxp/frdm-imx8mp/tmp/work/imx8mpfrdm-poky-linux/imx-atf/2.10+git/git/build-optee/imx8mp/release/bl31/plat_imx8_gic.o
                0x0000000000974498                plat_gic_restore
 .text.ddr_pll_bypass_100mts
                0x00000000009744e8       0x38 /home/mx3g/linux/mpu/nxp/frdm-imx8mp/tmp/work/imx8mpfrdm-poky-linux/imx-atf/2.10+git/git/build-optee/imx8mp/release/bl31/clock.o
                0x00000000009744e8                ddr_pll_bypass_100mts
 .text.ddr_pll_bypass_400mts
                0x0000000000974520       0x38 /home/mx3g/linux/mpu/nxp/frdm-imx8mp/tmp/work/imx8mpfrdm-poky-linux/imx-atf/2.10+git/git/build-optee/imx8mp/release/bl31/clock.o
                0x0000000000974520                ddr_pll_bypass_400mts
 .text.ddr_pll_unbypass
                0x0000000000974558       0x28 /home/mx3g/linux/mpu/nxp/frdm-imx8mp/tmp/work/imx8mpfrdm-poky-linux/imx-atf/2.10+git/git/build-optee/imx8mp/release/bl31/clock.o
                0x0000000000974558                ddr_pll_unbypass
 .text.dram_pll_init
                0x0000000000974580       0xe8 /home/mx3g/linux/mpu/nxp/frdm-imx8mp/tmp/work/imx8mpfrdm-poky-linux/imx-atf/2.10+git/git/build-optee/imx8mp/release/bl31/clock.o
                0x0000000000974580                dram_pll_init
 .text.dram_clock_switch
                0x0000000000974668       0x24 /home/mx3g/linux/mpu/nxp/frdm-imx8mp/tmp/work/imx8mpfrdm-poky-linux/imx-atf/2.10+git/git/build-optee/imx8mp/release/bl31/clock.o
                0x0000000000974668                dram_clock_switch
 .text.ddr4_mr_write
                0x000000000097468c       0xe4 /home/mx3g/linux/mpu/nxp/frdm-imx8mp/tmp/work/imx8mpfrdm-poky-linux/imx-atf/2.10+git/git/build-optee/imx8mp/release/bl31/ddr4_dvfs.o
                0x000000000097468c                ddr4_mr_write
 .text.dram_cfg_all_mr
                0x0000000000974770       0x7c /home/mx3g/linux/mpu/nxp/frdm-imx8mp/tmp/work/imx8mpfrdm-poky-linux/imx-atf/2.10+git/git/build-optee/imx8mp/release/bl31/ddr4_dvfs.o
                0x0000000000974770                dram_cfg_all_mr
 .text.sw_pstate
                0x00000000009747ec       0xbc /home/mx3g/linux/mpu/nxp/frdm-imx8mp/tmp/work/imx8mpfrdm-poky-linux/imx-atf/2.10+git/git/build-optee/imx8mp/release/bl31/ddr4_dvfs.o
                0x00000000009747ec                sw_pstate
 .text.ddr4_swffc
                0x00000000009748a8      0x104 /home/mx3g/linux/mpu/nxp/frdm-imx8mp/tmp/work/imx8mpfrdm-poky-linux/imx-atf/2.10+git/git/build-optee/imx8mp/release/bl31/ddr4_dvfs.o
                0x00000000009748a8                ddr4_swffc
 .text.waiting_dvfs
                0x00000000009749ac       0x84 /home/mx3g/linux/mpu/nxp/frdm-imx8mp/tmp/work/imx8mpfrdm-poky-linux/imx-atf/2.10+git/git/build-optee/imx8mp/release/bl31/dram.o
 .text.lpddr4_mr_read.constprop.0
                0x0000000000974a30       0x8c /home/mx3g/linux/mpu/nxp/frdm-imx8mp/tmp/work/imx8mpfrdm-poky-linux/imx-atf/2.10+git/git/build-optee/imx8mp/release/bl31/dram.o
 .text.dram_umctl2_init
                0x0000000000974abc       0x38 /home/mx3g/linux/mpu/nxp/frdm-imx8mp/tmp/work/imx8mpfrdm-poky-linux/imx-atf/2.10+git/git/build-optee/imx8mp/release/bl31/dram.o
                0x0000000000974abc                dram_umctl2_init
 .text.dram_phy_init
                0x0000000000974af4       0xa0 /home/mx3g/linux/mpu/nxp/frdm-imx8mp/tmp/work/imx8mpfrdm-poky-linux/imx-atf/2.10+git/git/build-optee/imx8mp/release/bl31/dram.o
                0x0000000000974af4                dram_phy_init
 .text.dram_info_init
                0x0000000000974b94      0x218 /home/mx3g/linux/mpu/nxp/frdm-imx8mp/tmp/work/imx8mpfrdm-poky-linux/imx-atf/2.10+git/git/build-optee/imx8mp/release/bl31/dram.o
                0x0000000000974b94                dram_info_init
 .text.dram_dvfs_get_freq_info
                0x0000000000974dac       0xc0 /home/mx3g/linux/mpu/nxp/frdm-imx8mp/tmp/work/imx8mpfrdm-poky-linux/imx-atf/2.10+git/git/build-optee/imx8mp/release/bl31/dram.o
                0x0000000000974dac                dram_dvfs_get_freq_info
 .text.dram_dvfs_handler
                0x0000000000974e6c      0x168 /home/mx3g/linux/mpu/nxp/frdm-imx8mp/tmp/work/imx8mpfrdm-poky-linux/imx-atf/2.10+git/git/build-optee/imx8mp/release/bl31/dram.o
                0x0000000000974e6c                dram_dvfs_handler
 .text.rank_setting_update
                0x0000000000974fd4       0x84 /home/mx3g/linux/mpu/nxp/frdm-imx8mp/tmp/work/imx8mpfrdm-poky-linux/imx-atf/2.10+git/git/build-optee/imx8mp/release/bl31/dram_retention.o
                0x0000000000974fd4                rank_setting_update
 .text.dram_enter_retention
                0x0000000000975058      0x154 /home/mx3g/linux/mpu/nxp/frdm-imx8mp/tmp/work/imx8mpfrdm-poky-linux/imx-atf/2.10+git/git/build-optee/imx8mp/release/bl31/dram_retention.o
                0x0000000000975058                dram_enter_retention
 .text.dram_exit_retention
                0x00000000009751ac      0x1d0 /home/mx3g/linux/mpu/nxp/frdm-imx8mp/tmp/work/imx8mpfrdm-poky-linux/imx-atf/2.10+git/git/build-optee/imx8mp/release/bl31/dram_retention.o
                0x00000000009751ac                dram_exit_retention
 .text.lpddr4_mr_write.constprop.0
                0x000000000097537c       0x38 /home/mx3g/linux/mpu/nxp/frdm-imx8mp/tmp/work/imx8mpfrdm-poky-linux/imx-atf/2.10+git/git/build-optee/imx8mp/release/bl31/lpddr4_dvfs.o
 .text.lpddr4_swffc
                0x00000000009753b4      0x450 /home/mx3g/linux/mpu/nxp/frdm-imx8mp/tmp/work/imx8mpfrdm-poky-linux/imx-atf/2.10+git/git/build-optee/imx8mp/release/bl31/lpddr4_dvfs.o
                0x00000000009753b4                lpddr4_swffc
 .text.imx_m4_lpa_active
                0x0000000000975804       0x24 /home/mx3g/linux/mpu/nxp/frdm-imx8mp/tmp/work/imx8mpfrdm-poky-linux/imx-atf/2.10+git/git/build-optee/imx8mp/release/bl31/gpc_common.o
                0x0000000000975804                imx_m4_lpa_active
 .text.imx_is_m4_enabled
                0x0000000000975828       0x18 /home/mx3g/linux/mpu/nxp/frdm-imx8mp/tmp/work/imx8mpfrdm-poky-linux/imx-atf/2.10+git/git/build-optee/imx8mp/release/bl31/gpc_common.o
                0x0000000000975828                imx_is_m4_enabled
 .text.imx_set_cpu_secure_entry
                0x0000000000975840       0x28 /home/mx3g/linux/mpu/nxp/frdm-imx8mp/tmp/work/imx8mpfrdm-poky-linux/imx-atf/2.10+git/git/build-optee/imx8mp/release/bl31/gpc_common.o
                0x0000000000975840                imx_set_cpu_secure_entry
 .text.imx_set_cpu_pwr_off
                0x0000000000975868       0x80 /home/mx3g/linux/mpu/nxp/frdm-imx8mp/tmp/work/imx8mpfrdm-poky-linux/imx-atf/2.10+git/git/build-optee/imx8mp/release/bl31/gpc_common.o
                0x0000000000975868                imx_set_cpu_pwr_off
 .text.imx_set_cpu_pwr_on
                0x00000000009758e8       0xe0 /home/mx3g/linux/mpu/nxp/frdm-imx8mp/tmp/work/imx8mpfrdm-poky-linux/imx-atf/2.10+git/git/build-optee/imx8mp/release/bl31/gpc_common.o
                0x00000000009758e8                imx_set_cpu_pwr_on
 .text.imx_set_cpu_lpm
                0x00000000009759c8       0xd0 /home/mx3g/linux/mpu/nxp/frdm-imx8mp/tmp/work/imx8mpfrdm-poky-linux/imx-atf/2.10+git/git/build-optee/imx8mp/release/bl31/gpc_common.o
                0x00000000009759c8                imx_set_cpu_lpm
 .text.imx_set_cluster_powerdown
                0x0000000000975a98       0xf8 /home/mx3g/linux/mpu/nxp/frdm-imx8mp/tmp/work/imx8mpfrdm-poky-linux/imx-atf/2.10+git/git/build-optee/imx8mp/release/bl31/gpc_common.o
                0x0000000000975a98                imx_set_cluster_powerdown
 .text.imx_set_sys_wakeup
                0x0000000000975b90       0xec /home/mx3g/linux/mpu/nxp/frdm-imx8mp/tmp/work/imx8mpfrdm-poky-linux/imx-atf/2.10+git/git/build-optee/imx8mp/release/bl31/gpc_common.o
                0x0000000000975b90                imx_set_sys_wakeup
 .text.imx_noc_slot_config
                0x0000000000975c7c       0x7c /home/mx3g/linux/mpu/nxp/frdm-imx8mp/tmp/work/imx8mpfrdm-poky-linux/imx-atf/2.10+git/git/build-optee/imx8mp/release/bl31/gpc_common.o
                0x0000000000975c7c                imx_noc_slot_config
 .text.imx_set_sys_lpm
                0x0000000000975cf8       0x68 /home/mx3g/linux/mpu/nxp/frdm-imx8mp/tmp/work/imx8mpfrdm-poky-linux/imx-atf/2.10+git/git/build-optee/imx8mp/release/bl31/gpc_common.o
                0x0000000000975cf8                imx_set_sys_lpm
 .text.imx_set_rbc_count
                0x0000000000975d60       0x1c /home/mx3g/linux/mpu/nxp/frdm-imx8mp/tmp/work/imx8mpfrdm-poky-linux/imx-atf/2.10+git/git/build-optee/imx8mp/release/bl31/gpc_common.o
                0x0000000000975d60                imx_set_rbc_count
 .text.imx_clear_rbc_count
                0x0000000000975d7c       0x18 /home/mx3g/linux/mpu/nxp/frdm-imx8mp/tmp/work/imx8mpfrdm-poky-linux/imx-atf/2.10+git/git/build-optee/imx8mp/release/bl31/gpc_common.o
                0x0000000000975d7c                imx_clear_rbc_count
 .text.imx_anamix_override
                0x0000000000975d94       0x70 /home/mx3g/linux/mpu/nxp/frdm-imx8mp/tmp/work/imx8mpfrdm-poky-linux/imx-atf/2.10+git/git/build-optee/imx8mp/release/bl31/gpc_common.o
                0x0000000000975d94                imx_anamix_override
 .text.imx_gpc_handler
                0x0000000000975e04       0x34 /home/mx3g/linux/mpu/nxp/frdm-imx8mp/tmp/work/imx8mpfrdm-poky-linux/imx-atf/2.10+git/git/build-optee/imx8mp/release/bl31/gpc_common.o
                0x0000000000975e04                imx_gpc_handler
 .text.imx_src_handler
                0x0000000000975e38      0x1c4 /home/mx3g/linux/mpu/nxp/frdm-imx8mp/tmp/work/imx8mpfrdm-poky-linux/imx-atf/2.10+git/git/build-optee/imx8mp/release/bl31/gpc_common.o
                0x0000000000975e38                imx_src_handler
 .text.imx8m_caam_init
                0x0000000000975ffc       0x98 /home/mx3g/linux/mpu/nxp/frdm-imx8mp/tmp/work/imx8mpfrdm-poky-linux/imx-atf/2.10+git/git/build-optee/imx8mp/release/bl31/imx8m_caam.o
                0x0000000000975ffc                imx8m_caam_init
 .text.imx_csu_init
                0x0000000000976094      0x158 /home/mx3g/linux/mpu/nxp/frdm-imx8mp/tmp/work/imx8mpfrdm-poky-linux/imx-atf/2.10+git/git/build-optee/imx8mp/release/bl31/imx8m_csu.o
                0x0000000000976094                imx_csu_init
 .text.imx_validate_ns_entrypoint
                0x00000000009761ec       0x14 /home/mx3g/linux/mpu/nxp/frdm-imx8mp/tmp/work/imx8mpfrdm-poky-linux/imx-atf/2.10+git/git/build-optee/imx8mp/release/bl31/imx8m_psci_common.o
                0x00000000009761ec                imx_validate_ns_entrypoint
 .text.imx_pwr_domain_on
                0x0000000000976200       0x38 /home/mx3g/linux/mpu/nxp/frdm-imx8mp/tmp/work/imx8mpfrdm-poky-linux/imx-atf/2.10+git/git/build-optee/imx8mp/release/bl31/imx8m_psci_common.o
                0x0000000000976200                imx_pwr_domain_on
 .text.imx_pwr_domain_on_finish
                0x0000000000976238       0x14 /home/mx3g/linux/mpu/nxp/frdm-imx8mp/tmp/work/imx8mpfrdm-poky-linux/imx-atf/2.10+git/git/build-optee/imx8mp/release/bl31/imx8m_psci_common.o
                0x0000000000976238                imx_pwr_domain_on_finish
 .text.imx_pwr_domain_off
                0x000000000097624c       0x24 /home/mx3g/linux/mpu/nxp/frdm-imx8mp/tmp/work/imx8mpfrdm-poky-linux/imx-atf/2.10+git/git/build-optee/imx8mp/release/bl31/imx8m_psci_common.o
                0x000000000097624c                imx_pwr_domain_off
 .text.imx_validate_power_state
                0x0000000000976270       0x5c /home/mx3g/linux/mpu/nxp/frdm-imx8mp/tmp/work/imx8mpfrdm-poky-linux/imx-atf/2.10+git/git/build-optee/imx8mp/release/bl31/imx8m_psci_common.o
                0x0000000000976270                imx_validate_power_state
 .text.imx_cpu_standby
                0x00000000009762cc       0x2c /home/mx3g/linux/mpu/nxp/frdm-imx8mp/tmp/work/imx8mpfrdm-poky-linux/imx-atf/2.10+git/git/build-optee/imx8mp/release/bl31/imx8m_psci_common.o
                0x00000000009762cc                imx_cpu_standby
 .text.imx_domain_suspend
                0x00000000009762f8       0xe4 /home/mx3g/linux/mpu/nxp/frdm-imx8mp/tmp/work/imx8mpfrdm-poky-linux/imx-atf/2.10+git/git/build-optee/imx8mp/release/bl31/imx8m_psci_common.o
                0x00000000009762f8                imx_domain_suspend
 .text.imx_domain_suspend_finish
                0x00000000009763dc       0xd4 /home/mx3g/linux/mpu/nxp/frdm-imx8mp/tmp/work/imx8mpfrdm-poky-linux/imx-atf/2.10+git/git/build-optee/imx8mp/release/bl31/imx8m_psci_common.o
                0x00000000009763dc                imx_domain_suspend_finish
 .text.imx_get_sys_suspend_power_state
                0x00000000009764b0       0x14 /home/mx3g/linux/mpu/nxp/frdm-imx8mp/tmp/work/imx8mpfrdm-poky-linux/imx-atf/2.10+git/git/build-optee/imx8mp/release/bl31/imx8m_psci_common.o
                0x00000000009764b0                imx_get_sys_suspend_power_state
 .text.imx_system_reset
                0x00000000009764c4       0x30 /home/mx3g/linux/mpu/nxp/frdm-imx8mp/tmp/work/imx8mpfrdm-poky-linux/imx-atf/2.10+git/git/build-optee/imx8mp/release/bl31/imx8m_psci_common.o
                0x00000000009764c4                imx_system_reset
 .text.imx_system_off
                0x00000000009764f4       0x1c /home/mx3g/linux/mpu/nxp/frdm-imx8mp/tmp/work/imx8mpfrdm-poky-linux/imx-atf/2.10+git/git/build-optee/imx8mp/release/bl31/imx8m_psci_common.o
                0x00000000009764f4                imx_system_off
 .text.imx_pwr_domain_pwr_down_wfi
                0x0000000000976510       0x34 /home/mx3g/linux/mpu/nxp/frdm-imx8mp/tmp/work/imx8mpfrdm-poky-linux/imx-atf/2.10+git/git/build-optee/imx8mp/release/bl31/imx8m_psci_common.o
                0x0000000000976510                imx_pwr_domain_pwr_down_wfi
 .text.imx_gpc_pm_domain_enable
                0x0000000000976544      0x46c /home/mx3g/linux/mpu/nxp/frdm-imx8mp/tmp/work/imx8mpfrdm-poky-linux/imx-atf/2.10+git/git/build-optee/imx8mp/release/bl31/gpc.o
                0x0000000000976544                imx_gpc_pm_domain_enable
 .text.imx_noc_wrapper_pre_suspend
                0x00000000009769b0       0x58 /home/mx3g/linux/mpu/nxp/frdm-imx8mp/tmp/work/imx8mpfrdm-poky-linux/imx-atf/2.10+git/git/build-optee/imx8mp/release/bl31/gpc.o
                0x00000000009769b0                imx_noc_wrapper_pre_suspend
 .text.imx_noc_wrapper_post_resume
                0x0000000000976a08       0xac /home/mx3g/linux/mpu/nxp/frdm-imx8mp/tmp/work/imx8mpfrdm-poky-linux/imx-atf/2.10+git/git/build-optee/imx8mp/release/bl31/gpc.o
                0x0000000000976a08                imx_noc_wrapper_post_resume
 .text.imx_gpc_init
                0x0000000000976ab4      0x19c /home/mx3g/linux/mpu/nxp/frdm-imx8mp/tmp/work/imx8mpfrdm-poky-linux/imx-atf/2.10+git/git/build-optee/imx8mp/release/bl31/gpc.o
                0x0000000000976ab4                imx_gpc_init
 .text.bl31_early_platform_setup2
                0x0000000000976c50      0x14c /home/mx3g/linux/mpu/nxp/frdm-imx8mp/tmp/work/imx8mpfrdm-poky-linux/imx-atf/2.10+git/git/build-optee/imx8mp/release/bl31/imx8mp_bl31_setup.o
                0x0000000000976c50                bl31_early_platform_setup2
 .text.bl31_plat_arch_setup
                0x0000000000976d9c       0xb0 /home/mx3g/linux/mpu/nxp/frdm-imx8mp/tmp/work/imx8mpfrdm-poky-linux/imx-atf/2.10+git/git/build-optee/imx8mp/release/bl31/imx8mp_bl31_setup.o
                0x0000000000976d9c                bl31_plat_arch_setup
 .text.bl31_platform_setup
                0x0000000000976e4c       0x58 /home/mx3g/linux/mpu/nxp/frdm-imx8mp/tmp/work/imx8mpfrdm-poky-linux/imx-atf/2.10+git/git/build-optee/imx8mp/release/bl31/imx8mp_bl31_setup.o
                0x0000000000976e4c                bl31_platform_setup
 .text.bl31_plat_get_next_image_ep_info
                0x0000000000976ea4       0x28 /home/mx3g/linux/mpu/nxp/frdm-imx8mp/tmp/work/imx8mpfrdm-poky-linux/imx-atf/2.10+git/git/build-optee/imx8mp/release/bl31/imx8mp_bl31_setup.o
                0x0000000000976ea4                bl31_plat_get_next_image_ep_info
 .text.plat_get_syscnt_freq2
                0x0000000000976ecc        0xc /home/mx3g/linux/mpu/nxp/frdm-imx8mp/tmp/work/imx8mpfrdm-poky-linux/imx-atf/2.10+git/git/build-optee/imx8mp/release/bl31/imx8mp_bl31_setup.o
                0x0000000000976ecc                plat_get_syscnt_freq2
 .text.plat_setup_psci_ops
                0x0000000000976ed8       0x30 /home/mx3g/linux/mpu/nxp/frdm-imx8mp/tmp/work/imx8mpfrdm-poky-linux/imx-atf/2.10+git/git/build-optee/imx8mp/release/bl31/imx8mp_psci.o
                0x0000000000976ed8                plat_setup_psci_ops
 .text.imx_aipstz_init
                0x0000000000976f08       0x48 /home/mx3g/linux/mpu/nxp/frdm-imx8mp/tmp/work/imx8mpfrdm-poky-linux/imx-atf/2.10+git/git/build-optee/imx8mp/release/bl31/imx_aipstz.o
                0x0000000000976f08                imx_aipstz_init
 .text.imx_hab_handler
                0x0000000000976f50      0x108 /home/mx3g/linux/mpu/nxp/frdm-imx8mp/tmp/work/imx8mpfrdm-poky-linux/imx-atf/2.10+git/git/build-optee/imx8mp/release/bl31/imx_hab.o
                0x0000000000976f50                imx_hab_handler
 .text.imx_rdc_init
                0x0000000000977058       0x88 /home/mx3g/linux/mpu/nxp/frdm-imx8mp/tmp/work/imx8mpfrdm-poky-linux/imx-atf/2.10+git/git/build-optee/imx8mp/release/bl31/imx_rdc.o
                0x0000000000977058                imx_rdc_init
 .text.arm_arch_svc_smc_handler
                0x00000000009770e0      0x13c /home/mx3g/linux/mpu/nxp/frdm-imx8mp/tmp/work/imx8mpfrdm-poky-linux/imx-atf/2.10+git/git/build-optee/imx8mp/release/bl31/arm_arch_svc_setup.o
 .text.opteed_init_optee_ep_state
                0x000000000097721c       0xa8 /home/mx3g/linux/mpu/nxp/frdm-imx8mp/tmp/work/imx8mpfrdm-poky-linux/imx-atf/2.10+git/git/build-optee/imx8mp/release/bl31/opteed_common.o
                0x000000000097721c                opteed_init_optee_ep_state
 .text.opteed_synchronous_sp_entry
                0x00000000009772c4       0x30 /home/mx3g/linux/mpu/nxp/frdm-imx8mp/tmp/work/imx8mpfrdm-poky-linux/imx-atf/2.10+git/git/build-optee/imx8mp/release/bl31/opteed_common.o
                0x00000000009772c4                opteed_synchronous_sp_entry
 .text.opteed_synchronous_sp_exit
                0x00000000009772f4       0x28 /home/mx3g/linux/mpu/nxp/frdm-imx8mp/tmp/work/imx8mpfrdm-poky-linux/imx-atf/2.10+git/git/build-optee/imx8mp/release/bl31/opteed_common.o
                0x00000000009772f4                opteed_synchronous_sp_exit
 .text.opteed_sel1_interrupt_handler
                0x000000000097731c       0x74 /home/mx3g/linux/mpu/nxp/frdm-imx8mp/tmp/work/imx8mpfrdm-poky-linux/imx-atf/2.10+git/git/build-optee/imx8mp/release/bl31/opteed_main.o
 .text.opteed_smc_handler
                0x0000000000977390      0x21c /home/mx3g/linux/mpu/nxp/frdm-imx8mp/tmp/work/imx8mpfrdm-poky-linux/imx-atf/2.10+git/git/build-optee/imx8mp/release/bl31/opteed_main.o
 .text.opteed_setup
                0x00000000009775ac       0x78 /home/mx3g/linux/mpu/nxp/frdm-imx8mp/tmp/work/imx8mpfrdm-poky-linux/imx-atf/2.10+git/git/build-optee/imx8mp/release/bl31/opteed_main.o
 .text.opteed_init
                0x0000000000977624       0x48 /home/mx3g/linux/mpu/nxp/frdm-imx8mp/tmp/work/imx8mpfrdm-poky-linux/imx-atf/2.10+git/git/build-optee/imx8mp/release/bl31/opteed_main.o
 .text.opteed_cpu_on_handler
                0x000000000097766c        0x4 /home/mx3g/linux/mpu/nxp/frdm-imx8mp/tmp/work/imx8mpfrdm-poky-linux/imx-atf/2.10+git/git/build-optee/imx8mp/release/bl31/opteed_pm.o
 .text.opteed_cpu_migrate_info
                0x0000000000977670        0x8 /home/mx3g/linux/mpu/nxp/frdm-imx8mp/tmp/work/imx8mpfrdm-poky-linux/imx-atf/2.10+git/git/build-optee/imx8mp/release/bl31/opteed_pm.o
 .text.opteed_cpu_on_finish_handler
                0x0000000000977678       0xa0 /home/mx3g/linux/mpu/nxp/frdm-imx8mp/tmp/work/imx8mpfrdm-poky-linux/imx-atf/2.10+git/git/build-optee/imx8mp/release/bl31/opteed_pm.o
                0x0000000000977678                opteed_cpu_on_finish_handler
 .text.opteed_system_reset
                0x0000000000977718       0x68 /home/mx3g/linux/mpu/nxp/frdm-imx8mp/tmp/work/imx8mpfrdm-poky-linux/imx-atf/2.10+git/git/build-optee/imx8mp/release/bl31/opteed_pm.o
 .text.opteed_system_off
                0x0000000000977780       0x68 /home/mx3g/linux/mpu/nxp/frdm-imx8mp/tmp/work/imx8mpfrdm-poky-linux/imx-atf/2.10+git/git/build-optee/imx8mp/release/bl31/opteed_pm.o
 .text.opteed_cpu_off_handler
                0x00000000009777e8       0x88 /home/mx3g/linux/mpu/nxp/frdm-imx8mp/tmp/work/imx8mpfrdm-poky-linux/imx-atf/2.10+git/git/build-optee/imx8mp/release/bl31/opteed_pm.o
 .text.opteed_cpu_suspend_handler
                0x0000000000977870       0x94 /home/mx3g/linux/mpu/nxp/frdm-imx8mp/tmp/work/imx8mpfrdm-poky-linux/imx-atf/2.10+git/git/build-optee/imx8mp/release/bl31/opteed_pm.o
 .text.opteed_cpu_suspend_finish_handler
                0x0000000000977904       0x98 /home/mx3g/linux/mpu/nxp/frdm-imx8mp/tmp/work/imx8mpfrdm-poky-linux/imx-atf/2.10+git/git/build-optee/imx8mp/release/bl31/opteed_pm.o
 .text.std_svc_smc_handler
                0x000000000097799c       0xb8 /home/mx3g/linux/mpu/nxp/frdm-imx8mp/tmp/work/imx8mpfrdm-poky-linux/imx-atf/2.10+git/git/build-optee/imx8mp/release/bl31/std_svc_setup.o
 .text.std_svc_setup
                0x0000000000977a54       0x24 /home/mx3g/linux/mpu/nxp/frdm-imx8mp/tmp/work/imx8mpfrdm-poky-linux/imx-atf/2.10+git/git/build-optee/imx8mp/release/bl31/std_svc_setup.o
 .text.asm.report_unhandled_exception
                0x0000000000977a78        0x4 /home/mx3g/linux/mpu/nxp/frdm-imx8mp/tmp/work/imx8mpfrdm-poky-linux/imx-atf/2.10+git/git/build-optee/imx8mp/release/bl31/crash_reporting.o
                0x0000000000977a78                report_unhandled_exception
                0x0000000000977a78                report_unhandled_interrupt
 .text.asm.sync_exception_handler
                0x0000000000977a7c       0xe0 /home/mx3g/linux/mpu/nxp/frdm-imx8mp/tmp/work/imx8mpfrdm-poky-linux/imx-atf/2.10+git/git/build-optee/imx8mp/release/bl31/runtime_exceptions.o
 .text.asm.handle_interrupt_exception
                0x0000000000977b5c       0x54 /home/mx3g/linux/mpu/nxp/frdm-imx8mp/tmp/work/imx8mpfrdm-poky-linux/imx-atf/2.10+git/git/build-optee/imx8mp/release/bl31/runtime_exceptions.o
 .text.asm.imp_def_el3_handler
                0x0000000000977bb0       0x38 /home/mx3g/linux/mpu/nxp/frdm-imx8mp/tmp/work/imx8mpfrdm-poky-linux/imx-atf/2.10+git/git/build-optee/imx8mp/release/bl31/runtime_exceptions.o
 .text.asm.reflect_pending_async_ea_to_lower_el
                0x0000000000977be8       0x80 /home/mx3g/linux/mpu/nxp/frdm-imx8mp/tmp/work/imx8mpfrdm-poky-linux/imx-atf/2.10+git/git/build-optee/imx8mp/release/bl31/runtime_exceptions.o
 .text.asm.asm_print_str
                0x0000000000977c68       0x18 /home/mx3g/linux/mpu/nxp/frdm-imx8mp/tmp/work/imx8mpfrdm-poky-linux/imx-atf/2.10+git/git/build-optee/imx8mp/release/bl31/debug.o
                0x0000000000977c68                asm_print_str
 .text.asm.asm_print_hex
                0x0000000000977c80       0x30 /home/mx3g/linux/mpu/nxp/frdm-imx8mp/tmp/work/imx8mpfrdm-poky-linux/imx-atf/2.10+git/git/build-optee/imx8mp/release/bl31/debug.o
                0x0000000000977c80                asm_print_hex
                0x0000000000977c84                asm_print_hex_bits
 .text.asm.asm_print_newline
                0x0000000000977cb0        0x8 /home/mx3g/linux/mpu/nxp/frdm-imx8mp/tmp/work/imx8mpfrdm-poky-linux/imx-atf/2.10+git/git/build-optee/imx8mp/release/bl31/debug.o
                0x0000000000977cb0                asm_print_newline
 .text.asm.elx_panic
                0x0000000000977cb8        0x4 /home/mx3g/linux/mpu/nxp/frdm-imx8mp/tmp/work/imx8mpfrdm-poky-linux/imx-atf/2.10+git/git/build-optee/imx8mp/release/bl31/debug.o
                0x0000000000977cb8                elx_panic
 .text.asm.el3_panic
                0x0000000000977cbc       0x30 /home/mx3g/linux/mpu/nxp/frdm-imx8mp/tmp/work/imx8mpfrdm-poky-linux/imx-atf/2.10+git/git/build-optee/imx8mp/release/bl31/debug.o
                0x0000000000977cbc                el3_panic
 .text.asm.flush_dcache_range
                0x0000000000977cec       0x38 /home/mx3g/linux/mpu/nxp/frdm-imx8mp/tmp/work/imx8mpfrdm-poky-linux/imx-atf/2.10+git/git/build-optee/imx8mp/release/bl31/cache_helpers.o
                0x0000000000977cec                flush_dcache_range
 .text.asm.clean_dcache_range
                0x0000000000977d24       0x38 /home/mx3g/linux/mpu/nxp/frdm-imx8mp/tmp/work/imx8mpfrdm-poky-linux/imx-atf/2.10+git/git/build-optee/imx8mp/release/bl31/cache_helpers.o
                0x0000000000977d24                clean_dcache_range
 .text.asm.inv_dcache_range
                0x0000000000977d5c       0x38 /home/mx3g/linux/mpu/nxp/frdm-imx8mp/tmp/work/imx8mpfrdm-poky-linux/imx-atf/2.10+git/git/build-optee/imx8mp/release/bl31/cache_helpers.o
                0x0000000000977d5c                inv_dcache_range
 .text.asm.do_dcsw_op
                0x0000000000977d94       0xfc /home/mx3g/linux/mpu/nxp/frdm-imx8mp/tmp/work/imx8mpfrdm-poky-linux/imx-atf/2.10+git/git/build-optee/imx8mp/release/bl31/cache_helpers.o
 .text.asm.dcsw_op_all
                0x0000000000977e90       0x14 /home/mx3g/linux/mpu/nxp/frdm-imx8mp/tmp/work/imx8mpfrdm-poky-linux/imx-atf/2.10+git/git/build-optee/imx8mp/release/bl31/cache_helpers.o
                0x0000000000977e90                dcsw_op_all
 .text.asm.dcsw_op_level1
                0x0000000000977ea4       0x10 /home/mx3g/linux/mpu/nxp/frdm-imx8mp/tmp/work/imx8mpfrdm-poky-linux/imx-atf/2.10+git/git/build-optee/imx8mp/release/bl31/cache_helpers.o
                0x0000000000977ea4                dcsw_op_level1
 .text.asm.dcsw_op_level2
                0x0000000000977eb4       0x10 /home/mx3g/linux/mpu/nxp/frdm-imx8mp/tmp/work/imx8mpfrdm-poky-linux/imx-atf/2.10+git/git/build-optee/imx8mp/release/bl31/cache_helpers.o
                0x0000000000977eb4                dcsw_op_level2
 .text.asm.zeromem
                0x0000000000977ec4        0x8 /home/mx3g/linux/mpu/nxp/frdm-imx8mp/tmp/work/imx8mpfrdm-poky-linux/imx-atf/2.10+git/git/build-optee/imx8mp/release/bl31/misc_helpers.o
                0x0000000000977ec4                zeromem
 .text.asm.zeromem_dczva
                0x0000000000977ecc       0xe8 /home/mx3g/linux/mpu/nxp/frdm-imx8mp/tmp/work/imx8mpfrdm-poky-linux/imx-atf/2.10+git/git/build-optee/imx8mp/release/bl31/misc_helpers.o
                0x0000000000977ecc                zero_normalmem
 .text.asm.fixup_gdt_reloc
                0x0000000000977fb4       0x98 /home/mx3g/linux/mpu/nxp/frdm-imx8mp/tmp/work/imx8mpfrdm-poky-linux/imx-atf/2.10+git/git/build-optee/imx8mp/release/bl31/misc_helpers.o
                0x0000000000977fb4                fixup_gdt_reloc
 .text.asm.cortex_a53_disable_dcache
                0x000000000097804c       0x14 /home/mx3g/linux/mpu/nxp/frdm-imx8mp/tmp/work/imx8mpfrdm-poky-linux/imx-atf/2.10+git/git/build-optee/imx8mp/release/bl31/cortex_a53.o
 .text.asm.cortex_a53_disable_smp
                0x0000000000978060       0x18 /home/mx3g/linux/mpu/nxp/frdm-imx8mp/tmp/work/imx8mpfrdm-poky-linux/imx-atf/2.10+git/git/build-optee/imx8mp/release/bl31/cortex_a53.o
 .text.asm.check_erratum_cortex_a53_819472
                0x0000000000978078        0x8 /home/mx3g/linux/mpu/nxp/frdm-imx8mp/tmp/work/imx8mpfrdm-poky-linux/imx-atf/2.10+git/git/build-optee/imx8mp/release/bl31/cortex_a53.o
 .text.asm.check_erratum_cortex_a53_824069
                0x0000000000978080        0x8 /home/mx3g/linux/mpu/nxp/frdm-imx8mp/tmp/work/imx8mpfrdm-poky-linux/imx-atf/2.10+git/git/build-optee/imx8mp/release/bl31/cortex_a53.o
 .text.asm.check_erratum_cortex_a53_826319
                0x0000000000978088        0x8 /home/mx3g/linux/mpu/nxp/frdm-imx8mp/tmp/work/imx8mpfrdm-poky-linux/imx-atf/2.10+git/git/build-optee/imx8mp/release/bl31/cortex_a53.o
 .text.asm.check_erratum_cortex_a53_827319
                0x0000000000978090        0x8 /home/mx3g/linux/mpu/nxp/frdm-imx8mp/tmp/work/imx8mpfrdm-poky-linux/imx-atf/2.10+git/git/build-optee/imx8mp/release/bl31/cortex_a53.o
 .text.asm.check_erratum_cortex_a53_835769
                0x0000000000978098       0x24 /home/mx3g/linux/mpu/nxp/frdm-imx8mp/tmp/work/imx8mpfrdm-poky-linux/imx-atf/2.10+git/git/build-optee/imx8mp/release/bl31/cortex_a53.o
 .text.asm.check_erratum_cortex_a53_836870
                0x00000000009780bc        0x8 /home/mx3g/linux/mpu/nxp/frdm-imx8mp/tmp/work/imx8mpfrdm-poky-linux/imx-atf/2.10+git/git/build-optee/imx8mp/release/bl31/cortex_a53.o
 .text.asm.check_erratum_cortex_a53_843419
                0x00000000009780c4       0x24 /home/mx3g/linux/mpu/nxp/frdm-imx8mp/tmp/work/imx8mpfrdm-poky-linux/imx-atf/2.10+git/git/build-optee/imx8mp/release/bl31/cortex_a53.o
 .text.asm.erratum_cortex_a53_855873_wa
                0x00000000009780e8       0x20 /home/mx3g/linux/mpu/nxp/frdm-imx8mp/tmp/work/imx8mpfrdm-poky-linux/imx-atf/2.10+git/git/build-optee/imx8mp/release/bl31/cortex_a53.o
 .text.asm.check_erratum_cortex_a53_855873
                0x0000000000978108        0x8 /home/mx3g/linux/mpu/nxp/frdm-imx8mp/tmp/work/imx8mpfrdm-poky-linux/imx-atf/2.10+git/git/build-optee/imx8mp/release/bl31/cortex_a53.o
 .text.asm.check_erratum_cortex_a53_1530924
                0x0000000000978110        0x8 /home/mx3g/linux/mpu/nxp/frdm-imx8mp/tmp/work/imx8mpfrdm-poky-linux/imx-atf/2.10+git/git/build-optee/imx8mp/release/bl31/cortex_a53.o
 .text.asm.cortex_a53_reset_func
                0x0000000000978118       0x58 /home/mx3g/linux/mpu/nxp/frdm-imx8mp/tmp/work/imx8mpfrdm-poky-linux/imx-atf/2.10+git/git/build-optee/imx8mp/release/bl31/cortex_a53.o
 .text.asm.cortex_a53_core_pwr_dwn
                0x0000000000978170       0x18 /home/mx3g/linux/mpu/nxp/frdm-imx8mp/tmp/work/imx8mpfrdm-poky-linux/imx-atf/2.10+git/git/build-optee/imx8mp/release/bl31/cortex_a53.o
 .text.asm.cortex_a53_cluster_pwr_dwn
                0x0000000000978188       0x24 /home/mx3g/linux/mpu/nxp/frdm-imx8mp/tmp/work/imx8mpfrdm-poky-linux/imx-atf/2.10+git/git/build-optee/imx8mp/release/bl31/cortex_a53.o
 .text.asm.reset_handler
                0x00000000009781ac       0x20 /home/mx3g/linux/mpu/nxp/frdm-imx8mp/tmp/work/imx8mpfrdm-poky-linux/imx-atf/2.10+git/git/build-optee/imx8mp/release/bl31/cpu_helpers.o
                0x00000000009781ac                reset_handler
 .text.asm.prepare_cpu_pwr_dwn
                0x00000000009781cc       0x24 /home/mx3g/linux/mpu/nxp/frdm-imx8mp/tmp/work/imx8mpfrdm-poky-linux/imx-atf/2.10+git/git/build-optee/imx8mp/release/bl31/cpu_helpers.o
                0x00000000009781cc                prepare_cpu_pwr_dwn
 .text.asm.init_cpu_ops
                0x00000000009781f0       0x20 /home/mx3g/linux/mpu/nxp/frdm-imx8mp/tmp/work/imx8mpfrdm-poky-linux/imx-atf/2.10+git/git/build-optee/imx8mp/release/bl31/cpu_helpers.o
                0x00000000009781f0                init_cpu_ops
 .text.asm.get_cpu_ops_ptr
                0x0000000000978210       0x40 /home/mx3g/linux/mpu/nxp/frdm-imx8mp/tmp/work/imx8mpfrdm-poky-linux/imx-atf/2.10+git/git/build-optee/imx8mp/release/bl31/cpu_helpers.o
                0x0000000000978210                get_cpu_ops_ptr
 .text.asm.cpu_get_rev_var
                0x0000000000978250       0x10 /home/mx3g/linux/mpu/nxp/frdm-imx8mp/tmp/work/imx8mpfrdm-poky-linux/imx-atf/2.10+git/git/build-optee/imx8mp/release/bl31/cpu_helpers.o
                0x0000000000978250                cpu_get_rev_var
 .text.asm.cpu_rev_var_ls
                0x0000000000978260       0x14 /home/mx3g/linux/mpu/nxp/frdm-imx8mp/tmp/work/imx8mpfrdm-poky-linux/imx-atf/2.10+git/git/build-optee/imx8mp/release/bl31/cpu_helpers.o
                0x0000000000978260                cpu_rev_var_ls
 .text.asm.cpu_rev_var_hs
                0x0000000000978274       0x14 /home/mx3g/linux/mpu/nxp/frdm-imx8mp/tmp/work/imx8mpfrdm-poky-linux/imx-atf/2.10+git/git/build-optee/imx8mp/release/bl31/cpu_helpers.o
                0x0000000000978274                cpu_rev_var_hs
 .text.asm.check_wa_cve_2017_5715
                0x0000000000978288       0x20 /home/mx3g/linux/mpu/nxp/frdm-imx8mp/tmp/work/imx8mpfrdm-poky-linux/imx-atf/2.10+git/git/build-optee/imx8mp/release/bl31/cpu_helpers.o
                0x0000000000978288                check_wa_cve_2017_5715
 .text.asm.check_smccc_arch_wa3_applies
                0x00000000009782a8       0x20 /home/mx3g/linux/mpu/nxp/frdm-imx8mp/tmp/work/imx8mpfrdm-poky-linux/imx-atf/2.10+git/git/build-optee/imx8mp/release/bl31/cpu_helpers.o
                0x00000000009782a8                check_smccc_arch_wa3_applies
 .text.asm.el1_sysregs_context_save
                0x00000000009782c8       0xac /home/mx3g/linux/mpu/nxp/frdm-imx8mp/tmp/work/imx8mpfrdm-poky-linux/imx-atf/2.10+git/git/build-optee/imx8mp/release/bl31/context.o
                0x00000000009782c8                el1_sysregs_context_save
 .text.asm.el1_sysregs_context_restore
                0x0000000000978374       0xac /home/mx3g/linux/mpu/nxp/frdm-imx8mp/tmp/work/imx8mpfrdm-poky-linux/imx-atf/2.10+git/git/build-optee/imx8mp/release/bl31/context.o
                0x0000000000978374                el1_sysregs_context_restore
 .text.asm.prepare_el3_entry
                0x0000000000978420       0x68 /home/mx3g/linux/mpu/nxp/frdm-imx8mp/tmp/work/imx8mpfrdm-poky-linux/imx-atf/2.10+git/git/build-optee/imx8mp/release/bl31/context.o
                0x0000000000978420                prepare_el3_entry
 .text.asm.restore_gp_pmcr_pauth_regs
                0x0000000000978488       0x50 /home/mx3g/linux/mpu/nxp/frdm-imx8mp/tmp/work/imx8mpfrdm-poky-linux/imx-atf/2.10+git/git/build-optee/imx8mp/release/bl31/context.o
                0x0000000000978488                restore_gp_pmcr_pauth_regs
 .text.asm.el3_exit
                0x00000000009784d8       0xb4 /home/mx3g/linux/mpu/nxp/frdm-imx8mp/tmp/work/imx8mpfrdm-poky-linux/imx-atf/2.10+git/git/build-optee/imx8mp/release/bl31/context.o
                0x00000000009784d8                el3_exit
 .text.asm.init_cpu_data_ptr
                0x000000000097858c       0x14 /home/mx3g/linux/mpu/nxp/frdm-imx8mp/tmp/work/imx8mpfrdm-poky-linux/imx-atf/2.10+git/git/build-optee/imx8mp/release/bl31/cpu_data.o
                0x000000000097858c                init_cpu_data_ptr
 .text.asm._cpu_data_by_index
                0x00000000009785a0       0x18 /home/mx3g/linux/mpu/nxp/frdm-imx8mp/tmp/work/imx8mpfrdm-poky-linux/imx-atf/2.10+git/git/build-optee/imx8mp/release/bl31/cpu_data.o
                0x00000000009785a0                _cpu_data_by_index
 .text.asm.spin_lock
                0x00000000009785b8       0x20 /home/mx3g/linux/mpu/nxp/frdm-imx8mp/tmp/work/imx8mpfrdm-poky-linux/imx-atf/2.10+git/git/build-optee/imx8mp/release/bl31/spinlock.o
                0x00000000009785b8                spin_lock
 .text.asm.spin_unlock
                0x00000000009785d8        0x8 /home/mx3g/linux/mpu/nxp/frdm-imx8mp/tmp/work/imx8mpfrdm-poky-linux/imx-atf/2.10+git/git/build-optee/imx8mp/release/bl31/spinlock.o
                0x00000000009785d8                spin_unlock
 .text.asm.psci_do_pwrdown_cache_maintenance
                0x00000000009785e0       0x3c /home/mx3g/linux/mpu/nxp/frdm-imx8mp/tmp/work/imx8mpfrdm-poky-linux/imx-atf/2.10+git/git/build-optee/imx8mp/release/bl31/psci_helpers.o
                0x00000000009785e0                psci_do_pwrdown_cache_maintenance
 .text.asm.psci_do_pwrup_cache_maintenance
                0x000000000097861c       0x34 /home/mx3g/linux/mpu/nxp/frdm-imx8mp/tmp/work/imx8mpfrdm-poky-linux/imx-atf/2.10+git/git/build-optee/imx8mp/release/bl31/psci_helpers.o
                0x000000000097861c                psci_do_pwrup_cache_maintenance
 .text.asm.psci_power_down_wfi
                0x0000000000978650        0xc /home/mx3g/linux/mpu/nxp/frdm-imx8mp/tmp/work/imx8mpfrdm-poky-linux/imx-atf/2.10+git/git/build-optee/imx8mp/release/bl31/psci_helpers.o
                0x0000000000978650                psci_power_down_wfi
 .text.asm.enable_mmu_direct_el3
                0x000000000097865c       0x58 /home/mx3g/linux/mpu/nxp/frdm-imx8mp/tmp/work/imx8mpfrdm-poky-linux/imx-atf/2.10+git/git/build-optee/imx8mp/release/bl31/enable_mmu.o
                0x000000000097865c                enable_mmu_direct_el3
 .text.asm.plat_disable_acp
                0x00000000009786b4        0x4 /home/mx3g/linux/mpu/nxp/frdm-imx8mp/tmp/work/imx8mpfrdm-poky-linux/imx-atf/2.10+git/git/build-optee/imx8mp/release/bl31/platform_helpers.o
                0x00000000009786b4                plat_disable_acp
 .text.asm.plat_panic_handler
                0x00000000009786b8        0x8 /home/mx3g/linux/mpu/nxp/frdm-imx8mp/tmp/work/imx8mpfrdm-poky-linux/imx-atf/2.10+git/git/build-optee/imx8mp/release/bl31/platform_helpers.o
                0x00000000009786b8                plat_panic_handler
 .text.asm.bl31_plat_enable_mmu
                0x00000000009786c0        0x4 /home/mx3g/linux/mpu/nxp/frdm-imx8mp/tmp/work/imx8mpfrdm-poky-linux/imx-atf/2.10+git/git/build-optee/imx8mp/release/bl31/platform_helpers.o
                0x00000000009786c0                bl31_plat_enable_mmu
 .text.asm.plat_handle_el3_ea
                0x00000000009786c4        0x4 /home/mx3g/linux/mpu/nxp/frdm-imx8mp/tmp/work/imx8mpfrdm-poky-linux/imx-atf/2.10+git/git/build-optee/imx8mp/release/bl31/platform_helpers.o
                0x00000000009786c4                plat_handle_el3_ea
 .text.asm.plat_get_my_stack
                0x00000000009786c8       0x1c /home/mx3g/linux/mpu/nxp/frdm-imx8mp/tmp/work/imx8mpfrdm-poky-linux/imx-atf/2.10+git/git/build-optee/imx8mp/release/bl31/platform_mp_stack.o
                0x00000000009786c8                plat_get_my_stack
 .text.asm.plat_set_my_stack
                0x00000000009786e4       0x10 /home/mx3g/linux/mpu/nxp/frdm-imx8mp/tmp/work/imx8mpfrdm-poky-linux/imx-atf/2.10+git/git/build-optee/imx8mp/release/bl31/platform_mp_stack.o
                0x00000000009786e4                plat_set_my_stack
 .text.asm.plat_is_my_cpu_primary
                0x00000000009786f4       0x14 /home/mx3g/linux/mpu/nxp/frdm-imx8mp/tmp/work/imx8mpfrdm-poky-linux/imx-atf/2.10+git/git/build-optee/imx8mp/release/bl31/imx8_helpers.o
                0x00000000009786f4                plat_is_my_cpu_primary
 .text.asm.plat_my_core_pos
                0x0000000000978708       0x14 /home/mx3g/linux/mpu/nxp/frdm-imx8mp/tmp/work/imx8mpfrdm-poky-linux/imx-atf/2.10+git/git/build-optee/imx8mp/release/bl31/imx8_helpers.o
                0x0000000000978708                plat_my_core_pos
 .text.asm.plat_reset_handler
                0x000000000097871c       0x38 /home/mx3g/linux/mpu/nxp/frdm-imx8mp/tmp/work/imx8mpfrdm-poky-linux/imx-atf/2.10+git/git/build-optee/imx8mp/release/bl31/imx8_helpers.o
                0x000000000097871c                plat_reset_handler
 .text.asm.plat_get_my_entrypoint
                0x0000000000978754        0xc /home/mx3g/linux/mpu/nxp/frdm-imx8mp/tmp/work/imx8mpfrdm-poky-linux/imx-atf/2.10+git/git/build-optee/imx8mp/release/bl31/imx8_helpers.o
                0x0000000000978754                plat_get_my_entrypoint
 .text.asm.imx_mailbox_init
                0x0000000000978760        0xc /home/mx3g/linux/mpu/nxp/frdm-imx8mp/tmp/work/imx8mpfrdm-poky-linux/imx-atf/2.10+git/git/build-optee/imx8mp/release/bl31/imx8_helpers.o
                0x0000000000978760                imx_mailbox_init
 .text.asm.plat_secondary_cold_boot_setup
                0x000000000097876c        0x4 /home/mx3g/linux/mpu/nxp/frdm-imx8mp/tmp/work/imx8mpfrdm-poky-linux/imx-atf/2.10+git/git/build-optee/imx8mp/release/bl31/imx8_helpers.o
                0x000000000097876c                plat_secondary_cold_boot_setup
 .text.asm.plat_crash_console_init
                0x0000000000978770        0x8 /home/mx3g/linux/mpu/nxp/frdm-imx8mp/tmp/work/imx8mpfrdm-poky-linux/imx-atf/2.10+git/git/build-optee/imx8mp/release/bl31/imx8_helpers.o
                0x0000000000978770                plat_crash_console_init
 .text.asm.plat_crash_console_putc
                0x0000000000978778        0x4 /home/mx3g/linux/mpu/nxp/frdm-imx8mp/tmp/work/imx8mpfrdm-poky-linux/imx-atf/2.10+git/git/build-optee/imx8mp/release/bl31/imx8_helpers.o
                0x0000000000978778                plat_crash_console_putc
 .text.asm.plat_crash_console_flush
                0x000000000097877c        0x8 /home/mx3g/linux/mpu/nxp/frdm-imx8mp/tmp/work/imx8mpfrdm-poky-linux/imx-atf/2.10+git/git/build-optee/imx8mp/release/bl31/imx8_helpers.o
                0x000000000097877c                plat_crash_console_flush
 .text.asm.platform_mem_init
                0x0000000000978784        0x4 /home/mx3g/linux/mpu/nxp/frdm-imx8mp/tmp/work/imx8mpfrdm-poky-linux/imx-atf/2.10+git/git/build-optee/imx8mp/release/bl31/imx8_helpers.o
                0x0000000000978784                platform_mem_init
 .text.asm.console_imx_uart_register
                0x0000000000978788       0x48 /home/mx3g/linux/mpu/nxp/frdm-imx8mp/tmp/work/imx8mpfrdm-poky-linux/imx-atf/2.10+git/git/build-optee/imx8mp/release/bl31/imx_uart_console.o
                0x0000000000978788                console_imx_uart_register
 .text.asm.console_imx_uart_init
                0x00000000009787d0       0x38 /home/mx3g/linux/mpu/nxp/frdm-imx8mp/tmp/work/imx8mpfrdm-poky-linux/imx-atf/2.10+git/git/build-optee/imx8mp/release/bl31/imx_uart_console.o
                0x00000000009787d0                console_imx_uart_init
 .text.asm.console_imx_uart_putc
                0x0000000000978808       0x38 /home/mx3g/linux/mpu/nxp/frdm-imx8mp/tmp/work/imx8mpfrdm-poky-linux/imx-atf/2.10+git/git/build-optee/imx8mp/release/bl31/imx_uart_console.o
                0x0000000000978808                console_imx_uart_putc
 .text.asm.console_imx_uart_flush
                0x0000000000978840       0x14 /home/mx3g/linux/mpu/nxp/frdm-imx8mp/tmp/work/imx8mpfrdm-poky-linux/imx-atf/2.10+git/git/build-optee/imx8mp/release/bl31/imx_uart_console.o
                0x0000000000978840                console_imx_uart_flush
 .text.asm.opteed_enter_sp
                0x0000000000978854       0x28 /home/mx3g/linux/mpu/nxp/frdm-imx8mp/tmp/work/imx8mpfrdm-poky-linux/imx-atf/2.10+git/git/build-optee/imx8mp/release/bl31/opteed_helpers.o
                0x0000000000978854                opteed_enter_sp
 .text.asm.opteed_exit_sp
                0x000000000097887c       0x24 /home/mx3g/linux/mpu/nxp/frdm-imx8mp/tmp/work/imx8mpfrdm-poky-linux/imx-atf/2.10+git/git/build-optee/imx8mp/release/bl31/opteed_helpers.o
                0x000000000097887c                opteed_exit_sp
 .text.memcmp   0x00000000009788a0       0x34 /home/mx3g/linux/mpu/nxp/frdm-imx8mp/tmp/work/imx8mpfrdm-poky-linux/imx-atf/2.10+git/git/build-optee/imx8mp/release/lib/libc.a(memcmp.o)
                0x00000000009788a0                memcmp
 .text.memcpy   0x00000000009788d4       0x20 /home/mx3g/linux/mpu/nxp/frdm-imx8mp/tmp/work/imx8mpfrdm-poky-linux/imx-atf/2.10+git/git/build-optee/imx8mp/release/lib/libc.a(memcpy.o)
                0x00000000009788d4                memcpy
 .text.memmove  0x00000000009788f4       0x34 /home/mx3g/linux/mpu/nxp/frdm-imx8mp/tmp/work/imx8mpfrdm-poky-linux/imx-atf/2.10+git/git/build-optee/imx8mp/release/lib/libc.a(memmove.o)
                0x00000000009788f4                memmove
 .text.memset   0x0000000000978928       0x74 /home/mx3g/linux/mpu/nxp/frdm-imx8mp/tmp/work/imx8mpfrdm-poky-linux/imx-atf/2.10+git/git/build-optee/imx8mp/release/lib/libc.a(memset.o)
                0x0000000000978928                memset
 .text.unsigned_num_print.part.0
                0x000000000097899c       0xf4 /home/mx3g/linux/mpu/nxp/frdm-imx8mp/tmp/work/imx8mpfrdm-poky-linux/imx-atf/2.10+git/git/build-optee/imx8mp/release/lib/libc.a(printf.o)
 .text.vprintf  0x0000000000978a90      0x464 /home/mx3g/linux/mpu/nxp/frdm-imx8mp/tmp/work/imx8mpfrdm-poky-linux/imx-atf/2.10+git/git/build-optee/imx8mp/release/lib/libc.a(printf.o)
                0x0000000000978a90                vprintf
 .text.strchr   0x0000000000978ef4       0x24 /home/mx3g/linux/mpu/nxp/frdm-imx8mp/tmp/work/imx8mpfrdm-poky-linux/imx-atf/2.10+git/git/build-optee/imx8mp/release/lib/libc.a(strchr.o)
                0x0000000000978ef4                strchr
 .text.strlen   0x0000000000978f18       0x1c /home/mx3g/linux/mpu/nxp/frdm-imx8mp/tmp/work/imx8mpfrdm-poky-linux/imx-atf/2.10+git/git/build-optee/imx8mp/release/lib/libc.a(strlen.o)
                0x0000000000978f18                strlen
 *(SORT_BY_ALIGNMENT(.rodata*))
 *fill*         0x0000000000978f34        0x4 
 .rodata.aipstz
                0x0000000000978f38       0xc8 /home/mx3g/linux/mpu/nxp/frdm-imx8mp/tmp/work/imx8mpfrdm-poky-linux/imx-atf/2.10+git/git/build-optee/imx8mp/release/bl31/imx8mp_bl31_setup.o
 .rodata.imx_mmap
                0x0000000000979000      0x1e0 /home/mx3g/linux/mpu/nxp/frdm-imx8mp/tmp/work/imx8mpfrdm-poky-linux/imx-atf/2.10+git/git/build-optee/imx8mp/release/bl31/imx8mp_bl31_setup.o
 .rodata.errata_entries
                0x00000000009791e0       0xd8 /home/mx3g/linux/mpu/nxp/frdm-imx8mp/tmp/work/imx8mpfrdm-poky-linux/imx-atf/2.10+git/git/build-optee/imx8mp/release/bl31/cortex_a53.o
 .rodata.psci_smc_handler
                0x00000000009792b8       0x2c /home/mx3g/linux/mpu/nxp/frdm-imx8mp/tmp/work/imx8mpfrdm-poky-linux/imx-atf/2.10+git/git/build-optee/imx8mp/release/bl31/psci_main.o
 .rodata.g01s_interrupt_props
                0x00000000009792e4        0x4 /home/mx3g/linux/mpu/nxp/frdm-imx8mp/tmp/work/imx8mpfrdm-poky-linux/imx-atf/2.10+git/git/build-optee/imx8mp/release/bl31/plat_imx8_gic.o
 .rodata.fsp_init_reg
                0x00000000009792e8       0x30 /home/mx3g/linux/mpu/nxp/frdm-imx8mp/tmp/work/imx8mpfrdm-poky-linux/imx-atf/2.10+git/git/build-optee/imx8mp/release/bl31/dram.o
 .rodata.gpc_imr_offset
                0x0000000000979318       0x10 /home/mx3g/linux/mpu/nxp/frdm-imx8mp/tmp/work/imx8mpfrdm-poky-linux/imx-atf/2.10+git/git/build-optee/imx8mp/release/bl31/gpc_common.o
 .rodata.noc_setting
                0x0000000000979328      0x120 /home/mx3g/linux/mpu/nxp/frdm-imx8mp/tmp/work/imx8mpfrdm-poky-linux/imx-atf/2.10+git/git/build-optee/imx8mp/release/bl31/gpc.o
 .rodata.pu_domains
                0x0000000000979448      0x190 /home/mx3g/linux/mpu/nxp/frdm-imx8mp/tmp/work/imx8mpfrdm-poky-linux/imx-atf/2.10+git/git/build-optee/imx8mp/release/bl31/gpc.o
 .rodata.csu_cfg
                0x00000000009795d8       0x18 /home/mx3g/linux/mpu/nxp/frdm-imx8mp/tmp/work/imx8mpfrdm-poky-linux/imx-atf/2.10+git/git/build-optee/imx8mp/release/bl31/imx8mp_bl31_setup.o
 .rodata.rdc    0x00000000009795f0       0x64 /home/mx3g/linux/mpu/nxp/frdm-imx8mp/tmp/work/imx8mpfrdm-poky-linux/imx-atf/2.10+git/git/build-optee/imx8mp/release/bl31/imx8mp_bl31_setup.o
 .rodata.imx_hab_handler
                0x0000000000979654        0x9 /home/mx3g/linux/mpu/nxp/frdm-imx8mp/tmp/work/imx8mpfrdm-poky-linux/imx-atf/2.10+git/git/build-optee/imx8mp/release/bl31/imx_hab.o
 *fill*         0x000000000097965d        0x3 
 .rodata.vprintf
                0x0000000000979660       0x30 /home/mx3g/linux/mpu/nxp/frdm-imx8mp/tmp/work/imx8mpfrdm-poky-linux/imx-atf/2.10+git/git/build-optee/imx8mp/release/lib/libc.a(printf.o)
 .rodata.version_string
                0x0000000000979690       0x2a /home/mx3g/linux/mpu/nxp/frdm-imx8mp/tmp/work/imx8mpfrdm-poky-linux/imx-atf/2.10+git/git/build-optee/imx8mp/release/bl31/build_message.o
                0x0000000000979690                version_string
 .rodata.build_message
                0x00000000009796ba       0x1e /home/mx3g/linux/mpu/nxp/frdm-imx8mp/tmp/work/imx8mpfrdm-poky-linux/imx-atf/2.10+git/git/build-optee/imx8mp/release/bl31/build_message.o
                0x00000000009796ba                build_message
 .rodata.bl31_prepare_next_image_entry.str1.1
                0x00000000009796d8      0x23c /home/mx3g/linux/mpu/nxp/frdm-imx8mp/tmp/work/imx8mpfrdm-poky-linux/imx-atf/2.10+git/git/build-optee/imx8mp/release/bl31/bl31_main.o
                                         0x50 (size before relaxing)
 .rodata.bl31_main.str1.1
                0x0000000000979914        0xb /home/mx3g/linux/mpu/nxp/frdm-imx8mp/tmp/work/imx8mpfrdm-poky-linux/imx-atf/2.10+git/git/build-optee/imx8mp/release/bl31/bl31_main.o
 .rodata.runtime_svc_init.str1.1
                0x0000000000979914       0x50 /home/mx3g/linux/mpu/nxp/frdm-imx8mp/tmp/work/imx8mpfrdm-poky-linux/imx-atf/2.10+git/git/build-optee/imx8mp/release/bl31/runtime_svc.o
 .rodata.cm_setup_context.str1.1
                0x0000000000979914       0x19 /home/mx3g/linux/mpu/nxp/frdm-imx8mp/tmp/work/imx8mpfrdm-poky-linux/imx-atf/2.10+git/git/build-optee/imx8mp/release/bl31/context_mgmt.o
 .rodata.psci_warmboot_entrypoint.str1.1
                0x0000000000979914       0x22 /home/mx3g/linux/mpu/nxp/frdm-imx8mp/tmp/work/imx8mpfrdm-poky-linux/imx-atf/2.10+git/git/build-optee/imx8mp/release/bl31/psci_common.o
 .rodata.psci_cpu_suspend.str1.1
                0x0000000000979914       0x33 /home/mx3g/linux/mpu/nxp/frdm-imx8mp/tmp/work/imx8mpfrdm-poky-linux/imx-atf/2.10+git/git/build-optee/imx8mp/release/bl31/psci_main.o
 .rodata.mmap_add_region_ctx.str1.1
                0x0000000000979914       0x2b /home/mx3g/linux/mpu/nxp/frdm-imx8mp/tmp/work/imx8mpfrdm-poky-linux/imx-atf/2.10+git/git/build-optee/imx8mp/release/bl31/xlat_tables_core.o
 .rodata.init_xlat_tables_ctx.str1.1
                0x0000000000979914       0x4f /home/mx3g/linux/mpu/nxp/frdm-imx8mp/tmp/work/imx8mpfrdm-poky-linux/imx-atf/2.10+git/git/build-optee/imx8mp/release/bl31/xlat_tables_core.o
 .rodata.CSWTCH.13
                0x0000000000979914        0x4 /home/mx3g/linux/mpu/nxp/frdm-imx8mp/tmp/work/imx8mpfrdm-poky-linux/imx-atf/2.10+git/git/build-optee/imx8mp/release/bl31/plat_gicv3.o
 .rodata.str1.1
                0x0000000000979918       0x32 /home/mx3g/linux/mpu/nxp/frdm-imx8mp/tmp/work/imx8mpfrdm-poky-linux/imx-atf/2.10+git/git/build-optee/imx8mp/release/bl31/plat_log_common.o
 .rodata.imx_power_domain_tree_desc
                0x0000000000979918        0x4 /home/mx3g/linux/mpu/nxp/frdm-imx8mp/tmp/work/imx8mpfrdm-poky-linux/imx-atf/2.10+git/git/build-optee/imx8mp/release/bl31/imx8_topology.o
                0x0000000000979918                imx_power_domain_tree_desc
 .rodata.str1.1
                0x000000000097991c        0xc /home/mx3g/linux/mpu/nxp/frdm-imx8mp/tmp/work/imx8mpfrdm-poky-linux/imx-atf/2.10+git/git/build-optee/imx8mp/release/bl31/imx_sip_svc.o
 .rodata.imx_src_handler.str1.1
                0x000000000097991c        0x8 /home/mx3g/linux/mpu/nxp/frdm-imx8mp/tmp/work/imx8mpfrdm-poky-linux/imx-atf/2.10+git/git/build-optee/imx8mp/release/bl31/gpc_common.o
 .rodata.imx8m_caam_init.str1.1
                0x000000000097991c       0x34 /home/mx3g/linux/mpu/nxp/frdm-imx8mp/tmp/work/imx8mpfrdm-poky-linux/imx-atf/2.10+git/git/build-optee/imx8mp/release/bl31/imx8m_caam.o
 .rodata.str1.1
                0x000000000097991c        0xd /home/mx3g/linux/mpu/nxp/frdm-imx8mp/tmp/work/imx8mpfrdm-poky-linux/imx-atf/2.10+git/git/build-optee/imx8mp/release/bl31/arm_arch_svc_setup.o
 .rodata.str1.1
                0x000000000097991c       0x17 /home/mx3g/linux/mpu/nxp/frdm-imx8mp/tmp/work/imx8mpfrdm-poky-linux/imx-atf/2.10+git/git/build-optee/imx8mp/release/bl31/opteed_main.o
 .rodata.str1.1
                0x000000000097991c        0x8 /home/mx3g/linux/mpu/nxp/frdm-imx8mp/tmp/work/imx8mpfrdm-poky-linux/imx-atf/2.10+git/git/build-optee/imx8mp/release/bl31/std_svc_setup.o
 .rodata.panic_str
                0x000000000097991c       0x11 /home/mx3g/linux/mpu/nxp/frdm-imx8mp/tmp/work/imx8mpfrdm-poky-linux/imx-atf/2.10+git/git/build-optee/imx8mp/release/bl31/debug.o
 .rodata.vprintf.str1.1
                0x000000000097992d        0x3 /home/mx3g/linux/mpu/nxp/frdm-imx8mp/tmp/work/imx8mpfrdm-poky-linux/imx-atf/2.10+git/git/build-optee/imx8mp/release/lib/libc.a(printf.o)
                0x0000000000979968                . = ALIGN (0x8)
 *fill*         0x000000000097992d        0x3 
                0x0000000000979930                __RT_SVC_DESCS_START__ = .
 *(SORT_BY_ALIGNMENT(.rt_svc_descs))
 .rt_svc_descs  0x0000000000979930       0x20 /home/mx3g/linux/mpu/nxp/frdm-imx8mp/tmp/work/imx8mpfrdm-poky-linux/imx-atf/2.10+git/git/build-optee/imx8mp/release/bl31/imx_sip_svc.o
 .rt_svc_descs  0x0000000000979950       0x20 /home/mx3g/linux/mpu/nxp/frdm-imx8mp/tmp/work/imx8mpfrdm-poky-linux/imx-atf/2.10+git/git/build-optee/imx8mp/release/bl31/arm_arch_svc_setup.o
 .rt_svc_descs  0x0000000000979970       0x40 /home/mx3g/linux/mpu/nxp/frdm-imx8mp/tmp/work/imx8mpfrdm-poky-linux/imx-atf/2.10+git/git/build-optee/imx8mp/release/bl31/opteed_main.o
 .rt_svc_descs  0x00000000009799b0       0x20 /home/mx3g/linux/mpu/nxp/frdm-imx8mp/tmp/work/imx8mpfrdm-poky-linux/imx-atf/2.10+git/git/build-optee/imx8mp/release/bl31/std_svc_setup.o
                0x00000000009799d0                __RT_SVC_DESCS_END__ = .
                0x00000000009799d0                . = ALIGN (0x8)
                0x00000000009799d0                __FCONF_POPULATOR_START__ = .
 *(SORT_BY_ALIGNMENT(.fconf_populator))
                0x00000000009799d0                __FCONF_POPULATOR_END__ = .
                0x00000000009799d0                . = ALIGN (0x8)
                0x00000000009799d0                __PMF_SVC_DESCS_START__ = .
 *(SORT_BY_ALIGNMENT(.pmf_svc_descs))
                0x00000000009799d0                __PMF_SVC_DESCS_END__ = .
                0x00000000009799d0                . = ALIGN (0x8)
                0x00000000009799d0                __PARSER_LIB_DESCS_START__ = .
 *(SORT_BY_ALIGNMENT(.img_parser_lib_descs))
                0x00000000009799d0                __PARSER_LIB_DESCS_END__ = .
                0x00000000009799d0                . = ALIGN (0x8)
                0x00000000009799d0                __CPU_OPS_START__ = .
 *(SORT_BY_ALIGNMENT(.cpu_ops))
 .cpu_ops       0x00000000009799d0       0x50 /home/mx3g/linux/mpu/nxp/frdm-imx8mp/tmp/work/imx8mpfrdm-poky-linux/imx-atf/2.10+git/git/build-optee/imx8mp/release/bl31/cortex_a53.o
                0x0000000000979a20                __CPU_OPS_END__ = .
                0x0000000000979a20                . = ALIGN (0x8)
                0x0000000000979a20                __GOT_START__ = .
 *(SORT_BY_ALIGNMENT(.got))
 .got           0x0000000000979a20      0x128 /home/mx3g/linux/mpu/nxp/frdm-imx8mp/tmp/work/imx8mpfrdm-poky-linux/imx-atf/2.10+git/git/build-optee/imx8mp/release/bl31/build_message.o
                0x0000000000979a20                _GLOBAL_OFFSET_TABLE_
                0x0000000000979b48                __GOT_END__ = .
                0x0000000000979b48                . = ALIGN (0x8)
                0x0000000000979b48                __pubsub_psci_cpu_on_finish_start = .
 *(SORT_BY_ALIGNMENT(.__pubsub_psci_cpu_on_finish))
                0x0000000000979b48                __pubsub_psci_cpu_on_finish_end = .
                0x0000000000979b48                __pubsub_psci_suspend_pwrdown_start_start = .
 *(SORT_BY_ALIGNMENT(.__pubsub_psci_suspend_pwrdown_start))
                0x0000000000979b48                __pubsub_psci_suspend_pwrdown_start_end = .
                0x0000000000979b48                __pubsub_psci_suspend_pwrdown_finish_start = .
 *(SORT_BY_ALIGNMENT(.__pubsub_psci_suspend_pwrdown_finish))
                0x0000000000979b48                __pubsub_psci_suspend_pwrdown_finish_end = .
                0x0000000000979b48                __pubsub_cm_entering_secure_world_start = .
 *(SORT_BY_ALIGNMENT(.__pubsub_cm_entering_secure_world))
 .__pubsub_cm_entering_secure_world
                0x0000000000979b48        0x8 /home/mx3g/linux/mpu/nxp/frdm-imx8mp/tmp/work/imx8mpfrdm-poky-linux/imx-atf/2.10+git/git/build-optee/imx8mp/release/bl31/spe.o
                0x0000000000979b48                __cb_func_spe_drain_buffers_hookcm_entering_secure_world
                0x0000000000979b50                __pubsub_cm_entering_secure_world_end = .
                0x0000000000979b50                __pubsub_cm_exited_secure_world_start = .
 *(SORT_BY_ALIGNMENT(.__pubsub_cm_exited_secure_world))
                0x0000000000979b50                __pubsub_cm_exited_secure_world_end = .
                0x0000000000979b50                __pubsub_cm_entering_normal_world_start = .
 *(SORT_BY_ALIGNMENT(.__pubsub_cm_entering_normal_world))
                0x0000000000979b50                __pubsub_cm_entering_normal_world_end = .
                0x0000000000979b50                __pubsub_cm_exited_normal_world_start = .
 *(SORT_BY_ALIGNMENT(.__pubsub_cm_exited_normal_world))
                0x0000000000979b50                __pubsub_cm_exited_normal_world_end = .
 *(SORT_BY_ALIGNMENT(.vectors))
 *fill*         0x0000000000979b50      0x4b0 
 .vectors       0x000000000097a000      0x800 /home/mx3g/linux/mpu/nxp/frdm-imx8mp/tmp/work/imx8mpfrdm-poky-linux/imx-atf/2.10+git/git/build-optee/imx8mp/release/bl31/runtime_exceptions.o
                0x000000000097a000                sync_exception_sp_el0
                0x000000000097a000                runtime_exceptions
                0x000000000097a080                irq_sp_el0
                0x000000000097a100                fiq_sp_el0
                0x000000000097a180                serror_sp_el0
                0x000000000097a200                sync_exception_sp_elx
                0x000000000097a280                irq_sp_elx
                0x000000000097a300                fiq_sp_elx
                0x000000000097a380                serror_sp_elx
                0x000000000097a400                sync_exception_aarch64
                0x000000000097a480                irq_aarch64
                0x000000000097a500                fiq_aarch64
                0x000000000097a580                serror_aarch64
                0x000000000097a600                sync_exception_aarch32
                0x000000000097a680                irq_aarch32
                0x000000000097a700                fiq_aarch32
                0x000000000097a780                serror_aarch32
                0x000000000097a800                __RO_END_UNALIGNED__ = .
                0x000000000097b000                . = ALIGN (0x1000)
 *fill*         0x000000000097a800      0x800 
                0x000000000097b000                __RO_END__ = .
                0x0000000000000001                ASSERT ((__CPU_OPS_END__ > __CPU_OPS_START__), cpu_ops not defined for this platform.)
                0x000000000097b000                __RW_START__ = .

.plt            0x000000000097b000        0x0
 .plt           0x000000000097b000        0x0 /home/mx3g/linux/mpu/nxp/frdm-imx8mp/tmp/work/imx8mpfrdm-poky-linux/imx-atf/2.10+git/git/build-optee/imx8mp/release/bl31/build_message.o

.data           0x000000000097b000      0x2ae
                0x000000000097b000                __DATA_START__ = .
 *(SORT_BY_ALIGNMENT(.data*))
 .data.rel.ro.psci_args.0
                0x000000000097b000       0x10 /home/mx3g/linux/mpu/nxp/frdm-imx8mp/tmp/work/imx8mpfrdm-poky-linux/imx-atf/2.10+git/git/build-optee/imx8mp/release/bl31/bl31_main.o
 .data.rel.local.tf_xlat_ctx
                0x000000000097b010       0x60 /home/mx3g/linux/mpu/nxp/frdm-imx8mp/tmp/work/imx8mpfrdm-poky-linux/imx-atf/2.10+git/git/build-optee/imx8mp/release/bl31/xlat_tables_context.o
 .data.rel.ro.local.plat_prefix_str
                0x000000000097b070       0x28 /home/mx3g/linux/mpu/nxp/frdm-imx8mp/tmp/work/imx8mpfrdm-poky-linux/imx-atf/2.10+git/git/build-optee/imx8mp/release/bl31/plat_log_common.o
 .data.rel.ro.local.arm_gic_data
                0x000000000097b098       0x30 /home/mx3g/linux/mpu/nxp/frdm-imx8mp/tmp/work/imx8mpfrdm-poky-linux/imx-atf/2.10+git/git/build-optee/imx8mp/release/bl31/plat_imx8_gic.o
                0x000000000097b098                arm_gic_data
 .data.aipstz5  0x000000000097b0c8       0x50 /home/mx3g/linux/mpu/nxp/frdm-imx8mp/tmp/work/imx8mpfrdm-poky-linux/imx-atf/2.10+git/git/build-optee/imx8mp/release/bl31/gpc.o
 .data.rel.ro.imx_plat_psci_ops
                0x000000000097b118       0xb0 /home/mx3g/linux/mpu/nxp/frdm-imx8mp/tmp/work/imx8mpfrdm-poky-linux/imx-atf/2.10+git/git/build-optee/imx8mp/release/bl31/imx8mp_psci.o
 .data.g_hab_rvt_api
                0x000000000097b1c8        0x8 /home/mx3g/linux/mpu/nxp/frdm-imx8mp/tmp/work/imx8mpfrdm-poky-linux/imx-atf/2.10+git/git/build-optee/imx8mp/release/bl31/imx_hab.o
                0x000000000097b1c8                g_hab_rvt_api
 .data.rel.ro.local.opteed_pm
                0x000000000097b1d0       0x48 /home/mx3g/linux/mpu/nxp/frdm-imx8mp/tmp/work/imx8mpfrdm-poky-linux/imx-atf/2.10+git/git/build-optee/imx8mp/release/bl31/opteed_pm.o
                0x000000000097b1d0                opteed_pm
 .data.mailbox_base
                0x000000000097b218        0x8 /home/mx3g/linux/mpu/nxp/frdm-imx8mp/tmp/work/imx8mpfrdm-poky-linux/imx-atf/2.10+git/git/build-optee/imx8mp/release/bl31/imx8_helpers.o
 .data.next_image_type
                0x000000000097b220        0x4 /home/mx3g/linux/mpu/nxp/frdm-imx8mp/tmp/work/imx8mpfrdm-poky-linux/imx-atf/2.10+git/git/build-optee/imx8mp/release/bl31/bl31_main.o
 .data.max_log_level
                0x000000000097b224        0x4 /home/mx3g/linux/mpu/nxp/frdm-imx8mp/tmp/work/imx8mpfrdm-poky-linux/imx-atf/2.10+git/git/build-optee/imx8mp/release/bl31/tf_log.o
 .data.dev_fsp  0x000000000097b228        0x4 /home/mx3g/linux/mpu/nxp/frdm-imx8mp/tmp/work/imx8mpfrdm-poky-linux/imx-atf/2.10+git/git/build-optee/imx8mp/release/bl31/dram.o
                0x000000000097b228                dev_fsp
 .data.pll      0x000000000097b22c       0x50 /home/mx3g/linux/mpu/nxp/frdm-imx8mp/tmp/work/imx8mpfrdm-poky-linux/imx-atf/2.10+git/git/build-optee/imx8mp/release/bl31/gpc_common.o
                0x000000000097b22c                pll
 .data.pd_init_on
                0x000000000097b27c        0xc /home/mx3g/linux/mpu/nxp/frdm-imx8mp/tmp/work/imx8mpfrdm-poky-linux/imx-atf/2.10+git/git/build-optee/imx8mp/release/bl31/gpc.o
                0x000000000097b27c                pd_init_on
 .data.hsiomix_clk
                0x000000000097b288       0x24 /home/mx3g/linux/mpu/nxp/frdm-imx8mp/tmp/work/imx8mpfrdm-poky-linux/imx-atf/2.10+git/git/build-optee/imx8mp/release/bl31/gpc.o
 .data.rel.ro   0x000000000097b2ac        0x0 /home/mx3g/linux/mpu/nxp/frdm-imx8mp/tmp/work/imx8mpfrdm-poky-linux/imx-atf/2.10+git/git/build-optee/imx8mp/release/bl31/build_message.o
 .data.console_state
                0x000000000097b2ac        0x1 /home/mx3g/linux/mpu/nxp/frdm-imx8mp/tmp/work/imx8mpfrdm-poky-linux/imx-atf/2.10+git/git/build-optee/imx8mp/release/bl31/multi_console.o
 .data.wait_ddrc_hwffc_done
                0x000000000097b2ad        0x1 /home/mx3g/linux/mpu/nxp/frdm-imx8mp/tmp/work/imx8mpfrdm-poky-linux/imx-atf/2.10+git/git/build-optee/imx8mp/release/bl31/dram.o
                0x000000000097b2ae                __DATA_END__ = .

.dynamic        0x000000000097b2b0       0xb0
 .dynamic       0x000000000097b2b0       0xb0 /home/mx3g/linux/mpu/nxp/frdm-imx8mp/tmp/work/imx8mpfrdm-poky-linux/imx-atf/2.10+git/git/build-optee/imx8mp/release/bl31/build_message.o
                0x000000000097b2b0                _DYNAMIC

.got.plt        0x000000000097b360       0x18
 .got.plt       0x000000000097b360       0x18 /home/mx3g/linux/mpu/nxp/frdm-imx8mp/tmp/work/imx8mpfrdm-poky-linux/imx-atf/2.10+git/git/build-optee/imx8mp/release/bl31/build_message.o

.rela.dyn       0x000000000097b378      0x930
                0x000000000097b378                __RELA_START__ = .
 *(SORT_BY_ALIGNMENT(.rela*))
 .rela.got      0x000000000097b378      0x360 /home/mx3g/linux/mpu/nxp/frdm-imx8mp/tmp/work/imx8mpfrdm-poky-linux/imx-atf/2.10+git/git/build-optee/imx8mp/release/bl31/build_message.o
 .rela.plt      0x000000000097b6d8        0x0 /home/mx3g/linux/mpu/nxp/frdm-imx8mp/tmp/work/imx8mpfrdm-poky-linux/imx-atf/2.10+git/git/build-optee/imx8mp/release/bl31/build_message.o
 .rela.bss      0x000000000097b6d8        0x0 /home/mx3g/linux/mpu/nxp/frdm-imx8mp/tmp/work/imx8mpfrdm-poky-linux/imx-atf/2.10+git/git/build-optee/imx8mp/release/bl31/build_message.o
 .rela.data.rel.ro
                0x000000000097b6d8        0x0 /home/mx3g/linux/mpu/nxp/frdm-imx8mp/tmp/work/imx8mpfrdm-poky-linux/imx-atf/2.10+git/git/build-optee/imx8mp/release/bl31/build_message.o
 .rela.ifunc    0x000000000097b6d8        0x0 /home/mx3g/linux/mpu/nxp/frdm-imx8mp/tmp/work/imx8mpfrdm-poky-linux/imx-atf/2.10+git/git/build-optee/imx8mp/release/bl31/build_message.o
 .rela.data.rel.ro.psci_args.0
                0x000000000097b6d8       0x18 /home/mx3g/linux/mpu/nxp/frdm-imx8mp/tmp/work/imx8mpfrdm-poky-linux/imx-atf/2.10+git/git/build-optee/imx8mp/release/bl31/build_message.o
 .rela.__pubsub_cm_entering_secure_world
                0x000000000097b6f0       0x18 /home/mx3g/linux/mpu/nxp/frdm-imx8mp/tmp/work/imx8mpfrdm-poky-linux/imx-atf/2.10+git/git/build-optee/imx8mp/release/bl31/build_message.o
 .rela.data.rel.local.tf_xlat_ctx
                0x000000000097b708       0x48 /home/mx3g/linux/mpu/nxp/frdm-imx8mp/tmp/work/imx8mpfrdm-poky-linux/imx-atf/2.10+git/git/build-optee/imx8mp/release/bl31/build_message.o
 .rela.data.rel.ro.local.plat_prefix_str
                0x000000000097b750       0x78 /home/mx3g/linux/mpu/nxp/frdm-imx8mp/tmp/work/imx8mpfrdm-poky-linux/imx-atf/2.10+git/git/build-optee/imx8mp/release/bl31/build_message.o
 .rela.rt_svc_descs
                0x000000000097b7c8      0x138 /home/mx3g/linux/mpu/nxp/frdm-imx8mp/tmp/work/imx8mpfrdm-poky-linux/imx-atf/2.10+git/git/build-optee/imx8mp/release/bl31/build_message.o
 .rela.data.rel.ro.local.arm_gic_data
                0x000000000097b900       0x48 /home/mx3g/linux/mpu/nxp/frdm-imx8mp/tmp/work/imx8mpfrdm-poky-linux/imx-atf/2.10+git/git/build-optee/imx8mp/release/bl31/build_message.o
 .rela.data.rel.ro.imx_plat_psci_ops
                0x000000000097b948      0x120 /home/mx3g/linux/mpu/nxp/frdm-imx8mp/tmp/work/imx8mpfrdm-poky-linux/imx-atf/2.10+git/git/build-optee/imx8mp/release/bl31/build_message.o
 .rela.data.rel.ro.local.opteed_pm
                0x000000000097ba68       0xc0 /home/mx3g/linux/mpu/nxp/frdm-imx8mp/tmp/work/imx8mpfrdm-poky-linux/imx-atf/2.10+git/git/build-optee/imx8mp/release/bl31/build_message.o
 .rela.text.asm.bl31_entrypoint
                0x000000000097bb28       0x18 /home/mx3g/linux/mpu/nxp/frdm-imx8mp/tmp/work/imx8mpfrdm-poky-linux/imx-atf/2.10+git/git/build-optee/imx8mp/release/bl31/build_message.o
 .rela.rodata.errata_entries
                0x000000000097bb40       0xf0 /home/mx3g/linux/mpu/nxp/frdm-imx8mp/tmp/work/imx8mpfrdm-poky-linux/imx-atf/2.10+git/git/build-optee/imx8mp/release/bl31/build_message.o
 .rela.cpu_ops  0x000000000097bc30       0x78 /home/mx3g/linux/mpu/nxp/frdm-imx8mp/tmp/work/imx8mpfrdm-poky-linux/imx-atf/2.10+git/git/build-optee/imx8mp/release/bl31/build_message.o
                0x000000000097bca8                __RELA_END__ = .

.gnu.version_d  0x000000000097bca8        0x0
 .gnu.version_d
                0x000000000097bca8        0x0 /home/mx3g/linux/mpu/nxp/frdm-imx8mp/tmp/work/imx8mpfrdm-poky-linux/imx-atf/2.10+git/git/build-optee/imx8mp/release/bl31/build_message.o

.gnu.version    0x000000000097bca8        0x0
 .gnu.version   0x000000000097bca8        0x0 /home/mx3g/linux/mpu/nxp/frdm-imx8mp/tmp/work/imx8mpfrdm-poky-linux/imx-atf/2.10+git/git/build-optee/imx8mp/release/bl31/build_message.o

.gnu.version_r  0x000000000097bca8        0x0
 .gnu.version_r
                0x000000000097bca8        0x0 /home/mx3g/linux/mpu/nxp/frdm-imx8mp/tmp/work/imx8mpfrdm-poky-linux/imx-atf/2.10+git/git/build-optee/imx8mp/release/bl31/build_message.o

.stacks         0x000000000097bcc0     0x2c00
                0x000000000097bcc0                __STACKS_START__ = .
 *(SORT_BY_ALIGNMENT(.tzfw_normal_stacks))
 .tzfw_normal_stacks
                0x000000000097bcc0     0x2c00 /home/mx3g/linux/mpu/nxp/frdm-imx8mp/tmp/work/imx8mpfrdm-poky-linux/imx-atf/2.10+git/git/build-optee/imx8mp/release/bl31/platform_mp_stack.o
                0x000000000097e8c0                __STACKS_END__ = .

.bss            0x000000000097e900     0x4300
                0x000000000097e900                __BSS_START__ = .
 *(SORT_BY_ALIGNMENT(.bss*))
 .bss.percpu_data
                0x000000000097e900      0x100 /home/mx3g/linux/mpu/nxp/frdm-imx8mp/tmp/work/imx8mpfrdm-poky-linux/imx-atf/2.10+git/git/build-optee/imx8mp/release/bl31/cpu_data_array.o
                0x000000000097e900                percpu_data
 .bss.psci_ns_context
                0x000000000097ea00      0x900 /home/mx3g/linux/mpu/nxp/frdm-imx8mp/tmp/work/imx8mpfrdm-poky-linux/imx-atf/2.10+git/git/build-optee/imx8mp/release/bl31/psci_setup.o
 .bss.opteed_sp_context
                0x000000000097f300      0x980 /home/mx3g/linux/mpu/nxp/frdm-imx8mp/tmp/work/imx8mpfrdm-poky-linux/imx-atf/2.10+git/git/build-optee/imx8mp/release/bl31/opteed_main.o
                0x000000000097f300                opteed_sp_context
 .bss.bl32_init
                0x000000000097fc80        0x8 /home/mx3g/linux/mpu/nxp/frdm-imx8mp/tmp/work/imx8mpfrdm-poky-linux/imx-atf/2.10+git/git/build-optee/imx8mp/release/bl31/bl31_main.o
 .bss.intr_type_descs
                0x000000000097fc88       0x60 /home/mx3g/linux/mpu/nxp/frdm-imx8mp/tmp/work/imx8mpfrdm-poky-linux/imx-atf/2.10+git/git/build-optee/imx8mp/release/bl31/interrupt_mgmt.o
 .bss.gicv3_driver_data
                0x000000000097fce8        0x8 /home/mx3g/linux/mpu/nxp/frdm-imx8mp/tmp/work/imx8mpfrdm-poky-linux/imx-atf/2.10+git/git/build-optee/imx8mp/release/bl31/gicv3_main.o
                0x000000000097fce8                gicv3_driver_data
 .bss.tzc380    0x000000000097fcf0       0x10 /home/mx3g/linux/mpu/nxp/frdm-imx8mp/tmp/work/imx8mpfrdm-poky-linux/imx-atf/2.10+git/git/build-optee/imx8mp/release/bl31/tzc380.o
                0x000000000097fcf0                tzc380
 .bss.console_list
                0x000000000097fd00        0x8 /home/mx3g/linux/mpu/nxp/frdm-imx8mp/tmp/work/imx8mpfrdm-poky-linux/imx-atf/2.10+git/git/build-optee/imx8mp/release/bl31/multi_console.o
                0x000000000097fd00                console_list
 .bss.timer_ops
                0x000000000097fd08        0x8 /home/mx3g/linux/mpu/nxp/frdm-imx8mp/tmp/work/imx8mpfrdm-poky-linux/imx-atf/2.10+git/git/build-optee/imx8mp/release/bl31/delay_timer.o
 .bss.ops       0x000000000097fd10       0x10 /home/mx3g/linux/mpu/nxp/frdm-imx8mp/tmp/work/imx8mpfrdm-poky-linux/imx-atf/2.10+git/git/build-optee/imx8mp/release/bl31/generic_delay_timer.o
 .bss.per_world_context
                0x000000000097fd20       0x20 /home/mx3g/linux/mpu/nxp/frdm-imx8mp/tmp/work/imx8mpfrdm-poky-linux/imx-atf/2.10+git/git/build-optee/imx8mp/release/bl31/context_mgmt.o
                0x000000000097fd20                per_world_context
 .bss.psci_plat_pm_ops
                0x000000000097fd40        0x8 /home/mx3g/linux/mpu/nxp/frdm-imx8mp/tmp/work/imx8mpfrdm-poky-linux/imx-atf/2.10+git/git/build-optee/imx8mp/release/bl31/psci_common.o
                0x000000000097fd40                psci_plat_pm_ops
 .bss.psci_cpu_pd_nodes
                0x000000000097fd48       0x40 /home/mx3g/linux/mpu/nxp/frdm-imx8mp/tmp/work/imx8mpfrdm-poky-linux/imx-atf/2.10+git/git/build-optee/imx8mp/release/bl31/psci_common.o
                0x000000000097fd48                psci_cpu_pd_nodes
 .bss.psci_spd_pm
                0x000000000097fd88        0x8 /home/mx3g/linux/mpu/nxp/frdm-imx8mp/tmp/work/imx8mpfrdm-poky-linux/imx-atf/2.10+git/git/build-optee/imx8mp/release/bl31/psci_common.o
                0x000000000097fd88                psci_spd_pm
 .bss.tf_mmap   0x000000000097fd90      0x2a8 /home/mx3g/linux/mpu/nxp/frdm-imx8mp/tmp/work/imx8mpfrdm-poky-linux/imx-atf/2.10+git/git/build-optee/imx8mp/release/bl31/xlat_tables_context.o
 .bss.mmu_cfg_params
                0x0000000000980038       0x18 /home/mx3g/linux/mpu/nxp/frdm-imx8mp/tmp/work/imx8mpfrdm-poky-linux/imx-atf/2.10+git/git/build-optee/imx8mp/release/bl31/xlat_tables_context.o
                0x0000000000980038                mmu_cfg_params
 .bss.bl33_image_ep_info.0
                0x0000000000980050       0x58 /home/mx3g/linux/mpu/nxp/frdm-imx8mp/tmp/work/imx8mpfrdm-poky-linux/imx-atf/2.10+git/git/build-optee/imx8mp/release/bl31/imx_sip_handler.o
 .bss.rdistif_base_addrs
                0x00000000009800a8       0x20 /home/mx3g/linux/mpu/nxp/frdm-imx8mp/tmp/work/imx8mpfrdm-poky-linux/imx-atf/2.10+git/git/build-optee/imx8mp/release/bl31/plat_imx8_gic.o
                0x00000000009800a8                rdistif_base_addrs
 .bss.dram_info
                0x00000000009800c8       0xa8 /home/mx3g/linux/mpu/nxp/frdm-imx8mp/tmp/work/imx8mpfrdm-poky-linux/imx-atf/2.10+git/git/build-optee/imx8mp/release/bl31/dram.o
                0x00000000009800c8                dram_info
 .bss.imx_gicv3_ctx
                0x0000000000980170     0x2880 /home/mx3g/linux/mpu/nxp/frdm-imx8mp/tmp/work/imx8mpfrdm-poky-linux/imx-atf/2.10+git/git/build-optee/imx8mp/release/bl31/gpc_common.o
                0x0000000000980170                imx_gicv3_ctx
 .bss.console.0
                0x00000000009829f0       0x28 /home/mx3g/linux/mpu/nxp/frdm-imx8mp/tmp/work/imx8mpfrdm-poky-linux/imx-atf/2.10+git/git/build-optee/imx8mp/release/bl31/imx8mp_bl31_setup.o
 .bss.bl33_image_ep_info
                0x0000000000982a18       0x58 /home/mx3g/linux/mpu/nxp/frdm-imx8mp/tmp/work/imx8mpfrdm-poky-linux/imx-atf/2.10+git/git/build-optee/imx8mp/release/bl31/imx8mp_bl31_setup.o
 .bss.bl32_image_ep_info
                0x0000000000982a70       0x58 /home/mx3g/linux/mpu/nxp/frdm-imx8mp/tmp/work/imx8mpfrdm-poky-linux/imx-atf/2.10+git/git/build-optee/imx8mp/release/bl31/imx8mp_bl31_setup.o
 .bss.optee_vector_table
                0x0000000000982ac8        0x8 /home/mx3g/linux/mpu/nxp/frdm-imx8mp/tmp/work/imx8mpfrdm-poky-linux/imx-atf/2.10+git/git/build-optee/imx8mp/release/bl31/opteed_main.o
                0x0000000000982ac8                optee_vector_table
 .bss.psci_plat_core_count
                0x0000000000982ad0        0x4 /home/mx3g/linux/mpu/nxp/frdm-imx8mp/tmp/work/imx8mpfrdm-poky-linux/imx-atf/2.10+git/git/build-optee/imx8mp/release/bl31/psci_common.o
                0x0000000000982ad0                psci_plat_core_count
 .bss.psci_caps
                0x0000000000982ad4        0x4 /home/mx3g/linux/mpu/nxp/frdm-imx8mp/tmp/work/imx8mpfrdm-poky-linux/imx-atf/2.10+git/git/build-optee/imx8mp/release/bl31/psci_setup.o
                0x0000000000982ad4                psci_caps
 .bss.wfe_done  0x0000000000982ad8        0x4 /home/mx3g/linux/mpu/nxp/frdm-imx8mp/tmp/work/imx8mpfrdm-poky-linux/imx-atf/2.10+git/git/build-optee/imx8mp/release/bl31/dram.o
 .bss.dfs_lock  0x0000000000982adc        0x4 /home/mx3g/linux/mpu/nxp/frdm-imx8mp/tmp/work/imx8mpfrdm-poky-linux/imx-atf/2.10+git/git/build-optee/imx8mp/release/bl31/dram.o
                0x0000000000982adc                dfs_lock
 .bss.pu_domain_status
                0x0000000000982ae0        0x4 /home/mx3g/linux/mpu/nxp/frdm-imx8mp/tmp/work/imx8mpfrdm-poky-linux/imx-atf/2.10+git/git/build-optee/imx8mp/release/bl31/gpc.o
 .bss.opteed_rw
                0x0000000000982ae4        0x4 /home/mx3g/linux/mpu/nxp/frdm-imx8mp/tmp/work/imx8mpfrdm-poky-linux/imx-atf/2.10+git/git/build-optee/imx8mp/release/bl31/opteed_main.o
                0x0000000000982ae4                opteed_rw
 .bss.rt_svc_descs_indices
                0x0000000000982ae8       0x80 /home/mx3g/linux/mpu/nxp/frdm-imx8mp/tmp/work/imx8mpfrdm-poky-linux/imx-atf/2.10+git/git/build-optee/imx8mp/release/bl31/runtime_svc.o
                0x0000000000982ae8                rt_svc_descs_indices
 .bss.has_secure_perworld_init
                0x0000000000982b68        0x1 /home/mx3g/linux/mpu/nxp/frdm-imx8mp/tmp/work/imx8mpfrdm-poky-linux/imx-atf/2.10+git/git/build-optee/imx8mp/release/bl31/context_mgmt.o
 .bss.psci_req_local_pwr_states
                0x0000000000982b69        0x8 /home/mx3g/linux/mpu/nxp/frdm-imx8mp/tmp/work/imx8mpfrdm-poky-linux/imx-atf/2.10+git/git/build-optee/imx8mp/release/bl31/psci_common.o
 *(SORT_BY_ALIGNMENT(COMMON))
                0x0000000000982b80                . = ALIGN (0x40)
 *fill*         0x0000000000982b71        0xf 
                0x0000000000982b80                __PMF_TIMESTAMP_START__ = .
 *(SORT_BY_ALIGNMENT(.pmf_timestamp_array))
                0x0000000000982b80                . = ALIGN (0x40)
                0x0000000000982b80                __PMF_PERCPU_TIMESTAMP_END__ = .
                0x0000000000000000                __PERCPU_TIMESTAMP_SIZE__ = ABSOLUTE ((. - __PMF_TIMESTAMP_START__))
                0x0000000000982b80                . = (. + (__PERCPU_TIMESTAMP_SIZE__ * 0x3))
                0x0000000000982b80                __PMF_TIMESTAMP_END__ = .
                0x0000000000982b80                . = ALIGN (0x10)
                0x0000000000982b80                __BASE_XLAT_TABLE_START__ = .
 *(SORT_BY_ALIGNMENT(.base_xlat_table))
 .base_xlat_table
                0x0000000000982b80       0x80 /home/mx3g/linux/mpu/nxp/frdm-imx8mp/tmp/work/imx8mpfrdm-poky-linux/imx-atf/2.10+git/git/build-optee/imx8mp/release/bl31/xlat_tables_context.o
                0x0000000000982c00                __BASE_XLAT_TABLE_END__ = .
                0x0000000000982c00                __BSS_END__ = .

.dynbss         0x0000000000982c00        0x0
 .dynbss        0x0000000000982c00        0x0 /home/mx3g/linux/mpu/nxp/frdm-imx8mp/tmp/work/imx8mpfrdm-poky-linux/imx-atf/2.10+git/git/build-optee/imx8mp/release/bl31/build_message.o

.xlat_table     0x0000000000983000     0x8000
                0x0000000000983000                __XLAT_TABLE_START__ = .
 *(SORT_BY_ALIGNMENT(.xlat_table))
 .xlat_table    0x0000000000983000     0x8000 /home/mx3g/linux/mpu/nxp/frdm-imx8mp/tmp/work/imx8mpfrdm-poky-linux/imx-atf/2.10+git/git/build-optee/imx8mp/release/bl31/xlat_tables_context.o
                0x000000000098b000                __XLAT_TABLE_END__ = .

.coherent_ram   0x000000000098b000     0x1000
                0x000000000098b000                __COHERENT_RAM_START__ = .
 *(SORT_BY_ALIGNMENT(.bakery_lock))
 .bakery_lock   0x000000000098b000       0x20 /home/mx3g/linux/mpu/nxp/frdm-imx8mp/tmp/work/imx8mpfrdm-poky-linux/imx-atf/2.10+git/git/build-optee/imx8mp/release/bl31/psci_common.o
                0x000000000098b000                psci_locks
 .bakery_lock   0x000000000098b020        0x8 /home/mx3g/linux/mpu/nxp/frdm-imx8mp/tmp/work/imx8mpfrdm-poky-linux/imx-atf/2.10+git/git/build-optee/imx8mp/release/bl31/gpc_common.o
                0x000000000098b020                gpc_lock
 *(SORT_BY_ALIGNMENT(.tzfw_coherent_mem))
 .tzfw_coherent_mem
                0x000000000098b028       0x40 /home/mx3g/linux/mpu/nxp/frdm-imx8mp/tmp/work/imx8mpfrdm-poky-linux/imx-atf/2.10+git/git/build-optee/imx8mp/release/bl31/psci_common.o
                0x000000000098b028                psci_non_cpu_pd_nodes
                0x000000000098b068                __COHERENT_RAM_END_UNALIGNED__ = .
                0x000000000098c000                . = ALIGN (0x1000)
 *fill*         0x000000000098b068      0xf98 
                0x000000000098c000                __COHERENT_RAM_END__ = .
                0x000000000098c000                __RW_END__ = .
                0x000000000098c000                __BL31_END__ = .
                0x0000000000000001                ASSERT ((. <= 0x990000), BL31 image has exceeded its limit.)
                0x000000000098c000                RAM_REGION_END = .

/DISCARD/
 *(SORT_BY_ALIGNMENT(.dynsym) SORT_BY_ALIGNMENT(.dynstr) SORT_BY_ALIGNMENT(.hash) SORT_BY_ALIGNMENT(.gnu.hash))
LOAD /home/mx3g/linux/mpu/nxp/frdm-imx8mp/tmp/work/imx8mpfrdm-poky-linux/imx-atf/2.10+git/git/build-optee/imx8mp/release/bl31/build_message.o
LOAD /home/mx3g/linux/mpu/nxp/frdm-imx8mp/tmp/work/imx8mpfrdm-poky-linux/imx-atf/2.10+git/git/build-optee/imx8mp/release/bl31/bl31_context_mgmt.o
LOAD /home/mx3g/linux/mpu/nxp/frdm-imx8mp/tmp/work/imx8mpfrdm-poky-linux/imx-atf/2.10+git/git/build-optee/imx8mp/release/bl31/bl31_main.o
LOAD /home/mx3g/linux/mpu/nxp/frdm-imx8mp/tmp/work/imx8mpfrdm-poky-linux/imx-atf/2.10+git/git/build-optee/imx8mp/release/bl31/bl31_traps.o
LOAD /home/mx3g/linux/mpu/nxp/frdm-imx8mp/tmp/work/imx8mpfrdm-poky-linux/imx-atf/2.10+git/git/build-optee/imx8mp/release/bl31/interrupt_mgmt.o
LOAD /home/mx3g/linux/mpu/nxp/frdm-imx8mp/tmp/work/imx8mpfrdm-poky-linux/imx-atf/2.10+git/git/build-optee/imx8mp/release/bl31/bl_common.o
LOAD /home/mx3g/linux/mpu/nxp/frdm-imx8mp/tmp/work/imx8mpfrdm-poky-linux/imx-atf/2.10+git/git/build-optee/imx8mp/release/bl31/runtime_svc.o
LOAD /home/mx3g/linux/mpu/nxp/frdm-imx8mp/tmp/work/imx8mpfrdm-poky-linux/imx-atf/2.10+git/git/build-optee/imx8mp/release/bl31/tf_log.o
LOAD /home/mx3g/linux/mpu/nxp/frdm-imx8mp/tmp/work/imx8mpfrdm-poky-linux/imx-atf/2.10+git/git/build-optee/imx8mp/release/bl31/arm_gicv3_common.o
LOAD /home/mx3g/linux/mpu/nxp/frdm-imx8mp/tmp/work/imx8mpfrdm-poky-linux/imx-atf/2.10+git/git/build-optee/imx8mp/release/bl31/gic-x00.o
LOAD /home/mx3g/linux/mpu/nxp/frdm-imx8mp/tmp/work/imx8mpfrdm-poky-linux/imx-atf/2.10+git/git/build-optee/imx8mp/release/bl31/gicdv3_helpers.o
LOAD /home/mx3g/linux/mpu/nxp/frdm-imx8mp/tmp/work/imx8mpfrdm-poky-linux/imx-atf/2.10+git/git/build-optee/imx8mp/release/bl31/gicrv3_helpers.o
LOAD /home/mx3g/linux/mpu/nxp/frdm-imx8mp/tmp/work/imx8mpfrdm-poky-linux/imx-atf/2.10+git/git/build-optee/imx8mp/release/bl31/gicv3_helpers.o
LOAD /home/mx3g/linux/mpu/nxp/frdm-imx8mp/tmp/work/imx8mpfrdm-poky-linux/imx-atf/2.10+git/git/build-optee/imx8mp/release/bl31/gicv3_main.o
LOAD /home/mx3g/linux/mpu/nxp/frdm-imx8mp/tmp/work/imx8mpfrdm-poky-linux/imx-atf/2.10+git/git/build-optee/imx8mp/release/bl31/tzc380.o
LOAD /home/mx3g/linux/mpu/nxp/frdm-imx8mp/tmp/work/imx8mpfrdm-poky-linux/imx-atf/2.10+git/git/build-optee/imx8mp/release/bl31/multi_console.o
LOAD /home/mx3g/linux/mpu/nxp/frdm-imx8mp/tmp/work/imx8mpfrdm-poky-linux/imx-atf/2.10+git/git/build-optee/imx8mp/release/bl31/delay_timer.o
LOAD /home/mx3g/linux/mpu/nxp/frdm-imx8mp/tmp/work/imx8mpfrdm-poky-linux/imx-atf/2.10+git/git/build-optee/imx8mp/release/bl31/generic_delay_timer.o
LOAD /home/mx3g/linux/mpu/nxp/frdm-imx8mp/tmp/work/imx8mpfrdm-poky-linux/imx-atf/2.10+git/git/build-optee/imx8mp/release/bl31/popcountdi2.o
LOAD /home/mx3g/linux/mpu/nxp/frdm-imx8mp/tmp/work/imx8mpfrdm-poky-linux/imx-atf/2.10+git/git/build-optee/imx8mp/release/bl31/popcountsi2.o
LOAD /home/mx3g/linux/mpu/nxp/frdm-imx8mp/tmp/work/imx8mpfrdm-poky-linux/imx-atf/2.10+git/git/build-optee/imx8mp/release/bl31/errata_report.o
LOAD /home/mx3g/linux/mpu/nxp/frdm-imx8mp/tmp/work/imx8mpfrdm-poky-linux/imx-atf/2.10+git/git/build-optee/imx8mp/release/bl31/context_mgmt.o
LOAD /home/mx3g/linux/mpu/nxp/frdm-imx8mp/tmp/work/imx8mpfrdm-poky-linux/imx-atf/2.10+git/git/build-optee/imx8mp/release/bl31/cpu_data_array.o
LOAD /home/mx3g/linux/mpu/nxp/frdm-imx8mp/tmp/work/imx8mpfrdm-poky-linux/imx-atf/2.10+git/git/build-optee/imx8mp/release/bl31/mpam.o
LOAD /home/mx3g/linux/mpu/nxp/frdm-imx8mp/tmp/work/imx8mpfrdm-poky-linux/imx-atf/2.10+git/git/build-optee/imx8mp/release/bl31/pmuv3.o
LOAD /home/mx3g/linux/mpu/nxp/frdm-imx8mp/tmp/work/imx8mpfrdm-poky-linux/imx-atf/2.10+git/git/build-optee/imx8mp/release/bl31/spe.o
LOAD /home/mx3g/linux/mpu/nxp/frdm-imx8mp/tmp/work/imx8mpfrdm-poky-linux/imx-atf/2.10+git/git/build-optee/imx8mp/release/bl31/sve.o
LOAD /home/mx3g/linux/mpu/nxp/frdm-imx8mp/tmp/work/imx8mpfrdm-poky-linux/imx-atf/2.10+git/git/build-optee/imx8mp/release/bl31/bakery_lock_coherent.o
LOAD /home/mx3g/linux/mpu/nxp/frdm-imx8mp/tmp/work/imx8mpfrdm-poky-linux/imx-atf/2.10+git/git/build-optee/imx8mp/release/bl31/psci_common.o
LOAD /home/mx3g/linux/mpu/nxp/frdm-imx8mp/tmp/work/imx8mpfrdm-poky-linux/imx-atf/2.10+git/git/build-optee/imx8mp/release/bl31/psci_main.o
LOAD /home/mx3g/linux/mpu/nxp/frdm-imx8mp/tmp/work/imx8mpfrdm-poky-linux/imx-atf/2.10+git/git/build-optee/imx8mp/release/bl31/psci_mem_protect.o
LOAD /home/mx3g/linux/mpu/nxp/frdm-imx8mp/tmp/work/imx8mpfrdm-poky-linux/imx-atf/2.10+git/git/build-optee/imx8mp/release/bl31/psci_off.o
LOAD /home/mx3g/linux/mpu/nxp/frdm-imx8mp/tmp/work/imx8mpfrdm-poky-linux/imx-atf/2.10+git/git/build-optee/imx8mp/release/bl31/psci_on.o
LOAD /home/mx3g/linux/mpu/nxp/frdm-imx8mp/tmp/work/imx8mpfrdm-poky-linux/imx-atf/2.10+git/git/build-optee/imx8mp/release/bl31/psci_setup.o
LOAD /home/mx3g/linux/mpu/nxp/frdm-imx8mp/tmp/work/imx8mpfrdm-poky-linux/imx-atf/2.10+git/git/build-optee/imx8mp/release/bl31/psci_suspend.o
LOAD /home/mx3g/linux/mpu/nxp/frdm-imx8mp/tmp/work/imx8mpfrdm-poky-linux/imx-atf/2.10+git/git/build-optee/imx8mp/release/bl31/psci_system_off.o
LOAD /home/mx3g/linux/mpu/nxp/frdm-imx8mp/tmp/work/imx8mpfrdm-poky-linux/imx-atf/2.10+git/git/build-optee/imx8mp/release/bl31/xlat_tables_arch.o
LOAD /home/mx3g/linux/mpu/nxp/frdm-imx8mp/tmp/work/imx8mpfrdm-poky-linux/imx-atf/2.10+git/git/build-optee/imx8mp/release/bl31/xlat_tables_context.o
LOAD /home/mx3g/linux/mpu/nxp/frdm-imx8mp/tmp/work/imx8mpfrdm-poky-linux/imx-atf/2.10+git/git/build-optee/imx8mp/release/bl31/xlat_tables_core.o
LOAD /home/mx3g/linux/mpu/nxp/frdm-imx8mp/tmp/work/imx8mpfrdm-poky-linux/imx-atf/2.10+git/git/build-optee/imx8mp/release/bl31/xlat_tables_utils.o
LOAD /home/mx3g/linux/mpu/nxp/frdm-imx8mp/tmp/work/imx8mpfrdm-poky-linux/imx-atf/2.10+git/git/build-optee/imx8mp/release/bl31/plat_common.o
LOAD /home/mx3g/linux/mpu/nxp/frdm-imx8mp/tmp/work/imx8mpfrdm-poky-linux/imx-atf/2.10+git/git/build-optee/imx8mp/release/bl31/plat_bl_common.o
LOAD /home/mx3g/linux/mpu/nxp/frdm-imx8mp/tmp/work/imx8mpfrdm-poky-linux/imx-atf/2.10+git/git/build-optee/imx8mp/release/bl31/plat_gicv3.o
LOAD /home/mx3g/linux/mpu/nxp/frdm-imx8mp/tmp/work/imx8mpfrdm-poky-linux/imx-atf/2.10+git/git/build-optee/imx8mp/release/bl31/plat_log_common.o
LOAD /home/mx3g/linux/mpu/nxp/frdm-imx8mp/tmp/work/imx8mpfrdm-poky-linux/imx-atf/2.10+git/git/build-optee/imx8mp/release/bl31/plat_psci_common.o
LOAD /home/mx3g/linux/mpu/nxp/frdm-imx8mp/tmp/work/imx8mpfrdm-poky-linux/imx-atf/2.10+git/git/build-optee/imx8mp/release/bl31/imx8_topology.o
LOAD /home/mx3g/linux/mpu/nxp/frdm-imx8mp/tmp/work/imx8mpfrdm-poky-linux/imx-atf/2.10+git/git/build-optee/imx8mp/release/bl31/imx_sip_handler.o
LOAD /home/mx3g/linux/mpu/nxp/frdm-imx8mp/tmp/work/imx8mpfrdm-poky-linux/imx-atf/2.10+git/git/build-optee/imx8mp/release/bl31/imx_sip_svc.o
LOAD /home/mx3g/linux/mpu/nxp/frdm-imx8mp/tmp/work/imx8mpfrdm-poky-linux/imx-atf/2.10+git/git/build-optee/imx8mp/release/bl31/plat_imx8_gic.o
LOAD /home/mx3g/linux/mpu/nxp/frdm-imx8mp/tmp/work/imx8mpfrdm-poky-linux/imx-atf/2.10+git/git/build-optee/imx8mp/release/bl31/clock.o
LOAD /home/mx3g/linux/mpu/nxp/frdm-imx8mp/tmp/work/imx8mpfrdm-poky-linux/imx-atf/2.10+git/git/build-optee/imx8mp/release/bl31/ddr4_dvfs.o
LOAD /home/mx3g/linux/mpu/nxp/frdm-imx8mp/tmp/work/imx8mpfrdm-poky-linux/imx-atf/2.10+git/git/build-optee/imx8mp/release/bl31/dram.o
LOAD /home/mx3g/linux/mpu/nxp/frdm-imx8mp/tmp/work/imx8mpfrdm-poky-linux/imx-atf/2.10+git/git/build-optee/imx8mp/release/bl31/dram_retention.o
LOAD /home/mx3g/linux/mpu/nxp/frdm-imx8mp/tmp/work/imx8mpfrdm-poky-linux/imx-atf/2.10+git/git/build-optee/imx8mp/release/bl31/lpddr4_dvfs.o
LOAD /home/mx3g/linux/mpu/nxp/frdm-imx8mp/tmp/work/imx8mpfrdm-poky-linux/imx-atf/2.10+git/git/build-optee/imx8mp/release/bl31/gpc_common.o
LOAD /home/mx3g/linux/mpu/nxp/frdm-imx8mp/tmp/work/imx8mpfrdm-poky-linux/imx-atf/2.10+git/git/build-optee/imx8mp/release/bl31/imx8m_caam.o
LOAD /home/mx3g/linux/mpu/nxp/frdm-imx8mp/tmp/work/imx8mpfrdm-poky-linux/imx-atf/2.10+git/git/build-optee/imx8mp/release/bl31/imx8m_ccm.o
LOAD /home/mx3g/linux/mpu/nxp/frdm-imx8mp/tmp/work/imx8mpfrdm-poky-linux/imx-atf/2.10+git/git/build-optee/imx8mp/release/bl31/imx8m_csu.o
LOAD /home/mx3g/linux/mpu/nxp/frdm-imx8mp/tmp/work/imx8mpfrdm-poky-linux/imx-atf/2.10+git/git/build-optee/imx8mp/release/bl31/imx8m_psci_common.o
LOAD /home/mx3g/linux/mpu/nxp/frdm-imx8mp/tmp/work/imx8mpfrdm-poky-linux/imx-atf/2.10+git/git/build-optee/imx8mp/release/bl31/imx8m_snvs.o
LOAD /home/mx3g/linux/mpu/nxp/frdm-imx8mp/tmp/work/imx8mpfrdm-poky-linux/imx-atf/2.10+git/git/build-optee/imx8mp/release/bl31/gpc.o
LOAD /home/mx3g/linux/mpu/nxp/frdm-imx8mp/tmp/work/imx8mpfrdm-poky-linux/imx-atf/2.10+git/git/build-optee/imx8mp/release/bl31/imx8mp_bl31_setup.o
LOAD /home/mx3g/linux/mpu/nxp/frdm-imx8mp/tmp/work/imx8mpfrdm-poky-linux/imx-atf/2.10+git/git/build-optee/imx8mp/release/bl31/imx8mp_psci.o
LOAD /home/mx3g/linux/mpu/nxp/frdm-imx8mp/tmp/work/imx8mpfrdm-poky-linux/imx-atf/2.10+git/git/build-optee/imx8mp/release/bl31/imx_aipstz.o
LOAD /home/mx3g/linux/mpu/nxp/frdm-imx8mp/tmp/work/imx8mpfrdm-poky-linux/imx-atf/2.10+git/git/build-optee/imx8mp/release/bl31/imx_hab.o
LOAD /home/mx3g/linux/mpu/nxp/frdm-imx8mp/tmp/work/imx8mpfrdm-poky-linux/imx-atf/2.10+git/git/build-optee/imx8mp/release/bl31/imx_rdc.o
LOAD /home/mx3g/linux/mpu/nxp/frdm-imx8mp/tmp/work/imx8mpfrdm-poky-linux/imx-atf/2.10+git/git/build-optee/imx8mp/release/bl31/arm_arch_svc_setup.o
LOAD /home/mx3g/linux/mpu/nxp/frdm-imx8mp/tmp/work/imx8mpfrdm-poky-linux/imx-atf/2.10+git/git/build-optee/imx8mp/release/bl31/opteed_common.o
LOAD /home/mx3g/linux/mpu/nxp/frdm-imx8mp/tmp/work/imx8mpfrdm-poky-linux/imx-atf/2.10+git/git/build-optee/imx8mp/release/bl31/opteed_main.o
LOAD /home/mx3g/linux/mpu/nxp/frdm-imx8mp/tmp/work/imx8mpfrdm-poky-linux/imx-atf/2.10+git/git/build-optee/imx8mp/release/bl31/opteed_pm.o
LOAD /home/mx3g/linux/mpu/nxp/frdm-imx8mp/tmp/work/imx8mpfrdm-poky-linux/imx-atf/2.10+git/git/build-optee/imx8mp/release/bl31/std_svc_setup.o
LOAD /home/mx3g/linux/mpu/nxp/frdm-imx8mp/tmp/work/imx8mpfrdm-poky-linux/imx-atf/2.10+git/git/build-optee/imx8mp/release/bl31/bl31_entrypoint.o
LOAD /home/mx3g/linux/mpu/nxp/frdm-imx8mp/tmp/work/imx8mpfrdm-poky-linux/imx-atf/2.10+git/git/build-optee/imx8mp/release/bl31/crash_reporting.o
LOAD /home/mx3g/linux/mpu/nxp/frdm-imx8mp/tmp/work/imx8mpfrdm-poky-linux/imx-atf/2.10+git/git/build-optee/imx8mp/release/bl31/runtime_exceptions.o
LOAD /home/mx3g/linux/mpu/nxp/frdm-imx8mp/tmp/work/imx8mpfrdm-poky-linux/imx-atf/2.10+git/git/build-optee/imx8mp/release/bl31/debug.o
LOAD /home/mx3g/linux/mpu/nxp/frdm-imx8mp/tmp/work/imx8mpfrdm-poky-linux/imx-atf/2.10+git/git/build-optee/imx8mp/release/bl31/cache_helpers.o
LOAD /home/mx3g/linux/mpu/nxp/frdm-imx8mp/tmp/work/imx8mpfrdm-poky-linux/imx-atf/2.10+git/git/build-optee/imx8mp/release/bl31/misc_helpers.o
LOAD /home/mx3g/linux/mpu/nxp/frdm-imx8mp/tmp/work/imx8mpfrdm-poky-linux/imx-atf/2.10+git/git/build-optee/imx8mp/release/bl31/cortex_a53.o
LOAD /home/mx3g/linux/mpu/nxp/frdm-imx8mp/tmp/work/imx8mpfrdm-poky-linux/imx-atf/2.10+git/git/build-optee/imx8mp/release/bl31/cpu_helpers.o
LOAD /home/mx3g/linux/mpu/nxp/frdm-imx8mp/tmp/work/imx8mpfrdm-poky-linux/imx-atf/2.10+git/git/build-optee/imx8mp/release/bl31/dsu_helpers.o
LOAD /home/mx3g/linux/mpu/nxp/frdm-imx8mp/tmp/work/imx8mpfrdm-poky-linux/imx-atf/2.10+git/git/build-optee/imx8mp/release/bl31/wa_cve_2017_5715_bpiall.o
LOAD /home/mx3g/linux/mpu/nxp/frdm-imx8mp/tmp/work/imx8mpfrdm-poky-linux/imx-atf/2.10+git/git/build-optee/imx8mp/release/bl31/wa_cve_2017_5715_mmu.o
LOAD /home/mx3g/linux/mpu/nxp/frdm-imx8mp/tmp/work/imx8mpfrdm-poky-linux/imx-atf/2.10+git/git/build-optee/imx8mp/release/bl31/context.o
LOAD /home/mx3g/linux/mpu/nxp/frdm-imx8mp/tmp/work/imx8mpfrdm-poky-linux/imx-atf/2.10+git/git/build-optee/imx8mp/release/bl31/cpu_data.o
LOAD /home/mx3g/linux/mpu/nxp/frdm-imx8mp/tmp/work/imx8mpfrdm-poky-linux/imx-atf/2.10+git/git/build-optee/imx8mp/release/bl31/spinlock.o
LOAD /home/mx3g/linux/mpu/nxp/frdm-imx8mp/tmp/work/imx8mpfrdm-poky-linux/imx-atf/2.10+git/git/build-optee/imx8mp/release/bl31/psci_helpers.o
LOAD /home/mx3g/linux/mpu/nxp/frdm-imx8mp/tmp/work/imx8mpfrdm-poky-linux/imx-atf/2.10+git/git/build-optee/imx8mp/release/bl31/runtime_errata.o
LOAD /home/mx3g/linux/mpu/nxp/frdm-imx8mp/tmp/work/imx8mpfrdm-poky-linux/imx-atf/2.10+git/git/build-optee/imx8mp/release/bl31/enable_mmu.o
LOAD /home/mx3g/linux/mpu/nxp/frdm-imx8mp/tmp/work/imx8mpfrdm-poky-linux/imx-atf/2.10+git/git/build-optee/imx8mp/release/bl31/platform_helpers.o
LOAD /home/mx3g/linux/mpu/nxp/frdm-imx8mp/tmp/work/imx8mpfrdm-poky-linux/imx-atf/2.10+git/git/build-optee/imx8mp/release/bl31/platform_mp_stack.o
LOAD /home/mx3g/linux/mpu/nxp/frdm-imx8mp/tmp/work/imx8mpfrdm-poky-linux/imx-atf/2.10+git/git/build-optee/imx8mp/release/bl31/imx8_helpers.o
LOAD /home/mx3g/linux/mpu/nxp/frdm-imx8mp/tmp/work/imx8mpfrdm-poky-linux/imx-atf/2.10+git/git/build-optee/imx8mp/release/bl31/imx_uart_console.o
LOAD /home/mx3g/linux/mpu/nxp/frdm-imx8mp/tmp/work/imx8mpfrdm-poky-linux/imx-atf/2.10+git/git/build-optee/imx8mp/release/bl31/opteed_helpers.o
LOAD /home/mx3g/linux/mpu/nxp/frdm-imx8mp/tmp/work/imx8mpfrdm-poky-linux/imx-atf/2.10+git/git/build-optee/imx8mp/release/lib/libc.a
OUTPUT(/home/mx3g/linux/mpu/nxp/frdm-imx8mp/tmp/work/imx8mpfrdm-poky-linux/imx-atf/2.10+git/git/build-optee/imx8mp/release/bl31/bl31.elf elf64-littleaarch64)
LOAD linker stubs

.comment        0x0000000000000000       0x12
 .comment       0x0000000000000000       0x12 /home/mx3g/linux/mpu/nxp/frdm-imx8mp/tmp/work/imx8mpfrdm-poky-linux/imx-atf/2.10+git/git/build-optee/imx8mp/release/bl31/build_message.o
                                         0x13 (size before relaxing)
 .comment       0x0000000000000012       0x13 /home/mx3g/linux/mpu/nxp/frdm-imx8mp/tmp/work/imx8mpfrdm-poky-linux/imx-atf/2.10+git/git/build-optee/imx8mp/release/bl31/bl31_context_mgmt.o
 .comment       0x0000000000000012       0x13 /home/mx3g/linux/mpu/nxp/frdm-imx8mp/tmp/work/imx8mpfrdm-poky-linux/imx-atf/2.10+git/git/build-optee/imx8mp/release/bl31/bl31_main.o
 .comment       0x0000000000000012       0x13 /home/mx3g/linux/mpu/nxp/frdm-imx8mp/tmp/work/imx8mpfrdm-poky-linux/imx-atf/2.10+git/git/build-optee/imx8mp/release/bl31/bl31_traps.o
 .comment       0x0000000000000012       0x13 /home/mx3g/linux/mpu/nxp/frdm-imx8mp/tmp/work/imx8mpfrdm-poky-linux/imx-atf/2.10+git/git/build-optee/imx8mp/release/bl31/interrupt_mgmt.o
 .comment       0x0000000000000012       0x13 /home/mx3g/linux/mpu/nxp/frdm-imx8mp/tmp/work/imx8mpfrdm-poky-linux/imx-atf/2.10+git/git/build-optee/imx8mp/release/bl31/bl_common.o
 .comment       0x0000000000000012       0x13 /home/mx3g/linux/mpu/nxp/frdm-imx8mp/tmp/work/imx8mpfrdm-poky-linux/imx-atf/2.10+git/git/build-optee/imx8mp/release/bl31/runtime_svc.o
 .comment       0x0000000000000012       0x13 /home/mx3g/linux/mpu/nxp/frdm-imx8mp/tmp/work/imx8mpfrdm-poky-linux/imx-atf/2.10+git/git/build-optee/imx8mp/release/bl31/tf_log.o
 .comment       0x0000000000000012       0x13 /home/mx3g/linux/mpu/nxp/frdm-imx8mp/tmp/work/imx8mpfrdm-poky-linux/imx-atf/2.10+git/git/build-optee/imx8mp/release/bl31/arm_gicv3_common.o
 .comment       0x0000000000000012       0x13 /home/mx3g/linux/mpu/nxp/frdm-imx8mp/tmp/work/imx8mpfrdm-poky-linux/imx-atf/2.10+git/git/build-optee/imx8mp/release/bl31/gic-x00.o
 .comment       0x0000000000000012       0x13 /home/mx3g/linux/mpu/nxp/frdm-imx8mp/tmp/work/imx8mpfrdm-poky-linux/imx-atf/2.10+git/git/build-optee/imx8mp/release/bl31/gicdv3_helpers.o
 .comment       0x0000000000000012       0x13 /home/mx3g/linux/mpu/nxp/frdm-imx8mp/tmp/work/imx8mpfrdm-poky-linux/imx-atf/2.10+git/git/build-optee/imx8mp/release/bl31/gicrv3_helpers.o
 .comment       0x0000000000000012       0x13 /home/mx3g/linux/mpu/nxp/frdm-imx8mp/tmp/work/imx8mpfrdm-poky-linux/imx-atf/2.10+git/git/build-optee/imx8mp/release/bl31/gicv3_helpers.o
 .comment       0x0000000000000012       0x13 /home/mx3g/linux/mpu/nxp/frdm-imx8mp/tmp/work/imx8mpfrdm-poky-linux/imx-atf/2.10+git/git/build-optee/imx8mp/release/bl31/gicv3_main.o
 .comment       0x0000000000000012       0x13 /home/mx3g/linux/mpu/nxp/frdm-imx8mp/tmp/work/imx8mpfrdm-poky-linux/imx-atf/2.10+git/git/build-optee/imx8mp/release/bl31/tzc380.o
 .comment       0x0000000000000012       0x13 /home/mx3g/linux/mpu/nxp/frdm-imx8mp/tmp/work/imx8mpfrdm-poky-linux/imx-atf/2.10+git/git/build-optee/imx8mp/release/bl31/multi_console.o
 .comment       0x0000000000000012       0x13 /home/mx3g/linux/mpu/nxp/frdm-imx8mp/tmp/work/imx8mpfrdm-poky-linux/imx-atf/2.10+git/git/build-optee/imx8mp/release/bl31/delay_timer.o
 .comment       0x0000000000000012       0x13 /home/mx3g/linux/mpu/nxp/frdm-imx8mp/tmp/work/imx8mpfrdm-poky-linux/imx-atf/2.10+git/git/build-optee/imx8mp/release/bl31/generic_delay_timer.o
 .comment       0x0000000000000012       0x13 /home/mx3g/linux/mpu/nxp/frdm-imx8mp/tmp/work/imx8mpfrdm-poky-linux/imx-atf/2.10+git/git/build-optee/imx8mp/release/bl31/errata_report.o
 .comment       0x0000000000000012       0x13 /home/mx3g/linux/mpu/nxp/frdm-imx8mp/tmp/work/imx8mpfrdm-poky-linux/imx-atf/2.10+git/git/build-optee/imx8mp/release/bl31/context_mgmt.o
 .comment       0x0000000000000012       0x13 /home/mx3g/linux/mpu/nxp/frdm-imx8mp/tmp/work/imx8mpfrdm-poky-linux/imx-atf/2.10+git/git/build-optee/imx8mp/release/bl31/cpu_data_array.o
 .comment       0x0000000000000012       0x13 /home/mx3g/linux/mpu/nxp/frdm-imx8mp/tmp/work/imx8mpfrdm-poky-linux/imx-atf/2.10+git/git/build-optee/imx8mp/release/bl31/mpam.o
 .comment       0x0000000000000012       0x13 /home/mx3g/linux/mpu/nxp/frdm-imx8mp/tmp/work/imx8mpfrdm-poky-linux/imx-atf/2.10+git/git/build-optee/imx8mp/release/bl31/pmuv3.o
 .comment       0x0000000000000012       0x13 /home/mx3g/linux/mpu/nxp/frdm-imx8mp/tmp/work/imx8mpfrdm-poky-linux/imx-atf/2.10+git/git/build-optee/imx8mp/release/bl31/spe.o
 .comment       0x0000000000000012       0x13 /home/mx3g/linux/mpu/nxp/frdm-imx8mp/tmp/work/imx8mpfrdm-poky-linux/imx-atf/2.10+git/git/build-optee/imx8mp/release/bl31/sve.o
 .comment       0x0000000000000012       0x13 /home/mx3g/linux/mpu/nxp/frdm-imx8mp/tmp/work/imx8mpfrdm-poky-linux/imx-atf/2.10+git/git/build-optee/imx8mp/release/bl31/bakery_lock_coherent.o
 .comment       0x0000000000000012       0x13 /home/mx3g/linux/mpu/nxp/frdm-imx8mp/tmp/work/imx8mpfrdm-poky-linux/imx-atf/2.10+git/git/build-optee/imx8mp/release/bl31/psci_common.o
 .comment       0x0000000000000012       0x13 /home/mx3g/linux/mpu/nxp/frdm-imx8mp/tmp/work/imx8mpfrdm-poky-linux/imx-atf/2.10+git/git/build-optee/imx8mp/release/bl31/psci_main.o
 .comment       0x0000000000000012       0x13 /home/mx3g/linux/mpu/nxp/frdm-imx8mp/tmp/work/imx8mpfrdm-poky-linux/imx-atf/2.10+git/git/build-optee/imx8mp/release/bl31/psci_mem_protect.o
 .comment       0x0000000000000012       0x13 /home/mx3g/linux/mpu/nxp/frdm-imx8mp/tmp/work/imx8mpfrdm-poky-linux/imx-atf/2.10+git/git/build-optee/imx8mp/release/bl31/psci_off.o
 .comment       0x0000000000000012       0x13 /home/mx3g/linux/mpu/nxp/frdm-imx8mp/tmp/work/imx8mpfrdm-poky-linux/imx-atf/2.10+git/git/build-optee/imx8mp/release/bl31/psci_on.o
 .comment       0x0000000000000012       0x13 /home/mx3g/linux/mpu/nxp/frdm-imx8mp/tmp/work/imx8mpfrdm-poky-linux/imx-atf/2.10+git/git/build-optee/imx8mp/release/bl31/psci_setup.o
 .comment       0x0000000000000012       0x13 /home/mx3g/linux/mpu/nxp/frdm-imx8mp/tmp/work/imx8mpfrdm-poky-linux/imx-atf/2.10+git/git/build-optee/imx8mp/release/bl31/psci_suspend.o
 .comment       0x0000000000000012       0x13 /home/mx3g/linux/mpu/nxp/frdm-imx8mp/tmp/work/imx8mpfrdm-poky-linux/imx-atf/2.10+git/git/build-optee/imx8mp/release/bl31/psci_system_off.o
 .comment       0x0000000000000012       0x13 /home/mx3g/linux/mpu/nxp/frdm-imx8mp/tmp/work/imx8mpfrdm-poky-linux/imx-atf/2.10+git/git/build-optee/imx8mp/release/bl31/xlat_tables_arch.o
 .comment       0x0000000000000012       0x13 /home/mx3g/linux/mpu/nxp/frdm-imx8mp/tmp/work/imx8mpfrdm-poky-linux/imx-atf/2.10+git/git/build-optee/imx8mp/release/bl31/xlat_tables_context.o
 .comment       0x0000000000000012       0x13 /home/mx3g/linux/mpu/nxp/frdm-imx8mp/tmp/work/imx8mpfrdm-poky-linux/imx-atf/2.10+git/git/build-optee/imx8mp/release/bl31/xlat_tables_core.o
 .comment       0x0000000000000012       0x13 /home/mx3g/linux/mpu/nxp/frdm-imx8mp/tmp/work/imx8mpfrdm-poky-linux/imx-atf/2.10+git/git/build-optee/imx8mp/release/bl31/xlat_tables_utils.o
 .comment       0x0000000000000012       0x13 /home/mx3g/linux/mpu/nxp/frdm-imx8mp/tmp/work/imx8mpfrdm-poky-linux/imx-atf/2.10+git/git/build-optee/imx8mp/release/bl31/plat_common.o
 .comment       0x0000000000000012       0x13 /home/mx3g/linux/mpu/nxp/frdm-imx8mp/tmp/work/imx8mpfrdm-poky-linux/imx-atf/2.10+git/git/build-optee/imx8mp/release/bl31/plat_bl_common.o
 .comment       0x0000000000000012       0x13 /home/mx3g/linux/mpu/nxp/frdm-imx8mp/tmp/work/imx8mpfrdm-poky-linux/imx-atf/2.10+git/git/build-optee/imx8mp/release/bl31/plat_gicv3.o
 .comment       0x0000000000000012       0x13 /home/mx3g/linux/mpu/nxp/frdm-imx8mp/tmp/work/imx8mpfrdm-poky-linux/imx-atf/2.10+git/git/build-optee/imx8mp/release/bl31/plat_log_common.o
 .comment       0x0000000000000012       0x13 /home/mx3g/linux/mpu/nxp/frdm-imx8mp/tmp/work/imx8mpfrdm-poky-linux/imx-atf/2.10+git/git/build-optee/imx8mp/release/bl31/plat_psci_common.o
 .comment       0x0000000000000012       0x13 /home/mx3g/linux/mpu/nxp/frdm-imx8mp/tmp/work/imx8mpfrdm-poky-linux/imx-atf/2.10+git/git/build-optee/imx8mp/release/bl31/imx8_topology.o
 .comment       0x0000000000000012       0x13 /home/mx3g/linux/mpu/nxp/frdm-imx8mp/tmp/work/imx8mpfrdm-poky-linux/imx-atf/2.10+git/git/build-optee/imx8mp/release/bl31/imx_sip_handler.o
 .comment       0x0000000000000012       0x13 /home/mx3g/linux/mpu/nxp/frdm-imx8mp/tmp/work/imx8mpfrdm-poky-linux/imx-atf/2.10+git/git/build-optee/imx8mp/release/bl31/imx_sip_svc.o
 .comment       0x0000000000000012       0x13 /home/mx3g/linux/mpu/nxp/frdm-imx8mp/tmp/work/imx8mpfrdm-poky-linux/imx-atf/2.10+git/git/build-optee/imx8mp/release/bl31/plat_imx8_gic.o
 .comment       0x0000000000000012       0x13 /home/mx3g/linux/mpu/nxp/frdm-imx8mp/tmp/work/imx8mpfrdm-poky-linux/imx-atf/2.10+git/git/build-optee/imx8mp/release/bl31/clock.o
 .comment       0x0000000000000012       0x13 /home/mx3g/linux/mpu/nxp/frdm-imx8mp/tmp/work/imx8mpfrdm-poky-linux/imx-atf/2.10+git/git/build-optee/imx8mp/release/bl31/ddr4_dvfs.o
 .comment       0x0000000000000012       0x13 /home/mx3g/linux/mpu/nxp/frdm-imx8mp/tmp/work/imx8mpfrdm-poky-linux/imx-atf/2.10+git/git/build-optee/imx8mp/release/bl31/dram.o
 .comment       0x0000000000000012       0x13 /home/mx3g/linux/mpu/nxp/frdm-imx8mp/tmp/work/imx8mpfrdm-poky-linux/imx-atf/2.10+git/git/build-optee/imx8mp/release/bl31/dram_retention.o
 .comment       0x0000000000000012       0x13 /home/mx3g/linux/mpu/nxp/frdm-imx8mp/tmp/work/imx8mpfrdm-poky-linux/imx-atf/2.10+git/git/build-optee/imx8mp/release/bl31/lpddr4_dvfs.o
 .comment       0x0000000000000012       0x13 /home/mx3g/linux/mpu/nxp/frdm-imx8mp/tmp/work/imx8mpfrdm-poky-linux/imx-atf/2.10+git/git/build-optee/imx8mp/release/bl31/gpc_common.o
 .comment       0x0000000000000012       0x13 /home/mx3g/linux/mpu/nxp/frdm-imx8mp/tmp/work/imx8mpfrdm-poky-linux/imx-atf/2.10+git/git/build-optee/imx8mp/release/bl31/imx8m_caam.o
 .comment       0x0000000000000012       0x13 /home/mx3g/linux/mpu/nxp/frdm-imx8mp/tmp/work/imx8mpfrdm-poky-linux/imx-atf/2.10+git/git/build-optee/imx8mp/release/bl31/imx8m_csu.o
 .comment       0x0000000000000012       0x13 /home/mx3g/linux/mpu/nxp/frdm-imx8mp/tmp/work/imx8mpfrdm-poky-linux/imx-atf/2.10+git/git/build-optee/imx8mp/release/bl31/imx8m_psci_common.o
 .comment       0x0000000000000012       0x13 /home/mx3g/linux/mpu/nxp/frdm-imx8mp/tmp/work/imx8mpfrdm-poky-linux/imx-atf/2.10+git/git/build-optee/imx8mp/release/bl31/gpc.o
 .comment       0x0000000000000012       0x13 /home/mx3g/linux/mpu/nxp/frdm-imx8mp/tmp/work/imx8mpfrdm-poky-linux/imx-atf/2.10+git/git/build-optee/imx8mp/release/bl31/imx8mp_bl31_setup.o
 .comment       0x0000000000000012       0x13 /home/mx3g/linux/mpu/nxp/frdm-imx8mp/tmp/work/imx8mpfrdm-poky-linux/imx-atf/2.10+git/git/build-optee/imx8mp/release/bl31/imx8mp_psci.o
 .comment       0x0000000000000012       0x13 /home/mx3g/linux/mpu/nxp/frdm-imx8mp/tmp/work/imx8mpfrdm-poky-linux/imx-atf/2.10+git/git/build-optee/imx8mp/release/bl31/imx_aipstz.o
 .comment       0x0000000000000012       0x13 /home/mx3g/linux/mpu/nxp/frdm-imx8mp/tmp/work/imx8mpfrdm-poky-linux/imx-atf/2.10+git/git/build-optee/imx8mp/release/bl31/imx_hab.o
 .comment       0x0000000000000012       0x13 /home/mx3g/linux/mpu/nxp/frdm-imx8mp/tmp/work/imx8mpfrdm-poky-linux/imx-atf/2.10+git/git/build-optee/imx8mp/release/bl31/imx_rdc.o
 .comment       0x0000000000000012       0x13 /home/mx3g/linux/mpu/nxp/frdm-imx8mp/tmp/work/imx8mpfrdm-poky-linux/imx-atf/2.10+git/git/build-optee/imx8mp/release/bl31/arm_arch_svc_setup.o
 .comment       0x0000000000000012       0x13 /home/mx3g/linux/mpu/nxp/frdm-imx8mp/tmp/work/imx8mpfrdm-poky-linux/imx-atf/2.10+git/git/build-optee/imx8mp/release/bl31/opteed_common.o
 .comment       0x0000000000000012       0x13 /home/mx3g/linux/mpu/nxp/frdm-imx8mp/tmp/work/imx8mpfrdm-poky-linux/imx-atf/2.10+git/git/build-optee/imx8mp/release/bl31/opteed_main.o
 .comment       0x0000000000000012       0x13 /home/mx3g/linux/mpu/nxp/frdm-imx8mp/tmp/work/imx8mpfrdm-poky-linux/imx-atf/2.10+git/git/build-optee/imx8mp/release/bl31/opteed_pm.o
 .comment       0x0000000000000012       0x13 /home/mx3g/linux/mpu/nxp/frdm-imx8mp/tmp/work/imx8mpfrdm-poky-linux/imx-atf/2.10+git/git/build-optee/imx8mp/release/bl31/std_svc_setup.o
 .comment       0x0000000000000012       0x13 /home/mx3g/linux/mpu/nxp/frdm-imx8mp/tmp/work/imx8mpfrdm-poky-linux/imx-atf/2.10+git/git/build-optee/imx8mp/release/lib/libc.a(memcmp.o)
 .comment       0x0000000000000012       0x13 /home/mx3g/linux/mpu/nxp/frdm-imx8mp/tmp/work/imx8mpfrdm-poky-linux/imx-atf/2.10+git/git/build-optee/imx8mp/release/lib/libc.a(memcpy.o)
 .comment       0x0000000000000012       0x13 /home/mx3g/linux/mpu/nxp/frdm-imx8mp/tmp/work/imx8mpfrdm-poky-linux/imx-atf/2.10+git/git/build-optee/imx8mp/release/lib/libc.a(memmove.o)
 .comment       0x0000000000000012       0x13 /home/mx3g/linux/mpu/nxp/frdm-imx8mp/tmp/work/imx8mpfrdm-poky-linux/imx-atf/2.10+git/git/build-optee/imx8mp/release/lib/libc.a(memset.o)
 .comment       0x0000000000000012       0x13 /home/mx3g/linux/mpu/nxp/frdm-imx8mp/tmp/work/imx8mpfrdm-poky-linux/imx-atf/2.10+git/git/build-optee/imx8mp/release/lib/libc.a(printf.o)
 .comment       0x0000000000000012       0x13 /home/mx3g/linux/mpu/nxp/frdm-imx8mp/tmp/work/imx8mpfrdm-poky-linux/imx-atf/2.10+git/git/build-optee/imx8mp/release/lib/libc.a(strchr.o)
 .comment       0x0000000000000012       0x13 /home/mx3g/linux/mpu/nxp/frdm-imx8mp/tmp/work/imx8mpfrdm-poky-linux/imx-atf/2.10+git/git/build-optee/imx8mp/release/lib/libc.a(strlen.o)

.note.GNU-stack
                0x0000000000000000        0x0
 .note.GNU-stack
                0x0000000000000000        0x0 /home/mx3g/linux/mpu/nxp/frdm-imx8mp/tmp/work/imx8mpfrdm-poky-linux/imx-atf/2.10+git/git/build-optee/imx8mp/release/bl31/build_message.o
 .note.GNU-stack
                0x0000000000000000        0x0 /home/mx3g/linux/mpu/nxp/frdm-imx8mp/tmp/work/imx8mpfrdm-poky-linux/imx-atf/2.10+git/git/build-optee/imx8mp/release/bl31/bl31_context_mgmt.o
 .note.GNU-stack
                0x0000000000000000        0x0 /home/mx3g/linux/mpu/nxp/frdm-imx8mp/tmp/work/imx8mpfrdm-poky-linux/imx-atf/2.10+git/git/build-optee/imx8mp/release/bl31/bl31_main.o
 .note.GNU-stack
                0x0000000000000000        0x0 /home/mx3g/linux/mpu/nxp/frdm-imx8mp/tmp/work/imx8mpfrdm-poky-linux/imx-atf/2.10+git/git/build-optee/imx8mp/release/bl31/bl31_traps.o
 .note.GNU-stack
                0x0000000000000000        0x0 /home/mx3g/linux/mpu/nxp/frdm-imx8mp/tmp/work/imx8mpfrdm-poky-linux/imx-atf/2.10+git/git/build-optee/imx8mp/release/bl31/interrupt_mgmt.o
 .note.GNU-stack
                0x0000000000000000        0x0 /home/mx3g/linux/mpu/nxp/frdm-imx8mp/tmp/work/imx8mpfrdm-poky-linux/imx-atf/2.10+git/git/build-optee/imx8mp/release/bl31/bl_common.o
 .note.GNU-stack
                0x0000000000000000        0x0 /home/mx3g/linux/mpu/nxp/frdm-imx8mp/tmp/work/imx8mpfrdm-poky-linux/imx-atf/2.10+git/git/build-optee/imx8mp/release/bl31/runtime_svc.o
 .note.GNU-stack
                0x0000000000000000        0x0 /home/mx3g/linux/mpu/nxp/frdm-imx8mp/tmp/work/imx8mpfrdm-poky-linux/imx-atf/2.10+git/git/build-optee/imx8mp/release/bl31/tf_log.o
 .note.GNU-stack
                0x0000000000000000        0x0 /home/mx3g/linux/mpu/nxp/frdm-imx8mp/tmp/work/imx8mpfrdm-poky-linux/imx-atf/2.10+git/git/build-optee/imx8mp/release/bl31/arm_gicv3_common.o
 .note.GNU-stack
                0x0000000000000000        0x0 /home/mx3g/linux/mpu/nxp/frdm-imx8mp/tmp/work/imx8mpfrdm-poky-linux/imx-atf/2.10+git/git/build-optee/imx8mp/release/bl31/gic-x00.o
 .note.GNU-stack
                0x0000000000000000        0x0 /home/mx3g/linux/mpu/nxp/frdm-imx8mp/tmp/work/imx8mpfrdm-poky-linux/imx-atf/2.10+git/git/build-optee/imx8mp/release/bl31/gicdv3_helpers.o
 .note.GNU-stack
                0x0000000000000000        0x0 /home/mx3g/linux/mpu/nxp/frdm-imx8mp/tmp/work/imx8mpfrdm-poky-linux/imx-atf/2.10+git/git/build-optee/imx8mp/release/bl31/gicrv3_helpers.o
 .note.GNU-stack
                0x0000000000000000        0x0 /home/mx3g/linux/mpu/nxp/frdm-imx8mp/tmp/work/imx8mpfrdm-poky-linux/imx-atf/2.10+git/git/build-optee/imx8mp/release/bl31/gicv3_helpers.o
 .note.GNU-stack
                0x0000000000000000        0x0 /home/mx3g/linux/mpu/nxp/frdm-imx8mp/tmp/work/imx8mpfrdm-poky-linux/imx-atf/2.10+git/git/build-optee/imx8mp/release/bl31/gicv3_main.o
 .note.GNU-stack
                0x0000000000000000        0x0 /home/mx3g/linux/mpu/nxp/frdm-imx8mp/tmp/work/imx8mpfrdm-poky-linux/imx-atf/2.10+git/git/build-optee/imx8mp/release/bl31/tzc380.o
 .note.GNU-stack
                0x0000000000000000        0x0 /home/mx3g/linux/mpu/nxp/frdm-imx8mp/tmp/work/imx8mpfrdm-poky-linux/imx-atf/2.10+git/git/build-optee/imx8mp/release/bl31/multi_console.o
 .note.GNU-stack
                0x0000000000000000        0x0 /home/mx3g/linux/mpu/nxp/frdm-imx8mp/tmp/work/imx8mpfrdm-poky-linux/imx-atf/2.10+git/git/build-optee/imx8mp/release/bl31/delay_timer.o
 .note.GNU-stack
                0x0000000000000000        0x0 /home/mx3g/linux/mpu/nxp/frdm-imx8mp/tmp/work/imx8mpfrdm-poky-linux/imx-atf/2.10+git/git/build-optee/imx8mp/release/bl31/generic_delay_timer.o
 .note.GNU-stack
                0x0000000000000000        0x0 /home/mx3g/linux/mpu/nxp/frdm-imx8mp/tmp/work/imx8mpfrdm-poky-linux/imx-atf/2.10+git/git/build-optee/imx8mp/release/bl31/errata_report.o
 .note.GNU-stack
                0x0000000000000000        0x0 /home/mx3g/linux/mpu/nxp/frdm-imx8mp/tmp/work/imx8mpfrdm-poky-linux/imx-atf/2.10+git/git/build-optee/imx8mp/release/bl31/context_mgmt.o
 .note.GNU-stack
                0x0000000000000000        0x0 /home/mx3g/linux/mpu/nxp/frdm-imx8mp/tmp/work/imx8mpfrdm-poky-linux/imx-atf/2.10+git/git/build-optee/imx8mp/release/bl31/cpu_data_array.o
 .note.GNU-stack
                0x0000000000000000        0x0 /home/mx3g/linux/mpu/nxp/frdm-imx8mp/tmp/work/imx8mpfrdm-poky-linux/imx-atf/2.10+git/git/build-optee/imx8mp/release/bl31/mpam.o
 .note.GNU-stack
                0x0000000000000000        0x0 /home/mx3g/linux/mpu/nxp/frdm-imx8mp/tmp/work/imx8mpfrdm-poky-linux/imx-atf/2.10+git/git/build-optee/imx8mp/release/bl31/pmuv3.o
 .note.GNU-stack
                0x0000000000000000        0x0 /home/mx3g/linux/mpu/nxp/frdm-imx8mp/tmp/work/imx8mpfrdm-poky-linux/imx-atf/2.10+git/git/build-optee/imx8mp/release/bl31/spe.o
 .note.GNU-stack
                0x0000000000000000        0x0 /home/mx3g/linux/mpu/nxp/frdm-imx8mp/tmp/work/imx8mpfrdm-poky-linux/imx-atf/2.10+git/git/build-optee/imx8mp/release/bl31/sve.o
 .note.GNU-stack
                0x0000000000000000        0x0 /home/mx3g/linux/mpu/nxp/frdm-imx8mp/tmp/work/imx8mpfrdm-poky-linux/imx-atf/2.10+git/git/build-optee/imx8mp/release/bl31/bakery_lock_coherent.o
 .note.GNU-stack
                0x0000000000000000        0x0 /home/mx3g/linux/mpu/nxp/frdm-imx8mp/tmp/work/imx8mpfrdm-poky-linux/imx-atf/2.10+git/git/build-optee/imx8mp/release/bl31/psci_common.o
 .note.GNU-stack
                0x0000000000000000        0x0 /home/mx3g/linux/mpu/nxp/frdm-imx8mp/tmp/work/imx8mpfrdm-poky-linux/imx-atf/2.10+git/git/build-optee/imx8mp/release/bl31/psci_main.o
 .note.GNU-stack
                0x0000000000000000        0x0 /home/mx3g/linux/mpu/nxp/frdm-imx8mp/tmp/work/imx8mpfrdm-poky-linux/imx-atf/2.10+git/git/build-optee/imx8mp/release/bl31/psci_mem_protect.o
 .note.GNU-stack
                0x0000000000000000        0x0 /home/mx3g/linux/mpu/nxp/frdm-imx8mp/tmp/work/imx8mpfrdm-poky-linux/imx-atf/2.10+git/git/build-optee/imx8mp/release/bl31/psci_off.o
 .note.GNU-stack
                0x0000000000000000        0x0 /home/mx3g/linux/mpu/nxp/frdm-imx8mp/tmp/work/imx8mpfrdm-poky-linux/imx-atf/2.10+git/git/build-optee/imx8mp/release/bl31/psci_on.o
 .note.GNU-stack
                0x0000000000000000        0x0 /home/mx3g/linux/mpu/nxp/frdm-imx8mp/tmp/work/imx8mpfrdm-poky-linux/imx-atf/2.10+git/git/build-optee/imx8mp/release/bl31/psci_setup.o
 .note.GNU-stack
                0x0000000000000000        0x0 /home/mx3g/linux/mpu/nxp/frdm-imx8mp/tmp/work/imx8mpfrdm-poky-linux/imx-atf/2.10+git/git/build-optee/imx8mp/release/bl31/psci_suspend.o
 .note.GNU-stack
                0x0000000000000000        0x0 /home/mx3g/linux/mpu/nxp/frdm-imx8mp/tmp/work/imx8mpfrdm-poky-linux/imx-atf/2.10+git/git/build-optee/imx8mp/release/bl31/psci_system_off.o
 .note.GNU-stack
                0x0000000000000000        0x0 /home/mx3g/linux/mpu/nxp/frdm-imx8mp/tmp/work/imx8mpfrdm-poky-linux/imx-atf/2.10+git/git/build-optee/imx8mp/release/bl31/xlat_tables_arch.o
 .note.GNU-stack
                0x0000000000000000        0x0 /home/mx3g/linux/mpu/nxp/frdm-imx8mp/tmp/work/imx8mpfrdm-poky-linux/imx-atf/2.10+git/git/build-optee/imx8mp/release/bl31/xlat_tables_context.o
 .note.GNU-stack
                0x0000000000000000        0x0 /home/mx3g/linux/mpu/nxp/frdm-imx8mp/tmp/work/imx8mpfrdm-poky-linux/imx-atf/2.10+git/git/build-optee/imx8mp/release/bl31/xlat_tables_core.o
 .note.GNU-stack
                0x0000000000000000        0x0 /home/mx3g/linux/mpu/nxp/frdm-imx8mp/tmp/work/imx8mpfrdm-poky-linux/imx-atf/2.10+git/git/build-optee/imx8mp/release/bl31/xlat_tables_utils.o
 .note.GNU-stack
                0x0000000000000000        0x0 /home/mx3g/linux/mpu/nxp/frdm-imx8mp/tmp/work/imx8mpfrdm-poky-linux/imx-atf/2.10+git/git/build-optee/imx8mp/release/bl31/plat_common.o
 .note.GNU-stack
                0x0000000000000000        0x0 /home/mx3g/linux/mpu/nxp/frdm-imx8mp/tmp/work/imx8mpfrdm-poky-linux/imx-atf/2.10+git/git/build-optee/imx8mp/release/bl31/plat_bl_common.o
 .note.GNU-stack
                0x0000000000000000        0x0 /home/mx3g/linux/mpu/nxp/frdm-imx8mp/tmp/work/imx8mpfrdm-poky-linux/imx-atf/2.10+git/git/build-optee/imx8mp/release/bl31/plat_gicv3.o
 .note.GNU-stack
                0x0000000000000000        0x0 /home/mx3g/linux/mpu/nxp/frdm-imx8mp/tmp/work/imx8mpfrdm-poky-linux/imx-atf/2.10+git/git/build-optee/imx8mp/release/bl31/plat_log_common.o
 .note.GNU-stack
                0x0000000000000000        0x0 /home/mx3g/linux/mpu/nxp/frdm-imx8mp/tmp/work/imx8mpfrdm-poky-linux/imx-atf/2.10+git/git/build-optee/imx8mp/release/bl31/plat_psci_common.o
 .note.GNU-stack
                0x0000000000000000        0x0 /home/mx3g/linux/mpu/nxp/frdm-imx8mp/tmp/work/imx8mpfrdm-poky-linux/imx-atf/2.10+git/git/build-optee/imx8mp/release/bl31/imx8_topology.o
 .note.GNU-stack
                0x0000000000000000        0x0 /home/mx3g/linux/mpu/nxp/frdm-imx8mp/tmp/work/imx8mpfrdm-poky-linux/imx-atf/2.10+git/git/build-optee/imx8mp/release/bl31/imx_sip_handler.o
 .note.GNU-stack
                0x0000000000000000        0x0 /home/mx3g/linux/mpu/nxp/frdm-imx8mp/tmp/work/imx8mpfrdm-poky-linux/imx-atf/2.10+git/git/build-optee/imx8mp/release/bl31/imx_sip_svc.o
 .note.GNU-stack
                0x0000000000000000        0x0 /home/mx3g/linux/mpu/nxp/frdm-imx8mp/tmp/work/imx8mpfrdm-poky-linux/imx-atf/2.10+git/git/build-optee/imx8mp/release/bl31/plat_imx8_gic.o
 .note.GNU-stack
                0x0000000000000000        0x0 /home/mx3g/linux/mpu/nxp/frdm-imx8mp/tmp/work/imx8mpfrdm-poky-linux/imx-atf/2.10+git/git/build-optee/imx8mp/release/bl31/clock.o
 .note.GNU-stack
                0x0000000000000000        0x0 /home/mx3g/linux/mpu/nxp/frdm-imx8mp/tmp/work/imx8mpfrdm-poky-linux/imx-atf/2.10+git/git/build-optee/imx8mp/release/bl31/ddr4_dvfs.o
 .note.GNU-stack
                0x0000000000000000        0x0 /home/mx3g/linux/mpu/nxp/frdm-imx8mp/tmp/work/imx8mpfrdm-poky-linux/imx-atf/2.10+git/git/build-optee/imx8mp/release/bl31/dram.o
 .note.GNU-stack
                0x0000000000000000        0x0 /home/mx3g/linux/mpu/nxp/frdm-imx8mp/tmp/work/imx8mpfrdm-poky-linux/imx-atf/2.10+git/git/build-optee/imx8mp/release/bl31/dram_retention.o
 .note.GNU-stack
                0x0000000000000000        0x0 /home/mx3g/linux/mpu/nxp/frdm-imx8mp/tmp/work/imx8mpfrdm-poky-linux/imx-atf/2.10+git/git/build-optee/imx8mp/release/bl31/lpddr4_dvfs.o
 .note.GNU-stack
                0x0000000000000000        0x0 /home/mx3g/linux/mpu/nxp/frdm-imx8mp/tmp/work/imx8mpfrdm-poky-linux/imx-atf/2.10+git/git/build-optee/imx8mp/release/bl31/gpc_common.o
 .note.GNU-stack
                0x0000000000000000        0x0 /home/mx3g/linux/mpu/nxp/frdm-imx8mp/tmp/work/imx8mpfrdm-poky-linux/imx-atf/2.10+git/git/build-optee/imx8mp/release/bl31/imx8m_caam.o
 .note.GNU-stack
                0x0000000000000000        0x0 /home/mx3g/linux/mpu/nxp/frdm-imx8mp/tmp/work/imx8mpfrdm-poky-linux/imx-atf/2.10+git/git/build-optee/imx8mp/release/bl31/imx8m_csu.o
 .note.GNU-stack
                0x0000000000000000        0x0 /home/mx3g/linux/mpu/nxp/frdm-imx8mp/tmp/work/imx8mpfrdm-poky-linux/imx-atf/2.10+git/git/build-optee/imx8mp/release/bl31/imx8m_psci_common.o
 .note.GNU-stack
                0x0000000000000000        0x0 /home/mx3g/linux/mpu/nxp/frdm-imx8mp/tmp/work/imx8mpfrdm-poky-linux/imx-atf/2.10+git/git/build-optee/imx8mp/release/bl31/gpc.o
 .note.GNU-stack
                0x0000000000000000        0x0 /home/mx3g/linux/mpu/nxp/frdm-imx8mp/tmp/work/imx8mpfrdm-poky-linux/imx-atf/2.10+git/git/build-optee/imx8mp/release/bl31/imx8mp_bl31_setup.o
 .note.GNU-stack
                0x0000000000000000        0x0 /home/mx3g/linux/mpu/nxp/frdm-imx8mp/tmp/work/imx8mpfrdm-poky-linux/imx-atf/2.10+git/git/build-optee/imx8mp/release/bl31/imx8mp_psci.o
 .note.GNU-stack
                0x0000000000000000        0x0 /home/mx3g/linux/mpu/nxp/frdm-imx8mp/tmp/work/imx8mpfrdm-poky-linux/imx-atf/2.10+git/git/build-optee/imx8mp/release/bl31/imx_aipstz.o
 .note.GNU-stack
                0x0000000000000000        0x0 /home/mx3g/linux/mpu/nxp/frdm-imx8mp/tmp/work/imx8mpfrdm-poky-linux/imx-atf/2.10+git/git/build-optee/imx8mp/release/bl31/imx_hab.o
 .note.GNU-stack
                0x0000000000000000        0x0 /home/mx3g/linux/mpu/nxp/frdm-imx8mp/tmp/work/imx8mpfrdm-poky-linux/imx-atf/2.10+git/git/build-optee/imx8mp/release/bl31/imx_rdc.o
 .note.GNU-stack
                0x0000000000000000        0x0 /home/mx3g/linux/mpu/nxp/frdm-imx8mp/tmp/work/imx8mpfrdm-poky-linux/imx-atf/2.10+git/git/build-optee/imx8mp/release/bl31/arm_arch_svc_setup.o
 .note.GNU-stack
                0x0000000000000000        0x0 /home/mx3g/linux/mpu/nxp/frdm-imx8mp/tmp/work/imx8mpfrdm-poky-linux/imx-atf/2.10+git/git/build-optee/imx8mp/release/bl31/opteed_common.o
 .note.GNU-stack
                0x0000000000000000        0x0 /home/mx3g/linux/mpu/nxp/frdm-imx8mp/tmp/work/imx8mpfrdm-poky-linux/imx-atf/2.10+git/git/build-optee/imx8mp/release/bl31/opteed_main.o
 .note.GNU-stack
                0x0000000000000000        0x0 /home/mx3g/linux/mpu/nxp/frdm-imx8mp/tmp/work/imx8mpfrdm-poky-linux/imx-atf/2.10+git/git/build-optee/imx8mp/release/bl31/opteed_pm.o
 .note.GNU-stack
                0x0000000000000000        0x0 /home/mx3g/linux/mpu/nxp/frdm-imx8mp/tmp/work/imx8mpfrdm-poky-linux/imx-atf/2.10+git/git/build-optee/imx8mp/release/bl31/std_svc_setup.o
 .note.GNU-stack
                0x0000000000000000        0x0 /home/mx3g/linux/mpu/nxp/frdm-imx8mp/tmp/work/imx8mpfrdm-poky-linux/imx-atf/2.10+git/git/build-optee/imx8mp/release/lib/libc.a(memcmp.o)
 .note.GNU-stack
                0x0000000000000000        0x0 /home/mx3g/linux/mpu/nxp/frdm-imx8mp/tmp/work/imx8mpfrdm-poky-linux/imx-atf/2.10+git/git/build-optee/imx8mp/release/lib/libc.a(memcpy.o)
 .note.GNU-stack
                0x0000000000000000        0x0 /home/mx3g/linux/mpu/nxp/frdm-imx8mp/tmp/work/imx8mpfrdm-poky-linux/imx-atf/2.10+git/git/build-optee/imx8mp/release/lib/libc.a(memmove.o)
 .note.GNU-stack
                0x0000000000000000        0x0 /home/mx3g/linux/mpu/nxp/frdm-imx8mp/tmp/work/imx8mpfrdm-poky-linux/imx-atf/2.10+git/git/build-optee/imx8mp/release/lib/libc.a(memset.o)
 .note.GNU-stack
                0x0000000000000000        0x0 /home/mx3g/linux/mpu/nxp/frdm-imx8mp/tmp/work/imx8mpfrdm-poky-linux/imx-atf/2.10+git/git/build-optee/imx8mp/release/lib/libc.a(printf.o)
 .note.GNU-stack
                0x0000000000000000        0x0 /home/mx3g/linux/mpu/nxp/frdm-imx8mp/tmp/work/imx8mpfrdm-poky-linux/imx-atf/2.10+git/git/build-optee/imx8mp/release/lib/libc.a(strchr.o)
 .note.GNU-stack
                0x0000000000000000        0x0 /home/mx3g/linux/mpu/nxp/frdm-imx8mp/tmp/work/imx8mpfrdm-poky-linux/imx-atf/2.10+git/git/build-optee/imx8mp/release/lib/libc.a(strlen.o)

.debug_frame    0x0000000000000000      0xcd8
 .debug_frame   0x0000000000000000       0x40 /home/mx3g/linux/mpu/nxp/frdm-imx8mp/tmp/work/imx8mpfrdm-poky-linux/imx-atf/2.10+git/git/build-optee/imx8mp/release/bl31/bl31_entrypoint.o
 .debug_frame   0x0000000000000040       0x40 /home/mx3g/linux/mpu/nxp/frdm-imx8mp/tmp/work/imx8mpfrdm-poky-linux/imx-atf/2.10+git/git/build-optee/imx8mp/release/bl31/crash_reporting.o
 .debug_frame   0x0000000000000080      0x1f0 /home/mx3g/linux/mpu/nxp/frdm-imx8mp/tmp/work/imx8mpfrdm-poky-linux/imx-atf/2.10+git/git/build-optee/imx8mp/release/bl31/runtime_exceptions.o
 .debug_frame   0x0000000000000270       0x88 /home/mx3g/linux/mpu/nxp/frdm-imx8mp/tmp/work/imx8mpfrdm-poky-linux/imx-atf/2.10+git/git/build-optee/imx8mp/release/bl31/debug.o
 .debug_frame   0x00000000000002f8      0x100 /home/mx3g/linux/mpu/nxp/frdm-imx8mp/tmp/work/imx8mpfrdm-poky-linux/imx-atf/2.10+git/git/build-optee/imx8mp/release/bl31/cache_helpers.o
 .debug_frame   0x00000000000003f8      0x100 /home/mx3g/linux/mpu/nxp/frdm-imx8mp/tmp/work/imx8mpfrdm-poky-linux/imx-atf/2.10+git/git/build-optee/imx8mp/release/bl31/misc_helpers.o
 .debug_frame   0x00000000000004f8      0x1c0 /home/mx3g/linux/mpu/nxp/frdm-imx8mp/tmp/work/imx8mpfrdm-poky-linux/imx-atf/2.10+git/git/build-optee/imx8mp/release/bl31/cortex_a53.o
 .debug_frame   0x00000000000006b8      0x118 /home/mx3g/linux/mpu/nxp/frdm-imx8mp/tmp/work/imx8mpfrdm-poky-linux/imx-atf/2.10+git/git/build-optee/imx8mp/release/bl31/cpu_helpers.o
 .debug_frame   0x00000000000007d0       0xa0 /home/mx3g/linux/mpu/nxp/frdm-imx8mp/tmp/work/imx8mpfrdm-poky-linux/imx-atf/2.10+git/git/build-optee/imx8mp/release/bl31/context.o
 .debug_frame   0x0000000000000870       0x40 /home/mx3g/linux/mpu/nxp/frdm-imx8mp/tmp/work/imx8mpfrdm-poky-linux/imx-atf/2.10+git/git/build-optee/imx8mp/release/bl31/cpu_data.o
 .debug_frame   0x00000000000008b0       0x40 /home/mx3g/linux/mpu/nxp/frdm-imx8mp/tmp/work/imx8mpfrdm-poky-linux/imx-atf/2.10+git/git/build-optee/imx8mp/release/bl31/spinlock.o
 .debug_frame   0x00000000000008f0       0x58 /home/mx3g/linux/mpu/nxp/frdm-imx8mp/tmp/work/imx8mpfrdm-poky-linux/imx-atf/2.10+git/git/build-optee/imx8mp/release/bl31/psci_helpers.o
 .debug_frame   0x0000000000000948       0x58 /home/mx3g/linux/mpu/nxp/frdm-imx8mp/tmp/work/imx8mpfrdm-poky-linux/imx-atf/2.10+git/git/build-optee/imx8mp/release/bl31/enable_mmu.o
 .debug_frame   0x00000000000009a0      0x100 /home/mx3g/linux/mpu/nxp/frdm-imx8mp/tmp/work/imx8mpfrdm-poky-linux/imx-atf/2.10+git/git/build-optee/imx8mp/release/bl31/platform_helpers.o
 .debug_frame   0x0000000000000aa0       0x40 /home/mx3g/linux/mpu/nxp/frdm-imx8mp/tmp/work/imx8mpfrdm-poky-linux/imx-atf/2.10+git/git/build-optee/imx8mp/release/bl31/platform_mp_stack.o
 .debug_frame   0x0000000000000ae0      0x130 /home/mx3g/linux/mpu/nxp/frdm-imx8mp/tmp/work/imx8mpfrdm-poky-linux/imx-atf/2.10+git/git/build-optee/imx8mp/release/bl31/imx8_helpers.o
 .debug_frame   0x0000000000000c10       0x88 /home/mx3g/linux/mpu/nxp/frdm-imx8mp/tmp/work/imx8mpfrdm-poky-linux/imx-atf/2.10+git/git/build-optee/imx8mp/release/bl31/imx_uart_console.o
 .debug_frame   0x0000000000000c98       0x40 /home/mx3g/linux/mpu/nxp/frdm-imx8mp/tmp/work/imx8mpfrdm-poky-linux/imx-atf/2.10+git/git/build-optee/imx8mp/release/bl31/opteed_helpers.o
