
/home/mx3g/linux/mpu/nxp/frdm-imx8mp/tmp/work/imx8mpfrdm-poky-linux/imx-atf/2.10+git/git/build-optee/imx8mp/release/bl31/bl31.elf:     file format elf64-littleaarch64
/home/mx3g/linux/mpu/nxp/frdm-imx8mp/tmp/work/imx8mpfrdm-poky-linux/imx-atf/2.10+git/git/build-optee/imx8mp/release/bl31/bl31.elf
architecture: aarch64, flags 0x00000112:
EXEC_P, HAS_SYMS, D_PAGED
start address 0x0000000000970000

Program Header:
    LOAD off    0x0000000000001000 vaddr 0x0000000000970000 paddr 0x0000000000970000 align 2**12
         filesz 0x000000000000bca8 memsz 0x000000000001c000 flags rwx
 DYNAMIC off    0x000000000000c2b0 vaddr 0x000000000097b2b0 paddr 0x000000000097b2b0 align 2**3
         filesz 0x00000000000000b0 memsz 0x00000000000000b0 flags rw-
   STACK off    0x0000000000000000 vaddr 0x0000000000000000 paddr 0x0000000000000000 align 2**4
         filesz 0x0000000000000000 memsz 0x0000000000000000 flags rw-

Dynamic Section:
  DEBUG                0x0000000000000000
  RELA                 0x000000000097b378
  RELASZ               0x0000000000000930
  RELAENT              0x0000000000000018
  FLAGS_1              0x0000000008000000
  RELACOUNT            0x0000000000000062
private flags = 0x0:

Sections:
Idx Name          Size      VMA               LMA               File off  Algn
  0 .ro           0000b000  0000000000970000  0000000000970000  00001000  2**11
                  CONTENTS, ALLOC, LOAD, CODE
  1 .data         000002ae  000000000097b000  000000000097b000  0000c000  2**3
                  CONTENTS, ALLOC, LOAD, DATA
  2 .dynamic      000000b0  000000000097b2b0  000000000097b2b0  0000c2b0  2**3
                  CONTENTS, ALLOC, LOAD, DATA
  3 .got.plt      00000018  000000000097b360  000000000097b360  0000c360  2**3
                  CONTENTS, ALLOC, LOAD, DATA
  4 .rela.dyn     00000930  000000000097b378  000000000097b378  0000c378  2**3
                  CONTENTS, ALLOC, LOAD, READONLY, DATA
  5 .stacks       00002c00  000000000097bcc0  000000000097bcc0  0000cca8  2**6
                  ALLOC
  6 .bss          00004300  000000000097e900  000000000097e900  0000cca8  2**7
                  ALLOC
  7 .xlat_table   00008000  0000000000983000  0000000000983000  0000cca8  2**12
                  ALLOC
  8 .coherent_ram 00001000  000000000098b000  000000000098b000  0000cca8  2**12
                  ALLOC
  9 .comment      00000012  0000000000000000  0000000000000000  0000cca8  2**0
                  CONTENTS, READONLY
 10 .debug_frame  00000cd8  0000000000000000  0000000000000000  0000ccc0  2**3
                  CONTENTS, READONLY, DEBUGGING, OCTETS
SYMBOL TABLE:
0000000000970000 l    d  .ro	0000000000000000 .ro
000000000097b000 l    d  .data	0000000000000000 .data
000000000097b2b0 l    d  .dynamic	0000000000000000 .dynamic
000000000097b360 l    d  .got.plt	0000000000000000 .got.plt
000000000097b378 l    d  .rela.dyn	0000000000000000 .rela.dyn
000000000097bcc0 l    d  .stacks	0000000000000000 .stacks
000000000097e900 l    d  .bss	0000000000000000 .bss
0000000000983000 l    d  .xlat_table	0000000000000000 .xlat_table
000000000098b000 l    d  .coherent_ram	0000000000000000 .coherent_ram
0000000000000000 l    d  .comment	0000000000000000 .comment
0000000000000000 l    d  .debug_frame	0000000000000000 .debug_frame
0000000000000000 l    df *ABS*	0000000000000000 bl31_entrypoint.o
000000000097002c l       .ro	0000000000000000 do_cold_boot
000000000097002c l       .ro	0000000000000000 pie_fixup
0000000000970098 l       .ro	0000000000000000 do_primary_cold_boot
0000000000970140 l       .ro	0000000000000000 stm
0000000000000000 l    df *ABS*	0000000000000000 bl31_context_mgmt.c
0000000000000000 l    df *ABS*	0000000000000000 bl31_main.c
000000000097b000 l     O .data	0000000000000010 psci_args.0
000000000097b220 l     O .data	0000000000000004 next_image_type
000000000097fc80 l     O .bss	0000000000000008 bl32_init
0000000000000000 l    df *ABS*	0000000000000000 bl31_traps.c
0000000000000000 l    df *ABS*	0000000000000000 interrupt_mgmt.c
0000000000970344 l     F .ro	0000000000000084 set_scr_el3_from_rm
000000000097fc88 l     O .bss	0000000000000060 intr_type_descs
0000000000000000 l    df *ABS*	0000000000000000 bl_common.c
0000000000000000 l    df *ABS*	0000000000000000 runtime_svc.c
0000000000000000 l    df *ABS*	0000000000000000 tf_log.c
000000000097b224 l     O .data	0000000000000004 max_log_level
0000000000000000 l    df *ABS*	0000000000000000 arm_gicv3_common.c
0000000000000000 l    df *ABS*	0000000000000000 gic-x00.c
0000000000000000 l    df *ABS*	0000000000000000 gicdv3_helpers.c
0000000000000000 l    df *ABS*	0000000000000000 gicrv3_helpers.c
0000000000000000 l    df *ABS*	0000000000000000 gicv3_helpers.c
0000000000000000 l    df *ABS*	0000000000000000 gicv3_main.c
0000000000970e40 l     F .ro	000000000000000c gicd_wait_for_pending_write
0000000000970e40 l     F .ro	000000000000000c gicr_wait_for_upstream_pending_write
0000000000970e4c l     F .ro	000000000000000c gicr_wait_for_pending_write
0000000000000000 l    df *ABS*	0000000000000000 tzc380.c
0000000000000000 l    df *ABS*	0000000000000000 multi_console.c
000000000097b2ac l     O .data	0000000000000001 console_state
0000000000000000 l    df *ABS*	0000000000000000 delay_timer.c
000000000097fd08 l     O .bss	0000000000000008 timer_ops
0000000000000000 l    df *ABS*	0000000000000000 generic_delay_timer.c
0000000000971988 l     F .ro	000000000000000c get_timer_value
000000000097fd10 l     O .bss	0000000000000010 ops
0000000000000000 l    df *ABS*	0000000000000000 errata_report.c
0000000000000000 l    df *ABS*	0000000000000000 context_mgmt.c
0000000000971a14 l     F .ro	000000000000001c read_feat_mpam_version
0000000000982b68 l     O .bss	0000000000000001 has_secure_perworld_init
0000000000000000 l    df *ABS*	0000000000000000 mpam.c
0000000000000000 l    df *ABS*	0000000000000000 pmuv3.c
0000000000000000 l    df *ABS*	0000000000000000 spe.c
0000000000971e98 l     F .ro	0000000000000024 spe_drain_buffers_hook
0000000000000000 l    df *ABS*	0000000000000000 sve.c
0000000000000000 l    df *ABS*	0000000000000000 bakery_lock_coherent.c
0000000000000000 l    df *ABS*	0000000000000000 psci_common.c
0000000000972000 l     F .ro	0000000000000034 psci_set_req_local_pwr_state
0000000000982b69 l     O .bss	0000000000000008 psci_req_local_pwr_states
0000000000000000 l    df *ABS*	0000000000000000 psci_main.c
00000000009727a0 l     F .ro	000000000000001c is_valid_mpidr
0000000000000000 l    df *ABS*	0000000000000000 psci_mem_protect.c
0000000000000000 l    df *ABS*	0000000000000000 psci_off.c
0000000000000000 l    df *ABS*	0000000000000000 psci_on.c
0000000000000000 l    df *ABS*	0000000000000000 psci_setup.c
000000000097ea00 l     O .bss	0000000000000900 psci_ns_context
0000000000000000 l    df *ABS*	0000000000000000 psci_suspend.c
0000000000000000 l    df *ABS*	0000000000000000 psci_system_off.c
0000000000000000 l    df *ABS*	0000000000000000 xlat_tables_arch.c
0000000000000000 l    df *ABS*	0000000000000000 xlat_tables_context.c
000000000097b010 l     O .data	0000000000000060 tf_xlat_ctx
000000000097fd90 l     O .bss	00000000000002a8 tf_mmap
0000000000983000 l     O .xlat_table	0000000000008000 tf_xlat_tables
0000000000982b80 l     O .bss	0000000000000080 tf_base_xlat_table
0000000000000000 l    df *ABS*	0000000000000000 xlat_tables_core.c
00000000009739d4 l     F .ro	000000000000003c xlat_clean_dcache_range
0000000000973afc l     F .ro	000000000000020c xlat_tables_map_region
0000000000000000 l    df *ABS*	0000000000000000 xlat_tables_utils.c
0000000000000000 l    df *ABS*	0000000000000000 plat_common.c
0000000000000000 l    df *ABS*	0000000000000000 plat_bl_common.c
0000000000000000 l    df *ABS*	0000000000000000 plat_gicv3.c
0000000000979914 l     O .ro	0000000000000004 CSWTCH.13
0000000000000000 l    df *ABS*	0000000000000000 plat_log_common.c
000000000097b070 l     O .data	0000000000000028 plat_prefix_str
0000000000000000 l    df *ABS*	0000000000000000 plat_psci_common.c
0000000000000000 l    df *ABS*	0000000000000000 imx8_topology.c
0000000000000000 l    df *ABS*	0000000000000000 imx_sip_handler.c
0000000000980050 l     O .bss	0000000000000058 bl33_image_ep_info.0
0000000000000000 l    df *ABS*	0000000000000000 imx_sip_svc.c
00000000009742f8 l     F .ro	0000000000000008 imx_sip_setup
0000000000974300 l     F .ro	00000000000000c4 imx_sip_handler
0000000000979930 l     O .ro	0000000000000020 __svc_desc_imx_sip_svc
0000000000000000 l    df *ABS*	0000000000000000 plat_imx8_gic.c
00000000009743c4 l     F .ro	0000000000000004 plat_imx_mpidr_to_core_pos
00000000009792e4 l     O .ro	0000000000000004 g01s_interrupt_props
0000000000000000 l    df *ABS*	0000000000000000 clock.c
0000000000000000 l    df *ABS*	0000000000000000 ddr4_dvfs.c
0000000000000000 l    df *ABS*	0000000000000000 dram.c
00000000009749ac l     F .ro	0000000000000084 waiting_dvfs
0000000000982ad8 l     O .bss	0000000000000004 wfe_done
000000000097b2ad l     O .data	0000000000000001 wait_ddrc_hwffc_done
0000000000974a30 l     F .ro	000000000000008c lpddr4_mr_read.constprop.0
00000000009792e8 l     O .ro	0000000000000030 fsp_init_reg
0000000000000000 l    df *ABS*	0000000000000000 dram_retention.c
0000000000000000 l    df *ABS*	0000000000000000 lpddr4_dvfs.c
000000000097537c l     F .ro	0000000000000038 lpddr4_mr_write.constprop.0
0000000000000000 l    df *ABS*	0000000000000000 gpc_common.c
0000000000979318 l     O .ro	0000000000000010 gpc_imr_offset
0000000000000000 l    df *ABS*	0000000000000000 imx8m_caam.c
0000000000000000 l    df *ABS*	0000000000000000 imx8m_csu.c
0000000000000000 l    df *ABS*	0000000000000000 imx8m_psci_common.c
0000000000000000 l    df *ABS*	0000000000000000 gpc.c
000000000097b288 l     O .data	0000000000000024 hsiomix_clk
0000000000979448 l     O .ro	0000000000000190 pu_domains
0000000000982ae0 l     O .bss	0000000000000004 pu_domain_status
0000000000979328 l     O .ro	0000000000000120 noc_setting
000000000097b0c8 l     O .data	0000000000000050 aipstz5
0000000000000000 l    df *ABS*	0000000000000000 imx8mp_bl31_setup.c
0000000000978f38 l     O .ro	00000000000000c8 aipstz
00000000009795f0 l     O .ro	0000000000000064 rdc
00000000009795d8 l     O .ro	0000000000000018 csu_cfg
00000000009829f0 l     O .bss	0000000000000028 console.0
0000000000982a18 l     O .bss	0000000000000058 bl33_image_ep_info
0000000000982a70 l     O .bss	0000000000000058 bl32_image_ep_info
0000000000979000 l     O .ro	00000000000001e0 imx_mmap
0000000000000000 l    df *ABS*	0000000000000000 imx8mp_psci.c
000000000097b118 l     O .data	00000000000000b0 imx_plat_psci_ops
0000000000000000 l    df *ABS*	0000000000000000 imx_aipstz.c
0000000000000000 l    df *ABS*	0000000000000000 imx_hab.c
0000000000000000 l    df *ABS*	0000000000000000 imx_rdc.c
0000000000000000 l    df *ABS*	0000000000000000 arm_arch_svc_setup.c
00000000009770e0 l     F .ro	000000000000013c arm_arch_svc_smc_handler
0000000000979950 l     O .ro	0000000000000020 __svc_desc_arm_arch_svc
0000000000000000 l    df *ABS*	0000000000000000 opteed_common.c
0000000000000000 l    df *ABS*	0000000000000000 opteed_main.c
000000000097731c l     F .ro	0000000000000074 opteed_sel1_interrupt_handler
0000000000977390 l     F .ro	000000000000021c opteed_smc_handler
00000000009775ac l     F .ro	0000000000000078 opteed_setup
0000000000977624 l     F .ro	0000000000000048 opteed_init
0000000000979970 l     O .ro	0000000000000020 __svc_desc_opteed_std
0000000000979990 l     O .ro	0000000000000020 __svc_desc_opteed_fast
0000000000000000 l    df *ABS*	0000000000000000 opteed_pm.c
000000000097766c l     F .ro	0000000000000004 opteed_cpu_on_handler
0000000000977670 l     F .ro	0000000000000008 opteed_cpu_migrate_info
0000000000977718 l     F .ro	0000000000000068 opteed_system_reset
0000000000977780 l     F .ro	0000000000000068 opteed_system_off
00000000009777e8 l     F .ro	0000000000000088 opteed_cpu_off_handler
0000000000977870 l     F .ro	0000000000000094 opteed_cpu_suspend_handler
0000000000977904 l     F .ro	0000000000000098 opteed_cpu_suspend_finish_handler
0000000000000000 l    df *ABS*	0000000000000000 std_svc_setup.c
000000000097799c l     F .ro	00000000000000b8 std_svc_smc_handler
0000000000977a54 l     F .ro	0000000000000024 std_svc_setup
00000000009799b0 l     O .ro	0000000000000020 __svc_desc_std_svc
0000000000000000 l    df *ABS*	0000000000000000 crash_reporting.o
0000000000000000 l    df *ABS*	0000000000000000 runtime_exceptions.o
0000000000977be8 l     F .ro	0000000000000080 reflect_pending_async_ea_to_lower_el
0000000000977a7c l       .ro	0000000000000000 smc_handler32
0000000000977a80 l       .ro	0000000000000000 sync_handler64
0000000000977bb0 l     F .ro	0000000000000038 imp_def_el3_handler
0000000000977b5c l     F .ro	0000000000000054 handle_interrupt_exception
0000000000977a7c l     F .ro	00000000000000e0 sync_exception_handler
0000000000977b44 l       .ro	0000000000000000 smc_prohibited
0000000000977b08 l       .ro	0000000000000000 sysreg_handler64
0000000000977b38 l       .ro	0000000000000000 smc_unknown
0000000000977bac l       .ro	0000000000000000 interrupt_exit
0000000000977bd4 l       .ro	0000000000000000 el3_handler_exit
0000000000977c08 l       .ro	0000000000000000 check_loop_ctr
0000000000977c1c l       .ro	0000000000000000 skip_loop_ctr
0000000000977c50 l       .ro	0000000000000000 skip_smc_check
0000000000977c4c l       .ro	0000000000000000 subtract_elr_el3
0000000000000000 l    df *ABS*	0000000000000000 debug.o
000000000097991c l       .ro	0000000000000000 panic_msg
0000000000977cbc l       .ro	0000000000000000 panic_common
0000000000977ce4 l       .ro	0000000000000000 _panic_handler
0000000000000000 l    df *ABS*	0000000000000000 cache_helpers.o
0000000000977d20 l       .ro	0000000000000000 exit_loop_civac
0000000000977d0c l       .ro	0000000000000000 loop_civac
0000000000977d58 l       .ro	0000000000000000 exit_loop_cvac
0000000000977d44 l       .ro	0000000000000000 loop_cvac
0000000000977d90 l       .ro	0000000000000000 exit_loop_ivac
0000000000977d7c l       .ro	0000000000000000 loop_ivac
0000000000977d94 l     F .ro	000000000000009c do_dcsw_op
0000000000977e2c l       .ro	0000000000000000 exit
0000000000977e30 l       .ro	0000000000000000 dcsw_loop_table
0000000000977db0 l       .ro	0000000000000000 loop1
0000000000977e14 l       .ro	0000000000000000 level_done
0000000000977e30 l       .ro	0000000000000000 loop2_isw
0000000000977e34 l       .ro	0000000000000000 loop3_isw
0000000000977e50 l       .ro	0000000000000000 loop2_cisw
0000000000977e54 l       .ro	0000000000000000 loop3_cisw
0000000000977e70 l       .ro	0000000000000000 loop2_csw
0000000000977e74 l       .ro	0000000000000000 loop3_csw
0000000000000000 l    df *ABS*	0000000000000000 misc_helpers.o
0000000000977ecc l     F .ro	00000000000000e8 zeromem_dczva
0000000000000000 l    df *ABS*	0000000000000000 cortex_a53.o
000000000097804c l     F .ro	0000000000000014 cortex_a53_disable_dcache
0000000000978060 l     F .ro	0000000000000018 cortex_a53_disable_smp
0000000000978078 l     F .ro	0000000000000008 check_erratum_cortex_a53_819472
00000000009791e0 l       .ro	0000000000000000 cortex_a53_errata_list_start
0000000000978080 l     F .ro	0000000000000008 check_erratum_cortex_a53_824069
0000000000978088 l     F .ro	0000000000000008 check_erratum_cortex_a53_826319
0000000000978090 l     F .ro	0000000000000008 check_erratum_cortex_a53_827319
0000000000978098 l     F .ro	0000000000000024 check_erratum_cortex_a53_835769
00000000009780b4 l       .ro	0000000000000000 errata_not_applies
00000000009780b8 l       .ro	0000000000000000 exit_check_errata_835769
00000000009780bc l     F .ro	0000000000000008 check_erratum_cortex_a53_836870
00000000009780c4 l     F .ro	0000000000000024 check_erratum_cortex_a53_843419
00000000009780e4 l       .ro	0000000000000000 exit_check_errata_843419
00000000009780e8 l     F .ro	0000000000000020 erratum_cortex_a53_855873_wa
0000000000978108 l     F .ro	0000000000000008 check_erratum_cortex_a53_855873
0000000000978104 l       .ro	0000000000000000 erratum_cortex_a53_855873_skip
0000000000978110 l     F .ro	0000000000000008 check_erratum_cortex_a53_1530924
0000000000978118 l     F .ro	0000000000000058 cortex_a53_reset_func
00000000009792b8 l       .ro	0000000000000000 cortex_a53_errata_list_end
0000000000978134 l       .ro	0000000000000000 errata_begin
000000000097815c l       .ro	0000000000000000 errata_end
0000000000978170 l     F .ro	0000000000000018 cortex_a53_core_pwr_dwn
0000000000978188 l     F .ro	0000000000000024 cortex_a53_cluster_pwr_dwn
0000000000000000 l    df *ABS*	0000000000000000 cpu_helpers.o
000000000097824c l       .ro	0000000000000000 search_def_ptr
0000000000000000 l    df *ABS*	0000000000000000 context.o
00000000009784fc l       .ro	0000000000000000 realm_state
0000000000978500 l       .ro	0000000000000000 end
0000000000978530 l       .ro	0000000000000000 sve_not_enabled
0000000000978558 l       .ro	0000000000000000 no_mpam
0000000000000000 l    df *ABS*	0000000000000000 cpu_data.o
0000000000000000 l    df *ABS*	0000000000000000 spinlock.o
00000000009785c0 l       .ro	0000000000000000 l1
00000000009785c4 l       .ro	0000000000000000 l2
0000000000000000 l    df *ABS*	0000000000000000 psci_helpers.o
0000000000000000 l    df *ABS*	0000000000000000 enable_mmu.o
0000000000000000 l    df *ABS*	0000000000000000 platform_helpers.o
0000000000000000 l    df *ABS*	0000000000000000 platform_mp_stack.o
000000000097bcc0 l       .stacks	0000000000000000 platform_normal_stacks
0000000000000006 l       *ABS*	0000000000000000 TZ_COUNT
0000000000000000 l    df *ABS*	0000000000000000 imx8_helpers.o
000000000097b218 l       .data	0000000000000000 mailbox_base
0000000000978740 l       .ro	0000000000000000 A72
0000000000000000 l    df *ABS*	0000000000000000 imx_uart_console.o
00000000009787cc l       .ro	0000000000000000 register_fail
0000000000978838 l       .ro	0000000000000000 putc_error
0000000000978850 l       .ro	0000000000000000 flush_exit
0000000000000000 l    df *ABS*	0000000000000000 opteed_helpers.o
0000000000000000 l    df *ABS*	0000000000000000 memcmp.c
0000000000000000 l    df *ABS*	0000000000000000 memcpy.c
0000000000000000 l    df *ABS*	0000000000000000 memmove.c
0000000000000000 l    df *ABS*	0000000000000000 memset.c
0000000000000000 l    df *ABS*	0000000000000000 printf.c
000000000097899c l     F .ro	00000000000000f4 unsigned_num_print.part.0
0000000000000000 l    df *ABS*	0000000000000000 strchr.c
0000000000000000 l    df *ABS*	0000000000000000 strlen.c
0000000000000000 l    df *ABS*	0000000000000000 <stdin>
0000000000000000 l    df *ABS*	0000000000000000 
000000000097b2b0 l     O *ABS*	0000000000000000 _DYNAMIC
0000000000979a20 l     O *ABS*	0000000000000000 _GLOBAL_OFFSET_TABLE_
0000000000970968 g     F .ro	0000000000000014 gicd_read_nsacr
0000000000971898 g     F .ro	0000000000000028 putchar
0000000000970b4c g     F .ro	000000000000001c gicv3_get_spi_limit
0000000000971de4 g     F .ro	0000000000000054 cm_prepare_el3_exit
0000000000970e28 g     F .ro	0000000000000018 gicv3_get_component_prodid_rev
00000000009717d8 g     F .ro	0000000000000018 console_set_scope
0000000000974094  w    F .ro	0000000000000008 plat_is_smccc_feature_available
00000000009769b0 g     F .ro	0000000000000058 imx_noc_wrapper_pre_suspend
0000000000982b80 g       .bss	0000000000000000 __PMF_TIMESTAMP_START__
000000000097b1c8 g     O .data	0000000000000008 g_hab_rvt_api
00000000009740c4  w    F .ro	0000000000000034 plat_ic_get_pending_interrupt_type
00000000009708bc g     F .ro	0000000000000014 gicd_write_igrpmodr
0000000000971cf0 g     F .ro	0000000000000070 cm_el1_sysregs_context_restore
0000000000978808 g     F .ro	0000000000000038 console_imx_uart_putc
0000000000972aa4 g     F .ro	0000000000000028 psci_migrate_info_up_cpu
000000000098c000 g       .coherent_ram	0000000000000000 __BL31_END__
000000000097fcf0 g     O .bss	0000000000000010 tzc380
0000000000971798 g     F .ro	0000000000000034 console_register
000000000097281c g     F .ro	0000000000000104 psci_cpu_suspend
000000000098c000 g       .coherent_ram	0000000000000000 __COHERENT_RAM_END__
00000000009781ac g     F .ro	0000000000000020 reset_handler
000000000097a600 g     F .ro	0000000000000000 sync_exception_aarch32
0000000000977ec4 g     F .ro	0000000000000008 zeromem
0000000000979690 g     O .ro	000000000000002a version_string
0000000000977cb0 g     F .ro	0000000000000008 asm_print_newline
0000000000979b48 g       .ro	0000000000000000 __pubsub_psci_suspend_pwrdown_finish_end
0000000000972560 g     F .ro	00000000000000f4 psci_validate_entry_point
0000000000973f38 g     F .ro	000000000000003c mmap_add_ctx
0000000000970530 g     F .ro	0000000000000004 print_entry_point_info
00000000009701a8 g     F .ro	0000000000000014 cm_get_context
0000000000980038 g     O .bss	0000000000000018 mmu_cfg_params
0000000000974078 g     F .ro	0000000000000004 xlat_tables_print
0000000000972508 g     F .ro	0000000000000058 psci_release_pwr_domain_locks
00000000009741d8 g     F .ro	0000000000000038 plat_core_pos_by_mpidr
0000000000972034 g     F .ro	0000000000000028 psci_validate_power_state
000000000097b000 g       .ro	0000000000000000 __RW_START__
0000000000977fb4 g     F .ro	0000000000000098 fixup_gdt_reloc
0000000000973660 g     F .ro	00000000000000a8 psci_cpu_suspend_finish
0000000000983000 g       .xlat_table	0000000000000000 __XLAT_TABLE_START__
000000000097b098 g     O .data	0000000000000030 arm_gic_data
0000000000976ea4 g     F .ro	0000000000000028 bl31_plat_get_next_image_ep_info
0000000000977ea4 g     F .ro	0000000000000010 dcsw_op_level1
0000000000975d60 g     F .ro	000000000000001c imx_set_rbc_count
000000000097076c g     F .ro	000000000000001c gicv3_check_erratas_applies
00000000009788f4 g     F .ro	0000000000000034 memmove
0000000000982ae8 g     O .bss	0000000000000080 rt_svc_descs_indices
000000000097092c g     F .ro	0000000000000014 gicd_write_isenabler
0000000000976ed8 g     F .ro	0000000000000030 plat_setup_psci_ops
000000000097a200 g     F .ro	0000000000000000 sync_exception_sp_elx
0000000000970954 g     F .ro	0000000000000014 gicd_write_ispendr
00000000009738c4 g     F .ro	000000000000007c setup_mmu_cfg
0000000000971e38 g     F .ro	0000000000000008 cm_prepare_el3_exit_ns
000000000097a000 g     F .ro	0000000000000000 sync_exception_sp_el0
0000000000978788 g     F .ro	0000000000000048 console_imx_uart_register
0000000000978650 g     F .ro	000000000000000c psci_power_down_wfi
0000000000974498 g     F .ro	0000000000000050 plat_gic_restore
0000000000971060 g     F .ro	0000000000000040 gicv3_cpuif_disable
000000000097861c g     F .ro	0000000000000034 psci_do_pwrup_cache_maintenance
00000000009729a8 g     F .ro	000000000000005c psci_affinity_info
0000000000970330 g     F .ro	000000000000000c bl31_register_bl32_init
0000000000974174  w    F .ro	0000000000000030 plat_log_get_prefix
0000000000972a04 g     F .ro	0000000000000088 psci_migrate
000000000097415c g     F .ro	000000000000000c plat_ic_has_interrupt_type
0000000000974580 g     F .ro	00000000000000e8 dram_pll_init
0000000000970ae0 g     F .ro	000000000000006c gicv3_rdistif_base_addrs_probe
00000000009796ba g     O .ro	000000000000001e build_message
000000000097b228 g     O .data	0000000000000004 dev_fsp
00000000009762f8  w    F .ro	00000000000000e4 imx_domain_suspend
00000000009784d8 g     F .ro	00000000000000b4 el3_exit
0000000000973144 g     F .ro	0000000000000344 psci_setup
00000000009701bc g     F .ro	0000000000000014 cm_set_context
0000000000973950 g     F .ro	000000000000003c init_xlat_tables
000000000097409c g     F .ro	0000000000000028 setup_page_tables
000000000097407c  w    F .ro	0000000000000008 bl31_plat_runtime_setup
000000000097b000 g       .data	0000000000000000 __DATA_START__
000000000098b000 g     O .coherent_ram	0000000000000020 psci_locks
00000000009786b4  w    F .ro	0000000000000004 plat_disable_acp
0000000000975828 g     F .ro	0000000000000018 imx_is_m4_enabled
0000000000972468 g     F .ro	0000000000000034 psci_find_target_suspend_lvl
00000000009738a4 g     F .ro	0000000000000014 xlat_arch_regime_get_xn_desc
0000000000970828 g     F .ro	000000000000001c gicd_set_isenabler
0000000000973124 g     F .ro	0000000000000020 psci_arch_setup
0000000000978288 g     F .ro	0000000000000020 check_wa_cve_2017_5715
0000000000976238 g     F .ro	0000000000000014 imx_pwr_domain_on_finish
0000000000973748 g     F .ro	0000000000000040 psci_system_reset
0000000000970844 g     F .ro	0000000000000014 gicd_set_ipriorityr
00000000009788d4 g     F .ro	0000000000000020 memcpy
0000000000971e58 g     F .ro	0000000000000040 pmuv3_init_el3
0000000000972920 g     F .ro	0000000000000080 psci_system_suspend
000000000097a380 g     F .ro	0000000000000000 serror_sp_elx
0000000000971c20 g     F .ro	0000000000000030 cm_init_context_by_index
00000000009751ac g     F .ro	00000000000001d0 dram_exit_retention
0000000000970ecc g     F .ro	0000000000000074 gicv3_distif_init
00000000009753b4 g     F .ro	0000000000000450 lpddr4_swffc
0000000000975ffc g     F .ro	0000000000000098 imx8m_caam_init
000000000097a080 g     F .ro	0000000000000000 irq_sp_el0
0000000000977ecc g     F .ro	00000000000000e8 zero_normalmem
0000000000972238 g     F .ro	0000000000000040 psci_get_parent_pwr_domain_nodes
0000000000970e58 g     F .ro	0000000000000074 gicv3_driver_init
0000000000982adc g     O .bss	0000000000000004 dfs_lock
0000000000979b48 g     O .ro	0000000000000008 __cb_func_spe_drain_buffers_hookcm_entering_secure_world
0000000000978840 g     F .ro	0000000000000014 console_imx_uart_flush
0000000000977678 g     F .ro	00000000000000a0 opteed_cpu_on_finish_handler
0000000000973708 g     F .ro	0000000000000040 psci_system_off
0000000000978784 g     F .ro	0000000000000004 platform_mem_init
000000000097b22c g     O .data	0000000000000050 pll
0000000000979b50 g       .ro	0000000000000000 __pubsub_cm_exited_secure_world_end
0000000000973940 g     F .ro	0000000000000010 mmap_add
0000000000970148 g     F .ro	0000000000000060 bl31_warm_entrypoint
0000000000974b94 g     F .ro	0000000000000218 dram_info_init
0000000000976ecc g     F .ro	000000000000000c plat_get_syscnt_freq2
00000000009786b8  w    F .ro	0000000000000008 plat_panic_handler
0000000000978760 g     F .ro	000000000000000c imx_mailbox_init
0000000000979930 g       .ro	0000000000000000 __RT_SVC_DESCS_START__
00000000009764b0  w    F .ro	0000000000000014 imx_get_sys_suspend_power_state
0000000000971ed8 g     F .ro	0000000000000020 sve_enable_per_world
000000000097e8c0 g       .stacks	0000000000000000 __STACKS_END__
0000000000970ac4 g     F .ro	000000000000001c gicv3_rdistif_mark_core_asleep
0000000000979b48 g       .ro	0000000000000000 __pubsub_psci_suspend_pwrdown_start_end
00000000009782a8 g     F .ro	0000000000000020 check_smccc_arch_wa3_applies
0000000000977d24 g     F .ro	0000000000000038 clean_dcache_range
00000000009781cc g     F .ro	0000000000000024 prepare_cpu_pwr_dwn
0000000000975804 g     F .ro	0000000000000024 imx_m4_lpa_active
000000000097721c g     F .ro	00000000000000a8 opteed_init_optee_ep_state
0000000000978488 g     F .ro	0000000000000050 restore_gp_pmcr_pauth_regs
0000000000970764 g     F .ro	0000000000000004 gicv3_distif_post_restore
0000000000972654 g     F .ro	00000000000000dc psci_warmboot_entrypoint
0000000000971ef8 g     F .ro	0000000000000018 sve_disable_per_world
0000000000970a8c g     F .ro	0000000000000038 gicv3_rdistif_mark_core_awake
0000000000979b50 g       .ro	0000000000000000 __pubsub_cm_exited_normal_world_start
00000000009786e4  w    F .ro	0000000000000010 plat_set_my_stack
00000000009701fc g     F .ro	0000000000000030 cm_set_context_by_index
00000000009799d0 g       .ro	0000000000000000 __RT_SVC_DESCS_END__
0000000000974114  w    F .ro	0000000000000048 plat_interrupt_type_to_line
0000000000971c80 g     F .ro	0000000000000070 cm_el1_sysregs_context_save
0000000000977c80 g     F .ro	0000000000000030 asm_print_hex
0000000000976d9c g     F .ro	00000000000000b0 bl31_plat_arch_setup
00000000009702c0 g     F .ro	0000000000000070 bl31_main
000000000097fd48 g     O .bss	0000000000000040 psci_cpu_pd_nodes
000000000097279c g     F .ro	0000000000000004 psci_pwrdown_cpu
0000000000977c68 g     F .ro	0000000000000018 asm_print_str
00000000009758e8  w    F .ro	00000000000000e0 imx_set_cpu_pwr_on
0000000000975c7c  w    F .ro	000000000000007c imx_noc_slot_config
00000000009772f4 g     F .ro	0000000000000028 opteed_synchronous_sp_exit
00000000009786c0  w    F .ro	0000000000000004 bl31_plat_enable_mmu
0000000000976f08 g     F .ro	0000000000000048 imx_aipstz_init
0000000000971a30 g     F .ro	0000000000000004 cm_init
0000000000976544 g     F .ro	000000000000046c imx_gpc_pm_domain_enable
000000000097877c g     F .ro	0000000000000008 plat_crash_console_flush
000000000097a000 g       .ro	0000000000000000 runtime_exceptions
0000000000975e04  w    F .ro	0000000000000034 imx_gpc_handler
00000000009800a8 g     O .bss	0000000000000020 rdistif_base_addrs
000000000097097c g     F .ro	0000000000000014 gicd_write_nsacr
0000000000971d60 g     F .ro	0000000000000024 cm_set_elr_el3
0000000000970990 g     F .ro	0000000000000014 gicr_write_ipriorityr
0000000000979b50 g       .ro	0000000000000000 __pubsub_cm_exited_secure_world_start
0000000000972774 g     F .ro	0000000000000024 psci_spd_migrate_info
00000000009764f4 g     F .ro	000000000000001c imx_system_off
00000000009785a0 g     F .ro	0000000000000018 _cpu_data_by_index
0000000000976f50 g     F .ro	0000000000000108 imx_hab_handler
0000000000972798 g     F .ro	0000000000000004 psci_print_power_domain_map
000000000097a800 g       .ro	0000000000000000 __RO_END_UNALIGNED__
0000000000970000 g       .ro	0000000000000000 RAM_REGION_START
00000000009741a4 g     F .ro	0000000000000028 plat_get_target_pwr_state
00000000009717f0 g     F .ro	00000000000000a8 console_putc
000000000097876c g     F .ro	0000000000000004 plat_secondary_cold_boot_setup
0000000000970a54 g     F .ro	0000000000000038 gicr_set_icfgr
000000000097b1d0 g     O .data	0000000000000048 opteed_pm
00000000009712a4 g     F .ro	00000000000001f4 gicv3_distif_save
000000000097086c g     F .ro	0000000000000014 gicd_write_icfgr
00000000009786c4  w    F .ro	0000000000000004 plat_handle_el3_ea
0000000000975d7c g     F .ro	0000000000000018 imx_clear_rbc_count
0000000000976094 g     F .ro	0000000000000158 imx_csu_init
0000000000972070 g     F .ro	0000000000000070 psci_is_last_on_cpu
0000000000978770 g     F .ro	0000000000000008 plat_crash_console_init
000000000097a680 g     F .ro	0000000000000000 irq_aarch32
0000000000976a08 g     F .ro	00000000000000ac imx_noc_wrapper_post_resume
0000000000977cec g     F .ro	0000000000000038 flush_dcache_range
0000000000978854 g     F .ro	0000000000000028 opteed_enter_sp
000000000097197c g     F .ro	000000000000000c timer_init
0000000000976c50 g     F .ro	000000000000014c bl31_early_platform_setup2
00000000009799d0 g       .ro	0000000000000000 __PMF_SVC_DESCS_END__
000000000097bca8 g       .rela.dyn	0000000000000000 __RELA_END__
0000000000975e38  w    F .ro	00000000000001c4 imx_src_handler
000000000097b378 g       .rela.dyn	0000000000000000 __RELA_START__
000000000098c000 g       .coherent_ram	0000000000000000 RAM_REGION_END
0000000000971188 g     F .ro	000000000000011c gicv3_rdistif_init_restore
000000000097a180 g     F .ro	0000000000000000 serror_sp_el0
0000000000978a90 g     F .ro	0000000000000464 vprintf
00000000009762cc g     F .ro	000000000000002c imx_cpu_standby
00000000009747ec g     F .ro	00000000000000bc sw_pstate
00000000009703f8 g     F .ro	0000000000000094 set_routing_model
0000000000973898 g     F .ro	000000000000000c is_dcache_enabled
0000000000977a78 g     F .ro	0000000000000004 report_unhandled_exception
0000000000974520 g     F .ro	0000000000000038 ddr_pll_bypass_400mts
0000000000973048 g     F .ro	00000000000000dc psci_cpu_on_finish
0000000000977e90 g     F .ro	0000000000000014 dcsw_op_all
00000000009729a0 g     F .ro	0000000000000008 psci_cpu_off
000000000097871c g     F .ro	0000000000000038 plat_reset_handler
000000000097865c g     F .ro	0000000000000058 enable_mmu_direct_el3
0000000000975840 g     F .ro	0000000000000028 imx_set_cpu_secure_entry
0000000000970f40 g     F .ro	0000000000000090 gicv3_rdistif_init
0000000000979b50 g       .ro	0000000000000000 __pubsub_cm_entering_normal_world_end
0000000000978210 g     F .ro	0000000000000040 get_cpu_ops_ptr
0000000000970000 g     F .ro	0000000000000138 bl31_entrypoint
00000000009701d0 g     F .ro	000000000000002c cm_get_context_by_index
00000000009709a4 g     F .ro	0000000000000018 gicr_set_ipriorityr
0000000000971c50 g     F .ro	0000000000000030 cm_init_my_context
000000000097a580 g     F .ro	0000000000000000 serror_aarch64
00000000009740f8  w    F .ro	000000000000000c plat_ic_acknowledge_interrupt
00000000009709bc g     F .ro	0000000000000028 gicr_clr_igroupr
000000000097858c g     F .ro	0000000000000014 init_cpu_data_ptr
00000000009738b8 g     F .ro	000000000000000c xlat_arch_current_el
0000000000970c00 g     F .ro	00000000000000ec gicv3_secure_spis_config_props
0000000000970858 g     F .ro	0000000000000014 gicd_read_icfgr
0000000000973838 g     F .ro	0000000000000014 xlat_arch_get_pas
00000000009708d0 g     F .ro	0000000000000010 gicd_read_ipriorityr
0000000000972d8c g     F .ro	0000000000000158 psci_do_cpu_off
000000000097624c  w    F .ro	0000000000000024 imx_pwr_domain_off
0000000000982ad4 g     O .bss	0000000000000004 psci_caps
000000000097033c g     F .ro	0000000000000008 handle_sysreg_trap
0000000000971a34 g     F .ro	00000000000001a4 cm_setup_context
0000000000970000 g       .ro	0000000000000000 __BL31_START__
000000000097a280 g     F .ro	0000000000000000 irq_sp_elx
0000000000982b80 g       .bss	0000000000000000 __PMF_PERCPU_TIMESTAMP_END__
000000000097a100 g     F .ro	0000000000000000 fiq_sp_el0
000000000097b2ae g       .data	0000000000000000 __DATA_END__
0000000000976ab4 g     F .ro	000000000000019c imx_gpc_init
0000000000977c84 g       .ro	0000000000000000 asm_print_hex_bits
00000000009759c8  w    F .ro	00000000000000d0 imx_set_cpu_lpm
0000000000982b80 g       .bss	0000000000000000 __BASE_XLAT_TABLE_START__
00000000009707e0 g     F .ro	0000000000000024 gicd_set_igrpmodr
00000000009799d0 g       .ro	0000000000000000 __CPU_OPS_START__
0000000000971914 g     F .ro	0000000000000068 udelay
000000000097384c g     F .ro	000000000000004c tcr_physical_addr_size_bits
0000000000970cec g     F .ro	0000000000000070 gicv3_ppi_sgi_config_defaults
0000000000977d5c g     F .ro	0000000000000038 inv_dcache_range
0000000000974770 g     F .ro	000000000000007c dram_cfg_all_mr
000000000097b27c g     O .data	000000000000000c pd_init_on
0000000000977058 g     F .ro	0000000000000088 imx_rdc_init
0000000000976200 g     F .ro	0000000000000038 imx_pwr_domain_on
0000000000972b90 g     F .ro	0000000000000150 psci_smc_handler
00000000009719b4 g     F .ro	000000000000005c generic_delay_timer_init
0000000000973488 g     F .ro	00000000000001d8 psci_cpu_suspend_start
00000000009720e0 g     F .ro	0000000000000054 psci_init_req_local_pwr_states
0000000000979b50 g       .ro	0000000000000000 __pubsub_cm_entering_secure_world_end
00000000009763dc  w    F .ro	00000000000000d4 imx_domain_suspend_finish
0000000000971994 g     F .ro	0000000000000020 generic_delay_timer_init_args
00000000009721bc g     F .ro	000000000000007c psci_set_target_local_pwr_states
00000000009788a0 g     F .ro	0000000000000034 memcmp
0000000000978250 g     F .ro	0000000000000010 cpu_get_rev_var
0000000000972ee4 g     F .ro	0000000000000164 psci_cpu_on_start
000000000097241c g     F .ro	000000000000004c psci_find_max_off_lvl
0000000000973a10 g     F .ro	00000000000000ec xlat_desc
00000000009786f4 g     F .ro	0000000000000014 plat_is_my_cpu_primary
0000000000970788 g     F .ro	0000000000000034 gicd_set_icfgr
000000000098b028 g     O .coherent_ram	0000000000000040 psci_non_cpu_pd_nodes
0000000000974668 g     F .ro	0000000000000024 dram_clock_switch
0000000000977cb8 g     F .ro	0000000000000004 elx_panic
0000000000982c00 g       .bss	0000000000000000 __BSS_END__
0000000000979a20 g       .ro	0000000000000000 __CPU_OPS_END__
00000000009785e0 g     F .ro	000000000000003c psci_do_pwrdown_cache_maintenance
00000000009743d4 g     F .ro	0000000000000040 plat_gic_init
0000000000978754 g     F .ro	000000000000000c plat_get_my_entrypoint
00000000009708a8 g     F .ro	0000000000000014 gicd_read_igrpmodr
0000000000971dc4 g     F .ro	0000000000000020 cm_set_next_eret_context
0000000000979b48 g       .ro	0000000000000000 __pubsub_cm_entering_secure_world_start
0000000000970918 g     F .ro	0000000000000014 gicd_read_isenabler
00000000009727bc g     F .ro	0000000000000060 psci_cpu_on
000000000097024c g     F .ro	0000000000000074 bl31_prepare_next_image_entry
000000000098b000 g       .coherent_ram	0000000000000000 __COHERENT_RAM_START__
0000000000971bf8 g     F .ro	0000000000000028 manage_extensions_nonsecure_per_world
00000000009764c4 g     F .ro	0000000000000030 imx_system_reset
0000000000971710 g     F .ro	000000000000002c tzc380_init
0000000000982ad0 g     O .bss	0000000000000004 psci_plat_core_count
0000000000972b28 g     F .ro	0000000000000068 psci_features
0000000000979b48 g       .ro	0000000000000000 __GOT_END__
0000000000978928 g     F .ro	0000000000000074 memset
00000000009799d0 g       .ro	0000000000000000 __PARSER_LIB_DESCS_END__
0000000000972134 g     F .ro	0000000000000088 psci_get_target_local_pwr_states
0000000000976270  w    F .ro	000000000000005c imx_validate_power_state
0000000000971d84 g     F .ro	0000000000000040 cm_write_scr_el3_bit
0000000000979b50 g       .ro	0000000000000000 __pubsub_cm_exited_normal_world_end
0000000000982ac8 g     O .bss	0000000000000008 optee_vector_table
000000000097fd40 g     O .bss	0000000000000008 psci_plat_pm_ops
000000000097408c  w    F .ro	0000000000000008 plat_get_soc_revision
0000000000970238 g     F .ro	0000000000000014 bl31_setup
0000000000979b48 g       .ro	0000000000000000 __pubsub_psci_suspend_pwrdown_start_start
0000000000974104  w    F .ro	0000000000000010 plat_ic_end_of_interrupt
0000000000979a20 g       .ro	0000000000000000 __GOT_START__
0000000000970a0c g     F .ro	0000000000000028 gicr_clr_igrpmodr
000000000097022c g     F .ro	000000000000000c get_arm_std_svc_args
0000000000979b50 g       .ro	0000000000000000 __pubsub_cm_entering_normal_world_start
0000000000000000 g       *ABS*	0000000000000000 __PERCPU_TIMESTAMP_SIZE__
0000000000971f10 g     F .ro	00000000000000bc bakery_lock_get
0000000000975b90  w    F .ro	00000000000000ec imx_set_sys_wakeup
000000000097173c g     F .ro	0000000000000030 tzc380_configure_region
0000000000972ce0 g     F .ro	0000000000000060 psci_mem_protect
00000000009799d0 g       .ro	0000000000000000 __FCONF_POPULATOR_END__
0000000000971fcc g     F .ro	0000000000000034 bakery_lock_release
00000000009704f4 g     F .ro	000000000000003c get_interrupt_type_handler
00000000009741cc g     F .ro	000000000000000c plat_get_power_domain_tree_desc
00000000009708e0 g     F .ro	0000000000000010 gicd_write_ipriorityr
00000000009748a8 g     F .ro	0000000000000104 ddr4_swffc
00000000009744e8 g     F .ro	0000000000000038 ddr_pll_bypass_100mts
0000000000971bd8 g     F .ro	0000000000000020 cm_manage_extensions_el3
0000000000980170 g     O .bss	0000000000002880 imx_gicv3_ctx
0000000000972acc g     F .ro	000000000000005c psci_node_hw_state
00000000009782c8 g     F .ro	00000000000000ac el1_sysregs_context_save
0000000000982c00 g       .bss	0000000000000000 __BASE_XLAT_TABLE_END__
00000000009761ec g     F .ro	0000000000000014 imx_validate_ns_entrypoint
0000000000970904 g     F .ro	0000000000000014 gicd_write_isactiver
0000000000977eb4 g     F .ro	0000000000000010 dcsw_op_level2
00000000009781f0 g     F .ro	0000000000000020 init_cpu_ops
0000000000974dac g     F .ro	00000000000000c0 dram_dvfs_get_freq_info
00000000009718c0 g     F .ro	0000000000000054 console_flush
000000000097a300 g     F .ro	0000000000000000 fiq_sp_elx
000000000097b000 g       .ro	0000000000000000 __RO_END__
000000000097a400 g     F .ro	0000000000000000 sync_exception_aarch64
000000000098b020 g     O .coherent_ram	0000000000000008 gpc_lock
000000000097a500 g     F .ro	0000000000000000 fiq_aarch64
0000000000974fd4 g     F .ro	0000000000000084 rank_setting_update
0000000000970880 g     F .ro	0000000000000014 gicd_read_igroupr
00000000009717cc g     F .ro	000000000000000c console_switch_state
0000000000975d94  w    F .ro	0000000000000070 imx_anamix_override
0000000000971a10 g     F .ro	0000000000000004 print_errata_status
00000000009785d8 g     F .ro	0000000000000008 spin_unlock
0000000000978420 g     F .ro	0000000000000068 prepare_el3_entry
000000000097e900 g       .bss	0000000000000000 __BSS_START__
0000000000970000 g       .ro	0000000000000000 __RO_START__
0000000000974294 g     F .ro	0000000000000064 imx_kernel_entry_handler
0000000000973d08 g     F .ro	0000000000000230 mmap_add_region_ctx
00000000009799d0 g       .ro	0000000000000000 __PMF_SVC_DESCS_START__
0000000000982ae4 g     O .bss	0000000000000004 opteed_rw
0000000000978778 g     F .ro	0000000000000004 plat_crash_console_putc
000000000097e900 g     O .bss	0000000000000100 percpu_data
0000000000975868  w    F .ro	0000000000000080 imx_set_cpu_pwr_off
0000000000972730 g     F .ro	0000000000000044 psci_register_spd_pm_hook
0000000000978274 g     F .ro	0000000000000014 cpu_rev_var_hs
0000000000970768 g     F .ro	0000000000000004 gicv3_rdistif_on
00000000009785b8 g     F .ro	0000000000000020 spin_lock
000000000097176c g     F .ro	000000000000002c console_is_registered
00000000009710a0 g     F .ro	000000000000000c gicv3_get_pending_interrupt_type
000000000097887c g     F .ro	0000000000000024 opteed_exit_sp
0000000000970a34 g     F .ro	0000000000000020 gicr_set_isenabler
0000000000975058 g     F .ro	0000000000000154 dram_enter_retention
000000000097fd20 g     O .bss	0000000000000020 per_world_context
0000000000974450 g     F .ro	0000000000000048 plat_gic_save
000000000097205c g     F .ro	0000000000000014 psci_query_sys_suspend_pwrstate
0000000000979918 g     O .ro	0000000000000004 imx_power_domain_tree_desc
000000000097443c g     F .ro	0000000000000014 plat_gic_pcpu_init
0000000000970664 g     F .ro	0000000000000094 tf_log
00000000009709e4 g     F .ro	0000000000000028 gicr_set_igrpmodr
0000000000979b48 g       .ro	0000000000000000 __pubsub_psci_cpu_on_finish_start
00000000009799d0 g       .ro	0000000000000000 __FCONF_POPULATOR_START__
0000000000020000 g       *ABS*	0000000000000000 RAM_REGION_LENGTH
0000000000978260 g     F .ro	0000000000000014 cpu_rev_var_ls
00000000009703c8 g     F .ro	0000000000000030 get_scr_el3_from_routing_model
000000000097468c g     F .ro	00000000000000e4 ddr4_mr_write
000000000098c000 g       .coherent_ram	0000000000000000 __RW_END__
0000000000971e40 g     F .ro	0000000000000014 mpam_enable
000000000098b068 g       .coherent_ram	0000000000000000 __COHERENT_RAM_END_UNALIGNED__
0000000000976e4c g     F .ro	0000000000000058 bl31_platform_setup
000000000097bcc0 g       .stacks	0000000000000000 __STACKS_START__
000000000097f300 g     O .bss	0000000000000980 opteed_sp_context
0000000000971498 g     F .ro	0000000000000210 gicv3_distif_init_restore
00000000009722fc g     F .ro	0000000000000120 psci_do_state_coordination
0000000000973788 g     F .ro	00000000000000b0 psci_system_reset2
0000000000971ebc g     F .ro	000000000000001c spe_init_el3
000000000097398c g     F .ro	0000000000000048 enable_mmu_el3
000000000097a780 g     F .ro	0000000000000000 serror_aarch32
0000000000971e54 g     F .ro	0000000000000004 pmuv3_enable
0000000000982b80 g       .bss	0000000000000000 __PMF_TIMESTAMP_END__
00000000009716a8 g     F .ro	0000000000000068 gicv3_raise_sgi
00000000009772c4 g     F .ro	0000000000000030 opteed_synchronous_sp_entry
0000000000976510 g     F .ro	0000000000000034 imx_pwr_domain_pwr_down_wfi
0000000000973f74 g     F .ro	0000000000000100 init_xlat_tables_ctx
00000000009787d0 g     F .ro	0000000000000038 console_imx_uart_init
00000000009706f8 g     F .ro	0000000000000030 arm_gicv3_distif_pre_save
0000000000979b48 g       .ro	0000000000000000 __pubsub_psci_suspend_pwrdown_finish_start
0000000000970b68 g     F .ro	0000000000000098 gicv3_spis_config_defaults
0000000000975cf8 g     F .ro	0000000000000068 imx_set_sys_lpm
0000000000970804 g     F .ro	0000000000000024 gicd_clr_igrpmodr
000000000098b000 g       .xlat_table	0000000000000000 __XLAT_TABLE_END__
0000000000978708 g     F .ro	0000000000000014 plat_my_core_pos
0000000000970d5c g     F .ro	00000000000000cc gicv3_secure_ppi_sgi_config_props
0000000000970534 g     F .ro	0000000000000130 runtime_svc_init
0000000000970940 g     F .ro	0000000000000014 gicd_read_ispendr
0000000000978f18 g     F .ro	000000000000001c strlen
000000000097a480 g     F .ro	0000000000000000 irq_aarch64
0000000000972a8c g     F .ro	0000000000000018 psci_migrate_info_type
0000000000974084  w    F .ro	0000000000000008 plat_get_soc_version
00000000009800c8 g     O .bss	00000000000000a8 dram_info
0000000000970760 g     F .ro	0000000000000004 gicv3_distif_pre_save
0000000000974168  w    F .ro	000000000000000c plat_ic_raise_el3_sgi
0000000000974af4 g     F .ro	00000000000000a0 dram_phy_init
0000000000972d40 g     F .ro	000000000000004c psci_mem_chk_range
0000000000977cbc g     F .ro	0000000000000030 el3_panic
0000000000974428 g     F .ro	0000000000000014 plat_gic_cpuif_disable
00000000009707bc g     F .ro	0000000000000024 gicd_clr_igroupr
000000000097048c g     F .ro	0000000000000068 register_interrupt_type_handler
0000000000978ef4 g     F .ro	0000000000000024 strchr
000000000097fce8 g     O .bss	0000000000000008 gicv3_driver_data
0000000000974074 g     F .ro	0000000000000004 xlat_mmap_print
0000000000975a98  w    F .ro	00000000000000f8 imx_set_cluster_powerdown
000000000097249c g     F .ro	000000000000006c psci_acquire_pwr_domain_locks
0000000000974abc g     F .ro	0000000000000038 dram_umctl2_init
0000000000974e6c g     F .ro	0000000000000168 dram_dvfs_handler
0000000000979b48 g       .ro	0000000000000000 __pubsub_psci_cpu_on_finish_end
0000000000978374 g     F .ro	00000000000000ac el1_sysregs_context_restore
000000000097fd00 g     O .bss	0000000000000008 console_list
0000000000972278 g     F .ro	0000000000000084 psci_set_pwr_domains_to_run
0000000000970fd0 g     F .ro	0000000000000090 gicv3_cpuif_enable
0000000000970728 g     F .ro	0000000000000038 arm_gicv3_distif_post_restore
0000000000970894 g     F .ro	0000000000000014 gicd_write_igroupr
0000000000977a78 g       .ro	0000000000000000 report_unhandled_interrupt
0000000000974210 g     F .ro	0000000000000084 imx_buildinfo_handler
0000000000974558 g     F .ro	0000000000000028 ddr_pll_unbypass
000000000097a700 g     F .ro	0000000000000000 fiq_aarch32
00000000009786c8  w    F .ro	000000000000001c plat_get_my_stack
00000000009708f0 g     F .ro	0000000000000014 gicd_read_isactiver
00000000009710ac g     F .ro	00000000000000dc gicv3_rdistif_save
00000000009799d0 g       .ro	0000000000000000 __PARSER_LIB_DESCS_START__
000000000097fd88 g     O .bss	0000000000000008 psci_spd_pm
00000000009743c8 g     F .ro	000000000000000c plat_gic_driver_init
0000000000974414 g     F .ro	0000000000000014 plat_gic_cpuif_enable



Disassembly of section .ro:

0000000000970000 <bl31_entrypoint>:
  970000:	aa0003f4 	mov	x20, x0
  970004:	aa0103f5 	mov	x21, x1
  970008:	aa0203f6 	mov	x22, x2
  97000c:	aa0303f7 	mov	x23, x3
  970010:	d2810600 	mov	x0, #0x830                 	// #2096
  970014:	f2a618a0 	movk	x0, #0x30c5, lsl #16
  970018:	d51e1000 	msr	sctlr_el3, x0
  97001c:	d5033fdf 	isb
  970020:	940021cd 	bl	978754 <plat_get_my_entrypoint>
  970024:	b4000040 	cbz	x0, 97002c <do_cold_boot>
  970028:	d61f0000 	br	x0

000000000097002c <do_cold_boot>:
  97002c:	58000860 	ldr	x0, 970138 <do_primary_cold_boot+0xa0>
  970030:	9274cc00 	and	x0, x0, #0xfffffffffffff000
  970034:	d2a00041 	mov	x1, #0x20000               	// #131072
  970038:	8b000021 	add	x1, x1, x0
  97003c:	94001fde 	bl	977fb4 <fixup_gdt_reloc>
  970040:	1004fe00 	adr	x0, 97a000 <sync_exception_sp_el0>
  970044:	d51ec000 	msr	vbar_el3, x0
  970048:	d5033fdf 	isb
  97004c:	94002058 	bl	9781ac <reset_handler>
  970050:	d2820141 	mov	x1, #0x100a                	// #4106
  970054:	d53e1000 	mrs	x0, sctlr_el3
  970058:	aa010000 	orr	x0, x0, x1
  97005c:	d51e1000 	msr	sctlr_el3, x0
  970060:	d5033fdf 	isb
  970064:	9400214a 	bl	97858c <init_cpu_data_ptr>
  970068:	d2804700 	mov	x0, #0x238                 	// #568
  97006c:	d51e1100 	msr	scr_el3, x0
  970070:	d2900000 	mov	x0, #0x8000                	// #32768
  970074:	f2a20020 	movk	x0, #0x1001, lsl #16
  970078:	d51e1320 	msr	mdcr_el3, x0
  97007c:	d50344ff 	msr	daifclr, #0x4
  970080:	d2a80200 	mov	x0, #0x40100000            	// #1074790400
  970084:	d51e1140 	msr	cptr_el3, x0
  970088:	9400219b 	bl	9786f4 <plat_is_my_cpu_primary>
  97008c:	35000060 	cbnz	w0, 970098 <do_primary_cold_boot>
  970090:	940021b7 	bl	97876c <plat_secondary_cold_boot_setup>
  970094:	94001f0a 	bl	977cbc <el3_panic>

0000000000970098 <do_primary_cold_boot>:
  970098:	940021bb 	bl	978784 <platform_mem_init>
  97009c:	90000000 	adrp	x0, 970000 <bl31_entrypoint>
  9700a0:	91000000 	add	x0, x0, #0x0
  9700a4:	900000e1 	adrp	x1, 98c000 <RAM_REGION_END>
  9700a8:	91000021 	add	x1, x1, #0x0
  9700ac:	cb000021 	sub	x1, x1, x0
  9700b0:	94001f2b 	bl	977d5c <inv_dcache_range>
  9700b4:	d0000060 	adrp	x0, 97e000 <__STACKS_START__+0x2340>
  9700b8:	91240000 	add	x0, x0, #0x900
  9700bc:	d0000081 	adrp	x1, 982000 <imx_gicv3_ctx+0x1e90>
  9700c0:	91300021 	add	x1, x1, #0xc00
  9700c4:	cb000021 	sub	x1, x1, x0
  9700c8:	94001f7f 	bl	977ec4 <zeromem>
  9700cc:	f00000c0 	adrp	x0, 98b000 <psci_locks>
  9700d0:	91000000 	add	x0, x0, #0x0
  9700d4:	f00000c1 	adrp	x1, 98b000 <psci_locks>
  9700d8:	9101a021 	add	x1, x1, #0x68
  9700dc:	cb000021 	sub	x1, x1, x0
  9700e0:	94001f79 	bl	977ec4 <zeromem>
  9700e4:	d50040bf 	msr	spsel, #0x0
  9700e8:	9400217f 	bl	9786e4 <plat_set_my_stack>
  9700ec:	aa1403e0 	mov	x0, x20
  9700f0:	aa1503e1 	mov	x1, x21
  9700f4:	aa1603e2 	mov	x2, x22
  9700f8:	aa1703e3 	mov	x3, x23
  9700fc:	9400004f 	bl	970238 <bl31_setup>
  970100:	94000070 	bl	9702c0 <bl31_main>
  970104:	f0000040 	adrp	x0, 97b000 <__RO_END__>
  970108:	91000000 	add	x0, x0, #0x0
  97010c:	f0000041 	adrp	x1, 97b000 <__RO_END__>
  970110:	910ab821 	add	x1, x1, #0x2ae
  970114:	cb000021 	sub	x1, x1, x0
  970118:	94001f03 	bl	977d24 <clean_dcache_range>
  97011c:	d0000060 	adrp	x0, 97e000 <__STACKS_START__+0x2340>
  970120:	91240000 	add	x0, x0, #0x900
  970124:	d0000081 	adrp	x1, 982000 <imx_gicv3_ctx+0x1e90>
  970128:	91300021 	add	x1, x1, #0xc00
  97012c:	cb000021 	sub	x1, x1, x0
  970130:	94001efd 	bl	977d24 <clean_dcache_range>
  970134:	140020e9 	b	9784d8 <el3_exit>
  970138:	0097002c 	.word	0x0097002c
  97013c:	00000000 	.word	0x00000000

0000000000970140 <stm>:
  970140:	5d1b0020 	.word	0x5d1b0020
  970144:	00000000 	.word	0x00000000

0000000000970148 <bl31_warm_entrypoint>:
  970148:	1004f5c0 	adr	x0, 97a000 <sync_exception_sp_el0>
  97014c:	d51ec000 	msr	vbar_el3, x0
  970150:	d5033fdf 	isb
  970154:	94002016 	bl	9781ac <reset_handler>
  970158:	d2820141 	mov	x1, #0x100a                	// #4106
  97015c:	d53e1000 	mrs	x0, sctlr_el3
  970160:	aa010000 	orr	x0, x0, x1
  970164:	d51e1000 	msr	sctlr_el3, x0
  970168:	d5033fdf 	isb
  97016c:	94002108 	bl	97858c <init_cpu_data_ptr>
  970170:	d2804700 	mov	x0, #0x238                 	// #568
  970174:	d51e1100 	msr	scr_el3, x0
  970178:	d2900000 	mov	x0, #0x8000                	// #32768
  97017c:	f2a20020 	movk	x0, #0x1001, lsl #16
  970180:	d51e1320 	msr	mdcr_el3, x0
  970184:	d50344ff 	msr	daifclr, #0x4
  970188:	d2a80200 	mov	x0, #0x40100000            	// #1074790400
  97018c:	d51e1140 	msr	cptr_el3, x0
  970190:	d50040bf 	msr	spsel, #0x0
  970194:	94002154 	bl	9786e4 <plat_set_my_stack>
  970198:	d2800020 	mov	x0, #0x1                   	// #1
  97019c:	94002149 	bl	9786c0 <bl31_plat_enable_mmu>
  9701a0:	9400092d 	bl	972654 <psci_warmboot_entrypoint>
  9701a4:	140020cd 	b	9784d8 <el3_exit>

00000000009701a8 <cm_get_context>:
  9701a8:	d53ed041 	mrs	x1, tpidr_el3
  9701ac:	7100001f 	cmp	w0, #0x0
  9701b0:	9a9f07e0 	cset	x0, ne	// ne = any
  9701b4:	f8607820 	ldr	x0, [x1, x0, lsl #3]
  9701b8:	d65f03c0 	ret

00000000009701bc <cm_set_context>:
  9701bc:	d53ed042 	mrs	x2, tpidr_el3
  9701c0:	7100003f 	cmp	w1, #0x0
  9701c4:	9a9f07e1 	cset	x1, ne	// ne = any
  9701c8:	f8217840 	str	x0, [x2, x1, lsl #3]
  9701cc:	d65f03c0 	ret

00000000009701d0 <cm_get_context_by_index>:
  9701d0:	a9be7bfd 	stp	x29, x30, [sp, #-32]!
  9701d4:	910003fd 	mov	x29, sp
  9701d8:	f9000bf3 	str	x19, [sp, #16]
  9701dc:	2a0103f3 	mov	w19, w1
  9701e0:	940020f0 	bl	9785a0 <_cpu_data_by_index>
  9701e4:	7100027f 	cmp	w19, #0x0
  9701e8:	9a9f07e1 	cset	x1, ne	// ne = any
  9701ec:	f9400bf3 	ldr	x19, [sp, #16]
  9701f0:	f8617800 	ldr	x0, [x0, x1, lsl #3]
  9701f4:	a8c27bfd 	ldp	x29, x30, [sp], #32
  9701f8:	d65f03c0 	ret

00000000009701fc <cm_set_context_by_index>:
  9701fc:	a9be7bfd 	stp	x29, x30, [sp, #-32]!
  970200:	910003fd 	mov	x29, sp
  970204:	a90153f3 	stp	x19, x20, [sp, #16]
  970208:	aa0103f3 	mov	x19, x1
  97020c:	2a0203f4 	mov	w20, w2
  970210:	940020e4 	bl	9785a0 <_cpu_data_by_index>
  970214:	7100029f 	cmp	w20, #0x0
  970218:	9a9f07e1 	cset	x1, ne	// ne = any
  97021c:	f8217813 	str	x19, [x0, x1, lsl #3]
  970220:	a94153f3 	ldp	x19, x20, [sp, #16]
  970224:	a8c27bfd 	ldp	x29, x30, [sp], #32
  970228:	d65f03c0 	ret

000000000097022c <get_arm_std_svc_args>:
  97022c:	f0000040 	adrp	x0, 97b000 <__RO_END__>
  970230:	91000000 	add	x0, x0, #0x0
  970234:	d65f03c0 	ret

0000000000970238 <bl31_setup>:
  970238:	a9bf7bfd 	stp	x29, x30, [sp, #-16]!
  97023c:	910003fd 	mov	x29, sp
  970240:	94001a84 	bl	976c50 <bl31_early_platform_setup2>
  970244:	a8c17bfd 	ldp	x29, x30, [sp], #16
  970248:	14001ad5 	b	976d9c <bl31_plat_arch_setup>

000000000097024c <bl31_prepare_next_image_entry>:
  97024c:	a9be7bfd 	stp	x29, x30, [sp, #-32]!
  970250:	d5380400 	mrs	x0, id_aa64pfr0_el1
  970254:	910003fd 	mov	x29, sp
  970258:	927c0c00 	and	x0, x0, #0xf0
  97025c:	a90153f3 	stp	x19, x20, [sp, #16]
  970260:	f100401f 	cmp	x0, #0x10
  970264:	540000c1 	b.ne	97027c <bl31_prepare_next_image_entry+0x30>  // b.any
  970268:	b0000040 	adrp	x0, 979000 <imx_mmap>
  97026c:	911b6000 	add	x0, x0, #0x6d8
  970270:	940000fd 	bl	970664 <tf_log>
  970274:	94000593 	bl	9718c0 <console_flush>
  970278:	94001e91 	bl	977cbc <el3_panic>
  97027c:	f0000040 	adrp	x0, 97b000 <__RO_END__>
  970280:	b9422013 	ldr	w19, [x0, #544]
  970284:	2a1303e0 	mov	w0, w19
  970288:	94001b07 	bl	976ea4 <bl31_plat_get_next_image_ep_info>
  97028c:	aa0003f4 	mov	x20, x0
  970290:	940000a8 	bl	970530 <print_entry_point_info>
  970294:	aa1403e0 	mov	x0, x20
  970298:	9400066e 	bl	971c50 <cm_init_my_context>
  97029c:	7100067f 	cmp	w19, #0x1
  9702a0:	54000081 	b.ne	9702b0 <bl31_prepare_next_image_entry+0x64>  // b.any
  9702a4:	a94153f3 	ldp	x19, x20, [sp, #16]
  9702a8:	a8c27bfd 	ldp	x29, x30, [sp], #32
  9702ac:	140006e3 	b	971e38 <cm_prepare_el3_exit_ns>
  9702b0:	2a1303e0 	mov	w0, w19
  9702b4:	a94153f3 	ldp	x19, x20, [sp, #16]
  9702b8:	a8c27bfd 	ldp	x29, x30, [sp], #32
  9702bc:	140006ca 	b	971de4 <cm_prepare_el3_exit>

00000000009702c0 <bl31_main>:
  9702c0:	a9be7bfd 	stp	x29, x30, [sp, #-32]!
  9702c4:	910003fd 	mov	x29, sp
  9702c8:	a90153f3 	stp	x19, x20, [sp, #16]
  9702cc:	b0000054 	adrp	x20, 979000 <imx_mmap>
  9702d0:	94000642 	bl	971bd8 <cm_manage_extensions_el3>
  9702d4:	94000649 	bl	971bf8 <manage_extensions_nonsecure_per_world>
  9702d8:	b0000053 	adrp	x19, 979000 <imx_mmap>
  9702dc:	f9451a81 	ldr	x1, [x20, #2608]
  9702e0:	911ca273 	add	x19, x19, #0x728
  9702e4:	aa1303e0 	mov	x0, x19
  9702e8:	940000df 	bl	970664 <tf_log>
  9702ec:	f9452281 	ldr	x1, [x20, #2624]
  9702f0:	aa1303e0 	mov	x0, x19
  9702f4:	f0000073 	adrp	x19, 97f000 <psci_ns_context+0x600>
  9702f8:	940000db 	bl	970664 <tf_log>
  9702fc:	94001ad4 	bl	976e4c <bl31_platform_setup>
  970300:	940005cc 	bl	971a30 <cm_init>
  970304:	9400008c 	bl	970534 <runtime_svc_init>
  970308:	f9464260 	ldr	x0, [x19, #3200]
  97030c:	b4000080 	cbz	x0, 97031c <bl31_main+0x5c>
  970310:	9400056c 	bl	9718c0 <console_flush>
  970314:	f9464260 	ldr	x0, [x19, #3200]
  970318:	d63f0000 	blr	x0
  97031c:	97ffffcc 	bl	97024c <bl31_prepare_next_image_entry>
  970320:	94000568 	bl	9718c0 <console_flush>
  970324:	a94153f3 	ldp	x19, x20, [sp, #16]
  970328:	a8c27bfd 	ldp	x29, x30, [sp], #32
  97032c:	14000f54 	b	97407c <bl31_plat_runtime_setup>

0000000000970330 <bl31_register_bl32_init>:
  970330:	f0000061 	adrp	x1, 97f000 <psci_ns_context+0x600>
  970334:	f9064020 	str	x0, [x1, #3200]
  970338:	d65f03c0 	ret

000000000097033c <handle_sysreg_trap>:
  97033c:	12800000 	mov	w0, #0xffffffff            	// #-1
  970340:	d65f03c0 	ret

0000000000970344 <set_scr_el3_from_rm>:
  970344:	a9bd7bfd 	stp	x29, x30, [sp, #-48]!
  970348:	1ac22421 	lsr	w1, w1, w2
  97034c:	910003fd 	mov	x29, sp
  970350:	a90153f3 	stp	x19, x20, [sp, #16]
  970354:	2a0003f3 	mov	w19, w0
  970358:	2a0203f4 	mov	w20, w2
  97035c:	d37e7e73 	ubfiz	x19, x19, #2, #32
  970360:	a9025bf5 	stp	x21, x22, [sp, #32]
  970364:	8b344273 	add	x19, x19, w20, uxtw
  970368:	12000035 	and	w21, w1, #0x1
  97036c:	2a0203e1 	mov	w1, w2
  970370:	94000f69 	bl	974114 <plat_interrupt_type_to_line>
  970374:	2a0003f6 	mov	w22, w0
  970378:	f0000060 	adrp	x0, 97f000 <psci_ns_context+0x600>
  97037c:	91322000 	add	x0, x0, #0xc88
  970380:	8b130c13 	add	x19, x0, x19, lsl #3
  970384:	2a1503e0 	mov	w0, w21
  970388:	9ad62000 	lsl	x0, x0, x22
  97038c:	f9000660 	str	x0, [x19, #8]
  970390:	2a1403e0 	mov	w0, w20
  970394:	97ffff85 	bl	9701a8 <cm_get_context>
  970398:	b4000100 	cbz	x0, 9703b8 <set_scr_el3_from_rm+0x74>
  97039c:	2a1503e2 	mov	w2, w21
  9703a0:	2a1603e1 	mov	w1, w22
  9703a4:	a9425bf5 	ldp	x21, x22, [sp, #32]
  9703a8:	2a1403e0 	mov	w0, w20
  9703ac:	a94153f3 	ldp	x19, x20, [sp, #16]
  9703b0:	a8c37bfd 	ldp	x29, x30, [sp], #48
  9703b4:	14000674 	b	971d84 <cm_write_scr_el3_bit>
  9703b8:	a94153f3 	ldp	x19, x20, [sp, #16]
  9703bc:	a9425bf5 	ldp	x21, x22, [sp, #32]
  9703c0:	a8c37bfd 	ldp	x29, x30, [sp], #48
  9703c4:	d65f03c0 	ret

00000000009703c8 <get_scr_el3_from_routing_model>:
  9703c8:	2a0003e1 	mov	w1, w0
  9703cc:	f0000062 	adrp	x2, 97f000 <psci_ns_context+0x600>
  9703d0:	91322042 	add	x2, x2, #0xc88
  9703d4:	8b010c40 	add	x0, x2, x1, lsl #3
  9703d8:	8b010c43 	add	x3, x2, x1, lsl #3
  9703dc:	8b010c41 	add	x1, x2, x1, lsl #3
  9703e0:	f9400463 	ldr	x3, [x3, #8]
  9703e4:	f9402400 	ldr	x0, [x0, #72]
  9703e8:	f9401421 	ldr	x1, [x1, #40]
  9703ec:	aa030000 	orr	x0, x0, x3
  9703f0:	aa010000 	orr	x0, x0, x1
  9703f4:	d65f03c0 	ret

00000000009703f8 <set_routing_model>:
  9703f8:	a9be7bfd 	stp	x29, x30, [sp, #-32]!
  9703fc:	910003fd 	mov	x29, sp
  970400:	a90153f3 	stp	x19, x20, [sp, #16]
  970404:	2a0003f3 	mov	w19, w0
  970408:	2a0103f4 	mov	w20, w1
  97040c:	94000f54 	bl	97415c <plat_ic_has_interrupt_type>
  970410:	36000340 	tbz	w0, #0, 970478 <set_routing_model+0x80>
  970414:	12000680 	and	w0, w20, #0x3
  970418:	350002b3 	cbnz	w19, 97046c <set_routing_model+0x74>
  97041c:	51000800 	sub	w0, w0, #0x2
  970420:	7100041f 	cmp	w0, #0x1
  970424:	540002a8 	b.hi	970478 <set_routing_model+0x80>  // b.pmore
  970428:	d37b7e61 	ubfiz	x1, x19, #5, #32
  97042c:	f0000060 	adrp	x0, 97f000 <psci_ns_context+0x600>
  970430:	91322000 	add	x0, x0, #0xc88
  970434:	52800002 	mov	w2, #0x0                   	// #0
  970438:	8b010000 	add	x0, x0, x1
  97043c:	2a1403e1 	mov	w1, w20
  970440:	b9001814 	str	w20, [x0, #24]
  970444:	2a1303e0 	mov	w0, w19
  970448:	97ffffbf 	bl	970344 <set_scr_el3_from_rm>
  97044c:	2a1303e0 	mov	w0, w19
  970450:	2a1403e1 	mov	w1, w20
  970454:	52800022 	mov	w2, #0x1                   	// #1
  970458:	97ffffbb 	bl	970344 <set_scr_el3_from_rm>
  97045c:	52800000 	mov	w0, #0x0                   	// #0
  970460:	a94153f3 	ldp	x19, x20, [sp, #16]
  970464:	a8c27bfd 	ldp	x29, x30, [sp], #32
  970468:	d65f03c0 	ret
  97046c:	71000a7f 	cmp	w19, #0x2
  970470:	54000081 	b.ne	970480 <set_routing_model+0x88>  // b.any
  970474:	360ffdb4 	tbz	w20, #1, 970428 <set_routing_model+0x30>
  970478:	128002a0 	mov	w0, #0xffffffea            	// #-22
  97047c:	17fffff9 	b	970460 <set_routing_model+0x68>
  970480:	7100067f 	cmp	w19, #0x1
  970484:	54fffcc0 	b.eq	97041c <set_routing_model+0x24>  // b.none
  970488:	17fffffc 	b	970478 <set_routing_model+0x80>

000000000097048c <register_interrupt_type_handler>:
  97048c:	a9bd7bfd 	stp	x29, x30, [sp, #-48]!
  970490:	910003fd 	mov	x29, sp
  970494:	a90153f3 	stp	x19, x20, [sp, #16]
  970498:	f90013f5 	str	x21, [sp, #32]
  97049c:	aa0103f5 	mov	x21, x1
  9704a0:	b4000221 	cbz	x1, 9704e4 <register_interrupt_type_handler+0x58>
  9704a4:	2a0203e1 	mov	w1, w2
  9704a8:	71000c5f 	cmp	w2, #0x3
  9704ac:	540001c8 	b.hi	9704e4 <register_interrupt_type_handler+0x58>  // b.pmore
  9704b0:	2a0003f3 	mov	w19, w0
  9704b4:	f0000074 	adrp	x20, 97f000 <psci_ns_context+0x600>
  9704b8:	91322294 	add	x20, x20, #0xc88
  9704bc:	d37b7e73 	ubfiz	x19, x19, #5, #32
  9704c0:	f8736a82 	ldr	x2, [x20, x19]
  9704c4:	b5000142 	cbnz	x2, 9704ec <register_interrupt_type_handler+0x60>
  9704c8:	97ffffcc 	bl	9703f8 <set_routing_model>
  9704cc:	35000040 	cbnz	w0, 9704d4 <register_interrupt_type_handler+0x48>
  9704d0:	f8336a95 	str	x21, [x20, x19]
  9704d4:	a94153f3 	ldp	x19, x20, [sp, #16]
  9704d8:	f94013f5 	ldr	x21, [sp, #32]
  9704dc:	a8c37bfd 	ldp	x29, x30, [sp], #48
  9704e0:	d65f03c0 	ret
  9704e4:	128002a0 	mov	w0, #0xffffffea            	// #-22
  9704e8:	17fffffb 	b	9704d4 <register_interrupt_type_handler+0x48>
  9704ec:	12800480 	mov	w0, #0xffffffdb            	// #-37
  9704f0:	17fffff9 	b	9704d4 <register_interrupt_type_handler+0x48>

00000000009704f4 <get_interrupt_type_handler>:
  9704f4:	a9be7bfd 	stp	x29, x30, [sp, #-32]!
  9704f8:	910003fd 	mov	x29, sp
  9704fc:	f9000bf3 	str	x19, [sp, #16]
  970500:	2a0003f3 	mov	w19, w0
  970504:	94000f16 	bl	97415c <plat_ic_has_interrupt_type>
  970508:	36000100 	tbz	w0, #0, 970528 <get_interrupt_type_handler+0x34>
  97050c:	d37b7e73 	ubfiz	x19, x19, #5, #32
  970510:	f0000060 	adrp	x0, 97f000 <psci_ns_context+0x600>
  970514:	91322000 	add	x0, x0, #0xc88
  970518:	f8736800 	ldr	x0, [x0, x19]
  97051c:	f9400bf3 	ldr	x19, [sp, #16]
  970520:	a8c27bfd 	ldp	x29, x30, [sp], #32
  970524:	d65f03c0 	ret
  970528:	d2800000 	mov	x0, #0x0                   	// #0
  97052c:	17fffffc 	b	97051c <get_interrupt_type_handler+0x28>

0000000000970530 <print_entry_point_info>:
  970530:	d65f03c0 	ret

0000000000970534 <runtime_svc_init>:
  970534:	a9bb7bfd 	stp	x29, x30, [sp, #-80]!
  970538:	b0000040 	adrp	x0, 979000 <imx_mmap>
  97053c:	910003fd 	mov	x29, sp
  970540:	a90153f3 	stp	x19, x20, [sp, #16]
  970544:	f9452814 	ldr	x20, [x0, #2640]
  970548:	a9025bf5 	stp	x21, x22, [sp, #32]
  97054c:	f9453400 	ldr	x0, [x0, #2664]
  970550:	a90363f7 	stp	x23, x24, [sp, #48]
  970554:	cb140017 	sub	x23, x0, x20
  970558:	f90023f9 	str	x25, [sp, #64]
  97055c:	f1007eff 	cmp	x23, #0x1f
  970560:	54000569 	b.ls	97060c <runtime_svc_init+0xd8>  // b.plast
  970564:	b0000056 	adrp	x22, 979000 <imx_mmap>
  970568:	d345fef7 	lsr	x23, x23, #5
  97056c:	911d6ed6 	add	x22, x22, #0x75b
  970570:	52800018 	mov	w24, #0x0                   	// #0
  970574:	d2800013 	mov	x19, #0x0                   	// #0
  970578:	d0000095 	adrp	x21, 982000 <imx_gicv3_ctx+0x1e90>
  97057c:	912ba2b5 	add	x21, x21, #0xae8
  970580:	d2801002 	mov	x2, #0x80                  	// #128
  970584:	aa1503e0 	mov	x0, x21
  970588:	12800001 	mov	w1, #0xffffffff            	// #-1
  97058c:	940020e7 	bl	978928 <memset>
  970590:	d37bea79 	lsl	x25, x19, #5
  970594:	8b131693 	add	x19, x20, x19, lsl #5
  970598:	38796a81 	ldrb	w1, [x20, x25]
  97059c:	39400660 	ldrb	w0, [x19, #1]
  9705a0:	6b00003f 	cmp	w1, w0
  9705a4:	54000148 	b.hi	9705cc <runtime_svc_init+0x98>  // b.pmore
  9705a8:	7100fc1f 	cmp	w0, #0x3f
  9705ac:	54000108 	b.hi	9705cc <runtime_svc_init+0x98>  // b.pmore
  9705b0:	39400a60 	ldrb	w0, [x19, #2]
  9705b4:	7100041f 	cmp	w0, #0x1
  9705b8:	540000a8 	b.hi	9705cc <runtime_svc_init+0x98>  // b.pmore
  9705bc:	f9400a60 	ldr	x0, [x19, #16]
  9705c0:	b5000120 	cbnz	x0, 9705e4 <runtime_svc_init+0xb0>
  9705c4:	f9400e60 	ldr	x0, [x19, #24]
  9705c8:	b50002e0 	cbnz	x0, 970624 <runtime_svc_init+0xf0>
  9705cc:	aa1303e1 	mov	x1, x19
  9705d0:	b0000040 	adrp	x0, 979000 <imx_mmap>
  9705d4:	911ccc00 	add	x0, x0, #0x733
  9705d8:	94000023 	bl	970664 <tf_log>
  9705dc:	940004b9 	bl	9718c0 <console_flush>
  9705e0:	94001db7 	bl	977cbc <el3_panic>
  9705e4:	d63f0000 	blr	x0
  9705e8:	340001e0 	cbz	w0, 970624 <runtime_svc_init+0xf0>
  9705ec:	f9400661 	ldr	x1, [x19, #8]
  9705f0:	aa1603e0 	mov	x0, x22
  9705f4:	9400001c 	bl	970664 <tf_log>
  9705f8:	11000700 	add	w0, w24, #0x1
  9705fc:	12001c18 	and	w24, w0, #0xff
  970600:	92401c13 	and	x19, x0, #0xff
  970604:	eb2002ff 	cmp	x23, w0, uxtb
  970608:	54fffc48 	b.hi	970590 <runtime_svc_init+0x5c>  // b.pmore
  97060c:	a94153f3 	ldp	x19, x20, [sp, #16]
  970610:	a9425bf5 	ldp	x21, x22, [sp, #32]
  970614:	a94363f7 	ldp	x23, x24, [sp, #48]
  970618:	f94023f9 	ldr	x25, [sp, #64]
  97061c:	a8c57bfd 	ldp	x29, x30, [sp], #80
  970620:	d65f03c0 	ret
  970624:	39400a63 	ldrb	w3, [x19, #2]
  970628:	38796a81 	ldrb	w1, [x20, x25]
  97062c:	39400662 	ldrb	w2, [x19, #1]
  970630:	531a0063 	ubfiz	w3, w3, #6, #1
  970634:	12001421 	and	w1, w1, #0x3f
  970638:	2a030020 	orr	w0, w1, w3
  97063c:	12001442 	and	w2, w2, #0x3f
  970640:	2a0003e1 	mov	w1, w0
  970644:	2a030042 	orr	w2, w2, w3
  970648:	8b0002a0 	add	x0, x21, x0
  97064c:	6b02003f 	cmp	w1, w2
  970650:	54fffd48 	b.hi	9705f8 <runtime_svc_init+0xc4>  // b.pmore
  970654:	11000421 	add	w1, w1, #0x1
  970658:	38001418 	strb	w24, [x0], #1
  97065c:	12001c21 	and	w1, w1, #0xff
  970660:	17fffffb 	b	97064c <runtime_svc_init+0x118>

0000000000970664 <tf_log>:
  970664:	a9b67bfd 	stp	x29, x30, [sp, #-160]!
  970668:	910003fd 	mov	x29, sp
  97066c:	a90153f3 	stp	x19, x20, [sp, #16]
  970670:	aa0003f4 	mov	x20, x0
  970674:	a9068be1 	stp	x1, x2, [sp, #104]
  970678:	f0000041 	adrp	x1, 97b000 <__RO_END__>
  97067c:	a90793e3 	stp	x3, x4, [sp, #120]
  970680:	b9422421 	ldr	w1, [x1, #548]
  970684:	a9089be5 	stp	x5, x6, [sp, #136]
  970688:	f9004fe7 	str	x7, [sp, #152]
  97068c:	39400000 	ldrb	w0, [x0]
  970690:	6b00003f 	cmp	w1, w0
  970694:	54000263 	b.cc	9706e0 <tf_log+0x7c>  // b.lo, b.ul, b.last
  970698:	94000eb7 	bl	974174 <plat_log_get_prefix>
  97069c:	aa0003f3 	mov	x19, x0
  9706a0:	39400260 	ldrb	w0, [x19]
  9706a4:	35000240 	cbnz	w0, 9706ec <tf_log+0x88>
  9706a8:	910283e0 	add	x0, sp, #0xa0
  9706ac:	a90403e0 	stp	x0, x0, [sp, #64]
  9706b0:	910183e0 	add	x0, sp, #0x60
  9706b4:	f9002be0 	str	x0, [sp, #80]
  9706b8:	128006e0 	mov	w0, #0xffffffc8            	// #-56
  9706bc:	b9005be0 	str	w0, [sp, #88]
  9706c0:	b9005fff 	str	wzr, [sp, #92]
  9706c4:	a94407e0 	ldp	x0, x1, [sp, #64]
  9706c8:	a90207e0 	stp	x0, x1, [sp, #32]
  9706cc:	a94507e0 	ldp	x0, x1, [sp, #80]
  9706d0:	a90307e0 	stp	x0, x1, [sp, #48]
  9706d4:	910083e1 	add	x1, sp, #0x20
  9706d8:	91000680 	add	x0, x20, #0x1
  9706dc:	940020ed 	bl	978a90 <vprintf>
  9706e0:	a94153f3 	ldp	x19, x20, [sp, #16]
  9706e4:	a8ca7bfd 	ldp	x29, x30, [sp], #160
  9706e8:	d65f03c0 	ret
  9706ec:	91000673 	add	x19, x19, #0x1
  9706f0:	9400046a 	bl	971898 <putchar>
  9706f4:	17ffffeb 	b	9706a0 <tf_log+0x3c>

00000000009706f8 <arm_gicv3_distif_pre_save>:
  9706f8:	b0000041 	adrp	x1, 979000 <imx_mmap>
  9706fc:	f9459821 	ldr	x1, [x1, #2864]
  970700:	f9400021 	ldr	x1, [x1]
  970704:	f9401021 	ldr	x1, [x1, #32]
  970708:	f8605820 	ldr	x0, [x1, w0, uxtw #3]
  97070c:	91005002 	add	x2, x0, #0x14
  970710:	b9401401 	ldr	w1, [x0, #20]
  970714:	32000021 	orr	w1, w1, #0x1
  970718:	b9001401 	str	w1, [x0, #20]
  97071c:	b9400040 	ldr	w0, [x2]
  970720:	36ffffe0 	tbz	w0, #31, 97071c <arm_gicv3_distif_pre_save+0x24>
  970724:	d65f03c0 	ret

0000000000970728 <arm_gicv3_distif_post_restore>:
  970728:	b0000041 	adrp	x1, 979000 <imx_mmap>
  97072c:	f9459821 	ldr	x1, [x1, #2864]
  970730:	f9400021 	ldr	x1, [x1]
  970734:	f9401021 	ldr	x1, [x1, #32]
  970738:	f8605820 	ldr	x0, [x1, w0, uxtw #3]
  97073c:	91005002 	add	x2, x0, #0x14
  970740:	b9401401 	ldr	w1, [x0, #20]
  970744:	360000c1 	tbz	w1, #0, 97075c <arm_gicv3_distif_post_restore+0x34>
  970748:	b9401401 	ldr	w1, [x0, #20]
  97074c:	121f7821 	and	w1, w1, #0xfffffffe
  970750:	b9001401 	str	w1, [x0, #20]
  970754:	b9400040 	ldr	w0, [x2]
  970758:	37ffffe0 	tbnz	w0, #31, 970754 <arm_gicv3_distif_post_restore+0x2c>
  97075c:	d65f03c0 	ret

0000000000970760 <gicv3_distif_pre_save>:
  970760:	17ffffe6 	b	9706f8 <arm_gicv3_distif_pre_save>

0000000000970764 <gicv3_distif_post_restore>:
  970764:	17fffff1 	b	970728 <arm_gicv3_distif_post_restore>

0000000000970768 <gicv3_rdistif_on>:
  970768:	d65f03c0 	ret

000000000097076c <gicv3_check_erratas_applies>:
  97076c:	a9be7bfd 	stp	x29, x30, [sp, #-32]!
  970770:	910003fd 	mov	x29, sp
  970774:	91006fe2 	add	x2, sp, #0x1b
  970778:	910073e1 	add	x1, sp, #0x1c
  97077c:	940001ab 	bl	970e28 <gicv3_get_component_prodid_rev>
  970780:	a8c27bfd 	ldp	x29, x30, [sp], #32
  970784:	d65f03c0 	ret

0000000000970788 <gicd_set_icfgr>:
  970788:	531f0c24 	ubfiz	w4, w1, #1, #4
  97078c:	53047c21 	lsr	w1, w1, #4
  970790:	91300000 	add	x0, x0, #0xc00
  970794:	12000442 	and	w2, w2, #0x3
  970798:	d37ef421 	lsl	x1, x1, #2
  97079c:	52800063 	mov	w3, #0x3                   	// #3
  9707a0:	1ac42063 	lsl	w3, w3, w4
  9707a4:	1ac42042 	lsl	w2, w2, w4
  9707a8:	b8606825 	ldr	w5, [x1, x0]
  9707ac:	0a2300a3 	bic	w3, w5, w3
  9707b0:	2a020063 	orr	w3, w3, w2
  9707b4:	b8206823 	str	w3, [x1, x0]
  9707b8:	d65f03c0 	ret

00000000009707bc <gicd_clr_igroupr>:
  9707bc:	53057c23 	lsr	w3, w1, #5
  9707c0:	91020000 	add	x0, x0, #0x80
  9707c4:	52800022 	mov	w2, #0x1                   	// #1
  9707c8:	d37ef463 	lsl	x3, x3, #2
  9707cc:	1ac12041 	lsl	w1, w2, w1
  9707d0:	b8606864 	ldr	w4, [x3, x0]
  9707d4:	0a210081 	bic	w1, w4, w1
  9707d8:	b8206861 	str	w1, [x3, x0]
  9707dc:	d65f03c0 	ret

00000000009707e0 <gicd_set_igrpmodr>:
  9707e0:	53057c23 	lsr	w3, w1, #5
  9707e4:	91340000 	add	x0, x0, #0xd00
  9707e8:	52800022 	mov	w2, #0x1                   	// #1
  9707ec:	d37ef463 	lsl	x3, x3, #2
  9707f0:	1ac12041 	lsl	w1, w2, w1
  9707f4:	b8606864 	ldr	w4, [x3, x0]
  9707f8:	2a040021 	orr	w1, w1, w4
  9707fc:	b8206861 	str	w1, [x3, x0]
  970800:	d65f03c0 	ret

0000000000970804 <gicd_clr_igrpmodr>:
  970804:	53057c23 	lsr	w3, w1, #5
  970808:	91340000 	add	x0, x0, #0xd00
  97080c:	52800022 	mov	w2, #0x1                   	// #1
  970810:	d37ef463 	lsl	x3, x3, #2
  970814:	1ac12041 	lsl	w1, w2, w1
  970818:	b8606864 	ldr	w4, [x3, x0]
  97081c:	0a210081 	bic	w1, w4, w1
  970820:	b8206861 	str	w1, [x3, x0]
  970824:	d65f03c0 	ret

0000000000970828 <gicd_set_isenabler>:
  970828:	52800022 	mov	w2, #0x1                   	// #1
  97082c:	91040000 	add	x0, x0, #0x100
  970830:	1ac12042 	lsl	w2, w2, w1
  970834:	53057c21 	lsr	w1, w1, #5
  970838:	d37ef421 	lsl	x1, x1, #2
  97083c:	b8206822 	str	w2, [x1, x0]
  970840:	d65f03c0 	ret

0000000000970844 <gicd_set_ipriorityr>:
  970844:	91100000 	add	x0, x0, #0x400
  970848:	2a0103e1 	mov	w1, w1
  97084c:	12001c42 	and	w2, w2, #0xff
  970850:	38216802 	strb	w2, [x0, x1]
  970854:	d65f03c0 	ret

0000000000970858 <gicd_read_icfgr>:
  970858:	53047c21 	lsr	w1, w1, #4
  97085c:	91300000 	add	x0, x0, #0xc00
  970860:	d37ef421 	lsl	x1, x1, #2
  970864:	b8606820 	ldr	w0, [x1, x0]
  970868:	d65f03c0 	ret

000000000097086c <gicd_write_icfgr>:
  97086c:	53047c21 	lsr	w1, w1, #4
  970870:	91300000 	add	x0, x0, #0xc00
  970874:	d37ef421 	lsl	x1, x1, #2
  970878:	b8206822 	str	w2, [x1, x0]
  97087c:	d65f03c0 	ret

0000000000970880 <gicd_read_igroupr>:
  970880:	53057c21 	lsr	w1, w1, #5
  970884:	91020000 	add	x0, x0, #0x80
  970888:	d37ef421 	lsl	x1, x1, #2
  97088c:	b8606820 	ldr	w0, [x1, x0]
  970890:	d65f03c0 	ret

0000000000970894 <gicd_write_igroupr>:
  970894:	53057c21 	lsr	w1, w1, #5
  970898:	91020000 	add	x0, x0, #0x80
  97089c:	d37ef421 	lsl	x1, x1, #2
  9708a0:	b8206822 	str	w2, [x1, x0]
  9708a4:	d65f03c0 	ret

00000000009708a8 <gicd_read_igrpmodr>:
  9708a8:	53057c21 	lsr	w1, w1, #5
  9708ac:	91340000 	add	x0, x0, #0xd00
  9708b0:	d37ef421 	lsl	x1, x1, #2
  9708b4:	b8606820 	ldr	w0, [x1, x0]
  9708b8:	d65f03c0 	ret

00000000009708bc <gicd_write_igrpmodr>:
  9708bc:	53057c21 	lsr	w1, w1, #5
  9708c0:	91340000 	add	x0, x0, #0xd00
  9708c4:	d37ef421 	lsl	x1, x1, #2
  9708c8:	b8206822 	str	w2, [x1, x0]
  9708cc:	d65f03c0 	ret

00000000009708d0 <gicd_read_ipriorityr>:
  9708d0:	927e7421 	and	x1, x1, #0xfffffffc
  9708d4:	91100000 	add	x0, x0, #0x400
  9708d8:	b8606820 	ldr	w0, [x1, x0]
  9708dc:	d65f03c0 	ret

00000000009708e0 <gicd_write_ipriorityr>:
  9708e0:	927e7421 	and	x1, x1, #0xfffffffc
  9708e4:	91100000 	add	x0, x0, #0x400
  9708e8:	b8206822 	str	w2, [x1, x0]
  9708ec:	d65f03c0 	ret

00000000009708f0 <gicd_read_isactiver>:
  9708f0:	53057c21 	lsr	w1, w1, #5
  9708f4:	910c0000 	add	x0, x0, #0x300
  9708f8:	d37ef421 	lsl	x1, x1, #2
  9708fc:	b8606820 	ldr	w0, [x1, x0]
  970900:	d65f03c0 	ret

0000000000970904 <gicd_write_isactiver>:
  970904:	53057c21 	lsr	w1, w1, #5
  970908:	910c0000 	add	x0, x0, #0x300
  97090c:	d37ef421 	lsl	x1, x1, #2
  970910:	b8206822 	str	w2, [x1, x0]
  970914:	d65f03c0 	ret

0000000000970918 <gicd_read_isenabler>:
  970918:	53057c21 	lsr	w1, w1, #5
  97091c:	91040000 	add	x0, x0, #0x100
  970920:	d37ef421 	lsl	x1, x1, #2
  970924:	b8606820 	ldr	w0, [x1, x0]
  970928:	d65f03c0 	ret

000000000097092c <gicd_write_isenabler>:
  97092c:	53057c21 	lsr	w1, w1, #5
  970930:	91040000 	add	x0, x0, #0x100
  970934:	d37ef421 	lsl	x1, x1, #2
  970938:	b8206822 	str	w2, [x1, x0]
  97093c:	d65f03c0 	ret

0000000000970940 <gicd_read_ispendr>:
  970940:	53057c21 	lsr	w1, w1, #5
  970944:	91080000 	add	x0, x0, #0x200
  970948:	d37ef421 	lsl	x1, x1, #2
  97094c:	b8606820 	ldr	w0, [x1, x0]
  970950:	d65f03c0 	ret

0000000000970954 <gicd_write_ispendr>:
  970954:	53057c21 	lsr	w1, w1, #5
  970958:	91080000 	add	x0, x0, #0x200
  97095c:	d37ef421 	lsl	x1, x1, #2
  970960:	b8206822 	str	w2, [x1, x0]
  970964:	d65f03c0 	ret

0000000000970968 <gicd_read_nsacr>:
  970968:	53047c21 	lsr	w1, w1, #4
  97096c:	91380000 	add	x0, x0, #0xe00
  970970:	d37ef421 	lsl	x1, x1, #2
  970974:	b8606820 	ldr	w0, [x1, x0]
  970978:	d65f03c0 	ret

000000000097097c <gicd_write_nsacr>:
  97097c:	53047c21 	lsr	w1, w1, #4
  970980:	91380000 	add	x0, x0, #0xe00
  970984:	d37ef421 	lsl	x1, x1, #2
  970988:	b8206822 	str	w2, [x1, x0]
  97098c:	d65f03c0 	ret

0000000000970990 <gicr_write_ipriorityr>:
  970990:	91404000 	add	x0, x0, #0x10, lsl #12
  970994:	927e7421 	and	x1, x1, #0xfffffffc
  970998:	91100000 	add	x0, x0, #0x400
  97099c:	b8206822 	str	w2, [x1, x0]
  9709a0:	d65f03c0 	ret

00000000009709a4 <gicr_set_ipriorityr>:
  9709a4:	91404000 	add	x0, x0, #0x10, lsl #12
  9709a8:	2a0103e1 	mov	w1, w1
  9709ac:	91100000 	add	x0, x0, #0x400
  9709b0:	12001c42 	and	w2, w2, #0xff
  9709b4:	38216802 	strb	w2, [x0, x1]
  9709b8:	d65f03c0 	ret

00000000009709bc <gicr_clr_igroupr>:
  9709bc:	53057c23 	lsr	w3, w1, #5
  9709c0:	91404000 	add	x0, x0, #0x10, lsl #12
  9709c4:	91020000 	add	x0, x0, #0x80
  9709c8:	52800022 	mov	w2, #0x1                   	// #1
  9709cc:	d37ef463 	lsl	x3, x3, #2
  9709d0:	1ac12041 	lsl	w1, w2, w1
  9709d4:	b8606864 	ldr	w4, [x3, x0]
  9709d8:	0a210081 	bic	w1, w4, w1
  9709dc:	b8206861 	str	w1, [x3, x0]
  9709e0:	d65f03c0 	ret

00000000009709e4 <gicr_set_igrpmodr>:
  9709e4:	53057c23 	lsr	w3, w1, #5
  9709e8:	91404000 	add	x0, x0, #0x10, lsl #12
  9709ec:	91340000 	add	x0, x0, #0xd00
  9709f0:	52800022 	mov	w2, #0x1                   	// #1
  9709f4:	d37ef463 	lsl	x3, x3, #2
  9709f8:	1ac12041 	lsl	w1, w2, w1
  9709fc:	b8606864 	ldr	w4, [x3, x0]
  970a00:	2a040021 	orr	w1, w1, w4
  970a04:	b8206861 	str	w1, [x3, x0]
  970a08:	d65f03c0 	ret

0000000000970a0c <gicr_clr_igrpmodr>:
  970a0c:	53057c23 	lsr	w3, w1, #5
  970a10:	91404000 	add	x0, x0, #0x10, lsl #12
  970a14:	91340000 	add	x0, x0, #0xd00
  970a18:	52800022 	mov	w2, #0x1                   	// #1
  970a1c:	d37ef463 	lsl	x3, x3, #2
  970a20:	1ac12041 	lsl	w1, w2, w1
  970a24:	b8606864 	ldr	w4, [x3, x0]
  970a28:	0a210081 	bic	w1, w4, w1
  970a2c:	b8206861 	str	w1, [x3, x0]
  970a30:	d65f03c0 	ret

0000000000970a34 <gicr_set_isenabler>:
  970a34:	52800022 	mov	w2, #0x1                   	// #1
  970a38:	91404000 	add	x0, x0, #0x10, lsl #12
  970a3c:	1ac12042 	lsl	w2, w2, w1
  970a40:	53057c21 	lsr	w1, w1, #5
  970a44:	91040000 	add	x0, x0, #0x100
  970a48:	d37ef421 	lsl	x1, x1, #2
  970a4c:	b8206822 	str	w2, [x1, x0]
  970a50:	d65f03c0 	ret

0000000000970a54 <gicr_set_icfgr>:
  970a54:	531f0c24 	ubfiz	w4, w1, #1, #4
  970a58:	53047c21 	lsr	w1, w1, #4
  970a5c:	91404000 	add	x0, x0, #0x10, lsl #12
  970a60:	12000442 	and	w2, w2, #0x3
  970a64:	d37ef421 	lsl	x1, x1, #2
  970a68:	91300000 	add	x0, x0, #0xc00
  970a6c:	52800063 	mov	w3, #0x3                   	// #3
  970a70:	1ac42042 	lsl	w2, w2, w4
  970a74:	1ac42063 	lsl	w3, w3, w4
  970a78:	b8606825 	ldr	w5, [x1, x0]
  970a7c:	0a2300a3 	bic	w3, w5, w3
  970a80:	2a020063 	orr	w3, w3, w2
  970a84:	b8206823 	str	w3, [x1, x0]
  970a88:	d65f03c0 	ret

0000000000970a8c <gicv3_rdistif_mark_core_awake>:
  970a8c:	b9401401 	ldr	w1, [x0, #20]
  970a90:	91005002 	add	x2, x0, #0x14
  970a94:	36f800c1 	tbz	w1, #31, 970aac <gicv3_rdistif_mark_core_awake+0x20>
  970a98:	b9401401 	ldr	w1, [x0, #20]
  970a9c:	121f7821 	and	w1, w1, #0xfffffffe
  970aa0:	b9001401 	str	w1, [x0, #20]
  970aa4:	b9400041 	ldr	w1, [x2]
  970aa8:	37ffffe1 	tbnz	w1, #31, 970aa4 <gicv3_rdistif_mark_core_awake+0x18>
  970aac:	b9401401 	ldr	w1, [x0, #20]
  970ab0:	121e7821 	and	w1, w1, #0xfffffffd
  970ab4:	b9001401 	str	w1, [x0, #20]
  970ab8:	b9400040 	ldr	w0, [x2]
  970abc:	3717ffe0 	tbnz	w0, #2, 970ab8 <gicv3_rdistif_mark_core_awake+0x2c>
  970ac0:	d65f03c0 	ret

0000000000970ac4 <gicv3_rdistif_mark_core_asleep>:
  970ac4:	b9401401 	ldr	w1, [x0, #20]
  970ac8:	91005002 	add	x2, x0, #0x14
  970acc:	321f0021 	orr	w1, w1, #0x2
  970ad0:	b9001401 	str	w1, [x0, #20]
  970ad4:	b9400040 	ldr	w0, [x2]
  970ad8:	3617ffe0 	tbz	w0, #2, 970ad4 <gicv3_rdistif_mark_core_asleep+0x10>
  970adc:	d65f03c0 	ret

0000000000970ae0 <gicv3_rdistif_base_addrs_probe>:
  970ae0:	a9bc7bfd 	stp	x29, x30, [sp, #-64]!
  970ae4:	910003fd 	mov	x29, sp
  970ae8:	a90153f3 	stp	x19, x20, [sp, #16]
  970aec:	aa0203f3 	mov	x19, x2
  970af0:	a9025bf5 	stp	x21, x22, [sp, #32]
  970af4:	aa0003f6 	mov	x22, x0
  970af8:	aa0303f5 	mov	x21, x3
  970afc:	f9001bf7 	str	x23, [sp, #48]
  970b00:	2a0103f7 	mov	w23, w1
  970b04:	f9400674 	ldr	x20, [x19, #8]
  970b08:	b40001f5 	cbz	x21, 970b44 <gicv3_rdistif_base_addrs_probe+0x64>
  970b0c:	d360de81 	ubfx	x1, x20, #32, #24
  970b10:	d378fe80 	lsr	x0, x20, #56
  970b14:	aa008020 	orr	x0, x1, x0, lsl #32
  970b18:	d63f02a0 	blr	x21
  970b1c:	6b17001f 	cmp	w0, w23
  970b20:	54000042 	b.cs	970b28 <gicv3_rdistif_base_addrs_probe+0x48>  // b.hs, b.nlast
  970b24:	f8205ad3 	str	x19, [x22, w0, uxtw #3]
  970b28:	91408273 	add	x19, x19, #0x20, lsl #12
  970b2c:	3627fed4 	tbz	w20, #4, 970b04 <gicv3_rdistif_base_addrs_probe+0x24>
  970b30:	a94153f3 	ldp	x19, x20, [sp, #16]
  970b34:	a9425bf5 	ldp	x21, x22, [sp, #32]
  970b38:	f9401bf7 	ldr	x23, [sp, #48]
  970b3c:	a8c47bfd 	ldp	x29, x30, [sp], #64
  970b40:	d65f03c0 	ret
  970b44:	53085e80 	ubfx	w0, w20, #8, #16
  970b48:	17fffff5 	b	970b1c <gicv3_rdistif_base_addrs_probe+0x3c>

0000000000970b4c <gicv3_get_spi_limit>:
  970b4c:	b9400400 	ldr	w0, [x0, #4]
  970b50:	52807f81 	mov	w1, #0x3fc                 	// #1020
  970b54:	531b1000 	ubfiz	w0, w0, #5, #5
  970b58:	11008000 	add	w0, w0, #0x20
  970b5c:	710ff01f 	cmp	w0, #0x3fc
  970b60:	1a819000 	csel	w0, w0, w1, ls	// ls = plast
  970b64:	d65f03c0 	ret

0000000000970b68 <gicv3_spis_config_defaults>:
  970b68:	a9bd7bfd 	stp	x29, x30, [sp, #-48]!
  970b6c:	910003fd 	mov	x29, sp
  970b70:	a90153f3 	stp	x19, x20, [sp, #16]
  970b74:	aa0003f4 	mov	x20, x0
  970b78:	f90013f5 	str	x21, [sp, #32]
  970b7c:	97fffff4 	bl	970b4c <gicv3_get_spi_limit>
  970b80:	2a0003f3 	mov	w19, w0
  970b84:	52800415 	mov	w21, #0x20                  	// #32
  970b88:	6b1302bf 	cmp	w21, w19
  970b8c:	54000163 	b.cc	970bb8 <gicv3_spis_config_defaults+0x50>  // b.lo, b.ul, b.last
  970b90:	52800415 	mov	w21, #0x20                  	// #32
  970b94:	6b1302bf 	cmp	w21, w19
  970b98:	540001c3 	b.cc	970bd0 <gicv3_spis_config_defaults+0x68>  // b.lo, b.ul, b.last
  970b9c:	52800415 	mov	w21, #0x20                  	// #32
  970ba0:	6b1302bf 	cmp	w21, w19
  970ba4:	54000223 	b.cc	970be8 <gicv3_spis_config_defaults+0x80>  // b.lo, b.ul, b.last
  970ba8:	a94153f3 	ldp	x19, x20, [sp, #16]
  970bac:	f94013f5 	ldr	x21, [sp, #32]
  970bb0:	a8c37bfd 	ldp	x29, x30, [sp], #48
  970bb4:	d65f03c0 	ret
  970bb8:	2a1503e1 	mov	w1, w21
  970bbc:	aa1403e0 	mov	x0, x20
  970bc0:	12800002 	mov	w2, #0xffffffff            	// #-1
  970bc4:	110082b5 	add	w21, w21, #0x20
  970bc8:	97ffff33 	bl	970894 <gicd_write_igroupr>
  970bcc:	17ffffef 	b	970b88 <gicv3_spis_config_defaults+0x20>
  970bd0:	2a1503e1 	mov	w1, w21
  970bd4:	aa1403e0 	mov	x0, x20
  970bd8:	3201c3e2 	mov	w2, #0x80808080            	// #-2139062144
  970bdc:	110012b5 	add	w21, w21, #0x4
  970be0:	97ffff40 	bl	9708e0 <gicd_write_ipriorityr>
  970be4:	17ffffec 	b	970b94 <gicv3_spis_config_defaults+0x2c>
  970be8:	2a1503e1 	mov	w1, w21
  970bec:	aa1403e0 	mov	x0, x20
  970bf0:	52800002 	mov	w2, #0x0                   	// #0
  970bf4:	110042b5 	add	w21, w21, #0x10
  970bf8:	97ffff1d 	bl	97086c <gicd_write_icfgr>
  970bfc:	17ffffe9 	b	970ba0 <gicv3_spis_config_defaults+0x38>

0000000000970c00 <gicv3_secure_spis_config_props>:
  970c00:	a9bb7bfd 	stp	x29, x30, [sp, #-80]!
  970c04:	910003fd 	mov	x29, sp
  970c08:	a90153f3 	stp	x19, x20, [sp, #16]
  970c0c:	aa0103f3 	mov	x19, x1
  970c10:	a9025bf5 	stp	x21, x22, [sp, #32]
  970c14:	aa0003f5 	mov	x21, x0
  970c18:	52800016 	mov	w22, #0x0                   	// #0
  970c1c:	a90363f7 	stp	x23, x24, [sp, #48]
  970c20:	b2409ff8 	mov	x24, #0xffffffffff          	// #1099511627775
  970c24:	8b224837 	add	x23, x1, w2, uxtw #2
  970c28:	f90023f9 	str	x25, [sp, #64]
  970c2c:	91401819 	add	x25, x0, #0x6, lsl #12
  970c30:	f2a01ff8 	movk	x24, #0xff, lsl #16
  970c34:	eb17027f 	cmp	x19, x23
  970c38:	54000101 	b.ne	970c58 <gicv3_secure_spis_config_props+0x58>  // b.any
  970c3c:	a94153f3 	ldp	x19, x20, [sp, #16]
  970c40:	2a1603e0 	mov	w0, w22
  970c44:	a9425bf5 	ldp	x21, x22, [sp, #32]
  970c48:	a94363f7 	ldp	x23, x24, [sp, #48]
  970c4c:	f94023f9 	ldr	x25, [sp, #64]
  970c50:	a8c57bfd 	ldp	x29, x30, [sp], #80
  970c54:	d65f03c0 	ret
  970c58:	b9400274 	ldr	w20, [x19]
  970c5c:	12003294 	and	w20, w20, #0x1fff
  970c60:	51008280 	sub	w0, w20, #0x20
  970c64:	710f6c1f 	cmp	w0, #0x3db
  970c68:	54000388 	b.hi	970cd8 <gicv3_secure_spis_config_props+0xd8>  // b.pmore
  970c6c:	2a1403e1 	mov	w1, w20
  970c70:	aa1503e0 	mov	x0, x21
  970c74:	97fffed2 	bl	9707bc <gicd_clr_igroupr>
  970c78:	b9400260 	ldr	w0, [x19]
  970c7c:	2a1403e1 	mov	w1, w20
  970c80:	720b041f 	tst	w0, #0x600000
  970c84:	aa1503e0 	mov	x0, x21
  970c88:	540002c1 	b.ne	970ce0 <gicv3_secure_spis_config_props+0xe0>  // b.any
  970c8c:	321e02d6 	orr	w22, w22, #0x4
  970c90:	97fffed4 	bl	9707e0 <gicd_set_igrpmodr>
  970c94:	b9400262 	ldr	w2, [x19]
  970c98:	2a1403e1 	mov	w1, w20
  970c9c:	aa1503e0 	mov	x0, x21
  970ca0:	d3576042 	ubfx	x2, x2, #23, #2
  970ca4:	97fffeb9 	bl	970788 <gicd_set_icfgr>
  970ca8:	b9400262 	ldr	w2, [x19]
  970cac:	2a1403e1 	mov	w1, w20
  970cb0:	aa1503e0 	mov	x0, x21
  970cb4:	d34d5042 	ubfx	x2, x2, #13, #8
  970cb8:	97fffee3 	bl	970844 <gicd_set_ipriorityr>
  970cbc:	d53800a0 	mrs	x0, mpidr_el1
  970cc0:	d37d3281 	ubfiz	x1, x20, #3, #13
  970cc4:	8a180000 	and	x0, x0, x24
  970cc8:	f8216b20 	str	x0, [x25, x1]
  970ccc:	2a1403e1 	mov	w1, w20
  970cd0:	aa1503e0 	mov	x0, x21
  970cd4:	97fffed5 	bl	970828 <gicd_set_isenabler>
  970cd8:	91001273 	add	x19, x19, #0x4
  970cdc:	17ffffd6 	b	970c34 <gicv3_secure_spis_config_props+0x34>
  970ce0:	320002d6 	orr	w22, w22, #0x1
  970ce4:	97fffec8 	bl	970804 <gicd_clr_igrpmodr>
  970ce8:	17ffffeb 	b	970c94 <gicv3_secure_spis_config_props+0x94>

0000000000970cec <gicv3_ppi_sgi_config_defaults>:
  970cec:	a9be7bfd 	stp	x29, x30, [sp, #-32]!
  970cf0:	12800001 	mov	w1, #0xffffffff            	// #-1
  970cf4:	910003fd 	mov	x29, sp
  970cf8:	a90153f3 	stp	x19, x20, [sp, #16]
  970cfc:	aa0003f3 	mov	x19, x0
  970d00:	d2803000 	mov	x0, #0x180                 	// #384
  970d04:	f2a00020 	movk	x0, #0x1, lsl #16
  970d08:	b8206a61 	str	w1, [x19, x0]
  970d0c:	b9400260 	ldr	w0, [x19]
  970d10:	121d0014 	and	w20, w0, #0x8
  970d14:	371fffc0 	tbnz	w0, #3, 970d0c <gicv3_ppi_sgi_config_defaults+0x20>
  970d18:	d2801000 	mov	x0, #0x80                  	// #128
  970d1c:	12800001 	mov	w1, #0xffffffff            	// #-1
  970d20:	f2a00020 	movk	x0, #0x1, lsl #16
  970d24:	b8206a61 	str	w1, [x19, x0]
  970d28:	2a1403e1 	mov	w1, w20
  970d2c:	aa1303e0 	mov	x0, x19
  970d30:	3201c3e2 	mov	w2, #0x80808080            	// #-2139062144
  970d34:	11001294 	add	w20, w20, #0x4
  970d38:	97ffff16 	bl	970990 <gicr_write_ipriorityr>
  970d3c:	7100829f 	cmp	w20, #0x20
  970d40:	54ffff41 	b.ne	970d28 <gicv3_ppi_sgi_config_defaults+0x3c>  // b.any
  970d44:	d2818080 	mov	x0, #0xc04                 	// #3076
  970d48:	f2a00020 	movk	x0, #0x1, lsl #16
  970d4c:	b8206a7f 	str	wzr, [x19, x0]
  970d50:	a94153f3 	ldp	x19, x20, [sp, #16]
  970d54:	a8c27bfd 	ldp	x29, x30, [sp], #32
  970d58:	d65f03c0 	ret

0000000000970d5c <gicv3_secure_ppi_sgi_config_props>:
  970d5c:	a9bc7bfd 	stp	x29, x30, [sp, #-64]!
  970d60:	910003fd 	mov	x29, sp
  970d64:	a90153f3 	stp	x19, x20, [sp, #16]
  970d68:	aa0103f3 	mov	x19, x1
  970d6c:	a9025bf5 	stp	x21, x22, [sp, #32]
  970d70:	aa0003f5 	mov	x21, x0
  970d74:	52800016 	mov	w22, #0x0                   	// #0
  970d78:	f9001bf7 	str	x23, [sp, #48]
  970d7c:	8b224837 	add	x23, x1, w2, uxtw #2
  970d80:	eb17027f 	cmp	x19, x23
  970d84:	540000e1 	b.ne	970da0 <gicv3_secure_ppi_sgi_config_props+0x44>  // b.any
  970d88:	a94153f3 	ldp	x19, x20, [sp, #16]
  970d8c:	2a1603e0 	mov	w0, w22
  970d90:	a9425bf5 	ldp	x21, x22, [sp, #32]
  970d94:	f9401bf7 	ldr	x23, [sp, #48]
  970d98:	a8c47bfd 	ldp	x29, x30, [sp], #64
  970d9c:	d65f03c0 	ret
  970da0:	b9400274 	ldr	w20, [x19]
  970da4:	12003294 	and	w20, w20, #0x1fff
  970da8:	71007e9f 	cmp	w20, #0x1f
  970dac:	54000348 	b.hi	970e14 <gicv3_secure_ppi_sgi_config_props+0xb8>  // b.pmore
  970db0:	2a1403e1 	mov	w1, w20
  970db4:	aa1503e0 	mov	x0, x21
  970db8:	97ffff01 	bl	9709bc <gicr_clr_igroupr>
  970dbc:	b9400260 	ldr	w0, [x19]
  970dc0:	2a1403e1 	mov	w1, w20
  970dc4:	720b041f 	tst	w0, #0x600000
  970dc8:	aa1503e0 	mov	x0, x21
  970dcc:	54000281 	b.ne	970e1c <gicv3_secure_ppi_sgi_config_props+0xc0>  // b.any
  970dd0:	321e02d6 	orr	w22, w22, #0x4
  970dd4:	97ffff04 	bl	9709e4 <gicr_set_igrpmodr>
  970dd8:	b9400262 	ldr	w2, [x19]
  970ddc:	2a1403e1 	mov	w1, w20
  970de0:	aa1503e0 	mov	x0, x21
  970de4:	d34d5042 	ubfx	x2, x2, #13, #8
  970de8:	97fffeef 	bl	9709a4 <gicr_set_ipriorityr>
  970dec:	71003e9f 	cmp	w20, #0xf
  970df0:	540000c9 	b.ls	970e08 <gicv3_secure_ppi_sgi_config_props+0xac>  // b.plast
  970df4:	b9400262 	ldr	w2, [x19]
  970df8:	2a1403e1 	mov	w1, w20
  970dfc:	aa1503e0 	mov	x0, x21
  970e00:	d3576042 	ubfx	x2, x2, #23, #2
  970e04:	97ffff14 	bl	970a54 <gicr_set_icfgr>
  970e08:	2a1403e1 	mov	w1, w20
  970e0c:	aa1503e0 	mov	x0, x21
  970e10:	97ffff09 	bl	970a34 <gicr_set_isenabler>
  970e14:	91001273 	add	x19, x19, #0x4
  970e18:	17ffffda 	b	970d80 <gicv3_secure_ppi_sgi_config_props+0x24>
  970e1c:	320002d6 	orr	w22, w22, #0x1
  970e20:	97fffefb 	bl	970a0c <gicr_clr_igrpmodr>
  970e24:	17ffffed 	b	970dd8 <gicv3_secure_ppi_sgi_config_props+0x7c>

0000000000970e28 <gicv3_get_component_prodid_rev>:
  970e28:	b9400800 	ldr	w0, [x0, #8]
  970e2c:	53187c03 	lsr	w3, w0, #24
  970e30:	b9000023 	str	w3, [x1]
  970e34:	530c7c00 	lsr	w0, w0, #12
  970e38:	39000040 	strb	w0, [x2]
  970e3c:	d65f03c0 	ret

0000000000970e40 <gicd_wait_for_pending_write>:
  970e40:	b9400001 	ldr	w1, [x0]
  970e44:	37ffffe1 	tbnz	w1, #31, 970e40 <gicd_wait_for_pending_write>
  970e48:	d65f03c0 	ret

0000000000970e4c <gicr_wait_for_pending_write>:
  970e4c:	b9400001 	ldr	w1, [x0]
  970e50:	371fffe1 	tbnz	w1, #3, 970e4c <gicr_wait_for_pending_write>
  970e54:	d65f03c0 	ret

0000000000970e58 <gicv3_driver_init>:
  970e58:	a9be7bfd 	stp	x29, x30, [sp, #-32]!
  970e5c:	d29ffd01 	mov	x1, #0xffe8                	// #65512
  970e60:	910003fd 	mov	x29, sp
  970e64:	a90153f3 	stp	x19, x20, [sp, #16]
  970e68:	aa0003f3 	mov	x19, x0
  970e6c:	f9400000 	ldr	x0, [x0]
  970e70:	f9400662 	ldr	x2, [x19, #8]
  970e74:	b8616801 	ldr	w1, [x0, x1]
  970e78:	b9400000 	ldr	w0, [x0]
  970e7c:	b4000102 	cbz	x2, 970e9c <gicv3_driver_init+0x44>
  970e80:	a9420e60 	ldp	x0, x3, [x19, #32]
  970e84:	b9401e61 	ldr	w1, [x19, #28]
  970e88:	97ffff16 	bl	970ae0 <gicv3_rdistif_base_addrs_probe>
  970e8c:	f9401260 	ldr	x0, [x19, #32]
  970e90:	b9401e61 	ldr	w1, [x19, #28]
  970e94:	d37df021 	lsl	x1, x1, #3
  970e98:	94001b95 	bl	977cec <flush_dcache_range>
  970e9c:	f0000074 	adrp	x20, 97f000 <psci_ns_context+0x600>
  970ea0:	d2800101 	mov	x1, #0x8                   	// #8
  970ea4:	9133a280 	add	x0, x20, #0xce8
  970ea8:	f9067693 	str	x19, [x20, #3304]
  970eac:	94001b90 	bl	977cec <flush_dcache_range>
  970eb0:	f9467680 	ldr	x0, [x20, #3304]
  970eb4:	d2800601 	mov	x1, #0x30                  	// #48
  970eb8:	94001b8d 	bl	977cec <flush_dcache_range>
  970ebc:	f9400260 	ldr	x0, [x19]
  970ec0:	a94153f3 	ldp	x19, x20, [sp, #16]
  970ec4:	a8c27bfd 	ldp	x29, x30, [sp], #32
  970ec8:	17fffe29 	b	97076c <gicv3_check_erratas_applies>

0000000000970ecc <gicv3_distif_init>:
  970ecc:	a9be7bfd 	stp	x29, x30, [sp, #-32]!
  970ed0:	910003fd 	mov	x29, sp
  970ed4:	f9000bf3 	str	x19, [sp, #16]
  970ed8:	f0000073 	adrp	x19, 97f000 <psci_ns_context+0x600>
  970edc:	f9467660 	ldr	x0, [x19, #3304]
  970ee0:	f9400000 	ldr	x0, [x0]
  970ee4:	b9400001 	ldr	w1, [x0]
  970ee8:	121d7021 	and	w1, w1, #0xfffffff8
  970eec:	b9000001 	str	w1, [x0]
  970ef0:	97ffffd4 	bl	970e40 <gicd_wait_for_pending_write>
  970ef4:	b9400001 	ldr	w1, [x0]
  970ef8:	321c0421 	orr	w1, w1, #0x30
  970efc:	b9000001 	str	w1, [x0]
  970f00:	97ffffd0 	bl	970e40 <gicd_wait_for_pending_write>
  970f04:	97ffff19 	bl	970b68 <gicv3_spis_config_defaults>
  970f08:	f9467660 	ldr	x0, [x19, #3304]
  970f0c:	f9400801 	ldr	x1, [x0, #16]
  970f10:	b9401802 	ldr	w2, [x0, #24]
  970f14:	f9400000 	ldr	x0, [x0]
  970f18:	97ffff3a 	bl	970c00 <gicv3_secure_spis_config_props>
  970f1c:	f9467661 	ldr	x1, [x19, #3304]
  970f20:	f9400bf3 	ldr	x19, [sp, #16]
  970f24:	f9400021 	ldr	x1, [x1]
  970f28:	b9400022 	ldr	w2, [x1]
  970f2c:	2a020000 	orr	w0, w0, w2
  970f30:	b9000020 	str	w0, [x1]
  970f34:	aa0103e0 	mov	x0, x1
  970f38:	a8c27bfd 	ldp	x29, x30, [sp], #32
  970f3c:	17ffffc1 	b	970e40 <gicd_wait_for_pending_write>

0000000000970f40 <gicv3_rdistif_init>:
  970f40:	a9bd7bfd 	stp	x29, x30, [sp, #-48]!
  970f44:	910003fd 	mov	x29, sp
  970f48:	a90153f3 	stp	x19, x20, [sp, #16]
  970f4c:	f0000073 	adrp	x19, 97f000 <psci_ns_context+0x600>
  970f50:	2a0003f4 	mov	w20, w0
  970f54:	f9467661 	ldr	x1, [x19, #3304]
  970f58:	f9400021 	ldr	x1, [x1]
  970f5c:	f90013f5 	str	x21, [sp, #32]
  970f60:	b9400035 	ldr	w21, [x1]
  970f64:	97fffe01 	bl	970768 <gicv3_rdistif_on>
  970f68:	f9467660 	ldr	x0, [x19, #3304]
  970f6c:	f9401000 	ldr	x0, [x0, #32]
  970f70:	f8745814 	ldr	x20, [x0, w20, uxtw #3]
  970f74:	aa1403e0 	mov	x0, x20
  970f78:	97ffff5d 	bl	970cec <gicv3_ppi_sgi_config_defaults>
  970f7c:	f9467660 	ldr	x0, [x19, #3304]
  970f80:	f9400801 	ldr	x1, [x0, #16]
  970f84:	b9401802 	ldr	w2, [x0, #24]
  970f88:	aa1403e0 	mov	x0, x20
  970f8c:	97ffff74 	bl	970d5c <gicv3_secure_ppi_sgi_config_props>
  970f90:	6a35001f 	bics	wzr, w0, w21
  970f94:	54000160 	b.eq	970fc0 <gicv3_rdistif_init+0x80>  // b.none
  970f98:	2a0003e1 	mov	w1, w0
  970f9c:	f9467660 	ldr	x0, [x19, #3304]
  970fa0:	a94153f3 	ldp	x19, x20, [sp, #16]
  970fa4:	f9400000 	ldr	x0, [x0]
  970fa8:	f94013f5 	ldr	x21, [sp, #32]
  970fac:	b9400002 	ldr	w2, [x0]
  970fb0:	2a020021 	orr	w1, w1, w2
  970fb4:	b9000001 	str	w1, [x0]
  970fb8:	a8c37bfd 	ldp	x29, x30, [sp], #48
  970fbc:	17ffffa1 	b	970e40 <gicd_wait_for_pending_write>
  970fc0:	a94153f3 	ldp	x19, x20, [sp, #16]
  970fc4:	f94013f5 	ldr	x21, [sp, #32]
  970fc8:	a8c37bfd 	ldp	x29, x30, [sp], #48
  970fcc:	d65f03c0 	ret

0000000000970fd0 <gicv3_cpuif_enable>:
  970fd0:	a9bf7bfd 	stp	x29, x30, [sp, #-16]!
  970fd4:	f0000061 	adrp	x1, 97f000 <psci_ns_context+0x600>
  970fd8:	910003fd 	mov	x29, sp
  970fdc:	f9467421 	ldr	x1, [x1, #3304]
  970fe0:	f9401021 	ldr	x1, [x1, #32]
  970fe4:	f8605820 	ldr	x0, [x1, w0, uxtw #3]
  970fe8:	97fffea9 	bl	970a8c <gicv3_rdistif_mark_core_awake>
  970fec:	d53ecca0 	mrs	x0, icc_sre_el3
  970ff0:	b2400c00 	orr	x0, x0, #0xf
  970ff4:	d51ecca0 	msr	icc_sre_el3, x0
  970ff8:	d53e1100 	mrs	x0, scr_el3
  970ffc:	b2400001 	orr	x1, x0, #0x1
  971000:	d51e1101 	msr	scr_el3, x1
  971004:	d5033fdf 	isb
  971008:	d53cc9a1 	mrs	x1, icc_sre_el2
  97100c:	b2400c21 	orr	x1, x1, #0xf
  971010:	d51cc9a1 	msr	icc_sre_el2, x1
  971014:	d2800021 	mov	x1, #0x1                   	// #1
  971018:	d518cca1 	msr	icc_sre_el1, x1
  97101c:	d5033fdf 	isb
  971020:	927ff802 	and	x2, x0, #0xfffffffffffffffe
  971024:	d51e1102 	msr	scr_el3, x2
  971028:	d5033fdf 	isb
  97102c:	d518cca1 	msr	icc_sre_el1, x1
  971030:	d5033fdf 	isb
  971034:	d2801fe2 	mov	x2, #0xff                  	// #255
  971038:	d5184602 	msr	icc_pmr_el1, x2
  97103c:	d518ccc1 	msr	icc_igrpen0_el1, x1
  971040:	d53ecce1 	mrs	x1, icc_igrpen1_el3
  971044:	b27f0021 	orr	x1, x1, #0x2
  971048:	d51ecce1 	msr	icc_igrpen1_el3, x1
  97104c:	d51e1100 	msr	scr_el3, x0
  971050:	d5033fdf 	isb
  971054:	d5033f9f 	dsb	sy
  971058:	a8c17bfd 	ldp	x29, x30, [sp], #16
  97105c:	d65f03c0 	ret

0000000000971060 <gicv3_cpuif_disable>:
  971060:	d53ecca1 	mrs	x1, icc_sre_el3
  971064:	b27f0421 	orr	x1, x1, #0x6
  971068:	d51ecca1 	msr	icc_sre_el3, x1
  97106c:	d538ccc1 	mrs	x1, icc_igrpen0_el1
  971070:	927f7821 	and	x1, x1, #0xfffffffe
  971074:	d518ccc1 	msr	icc_igrpen0_el1, x1
  971078:	d53ecce1 	mrs	x1, icc_igrpen1_el3
  97107c:	927e7421 	and	x1, x1, #0xfffffffc
  971080:	d51ecce1 	msr	icc_igrpen1_el3, x1
  971084:	d5033fdf 	isb
  971088:	d5033f9f 	dsb	sy
  97108c:	d0000061 	adrp	x1, 97f000 <psci_ns_context+0x600>
  971090:	f9467421 	ldr	x1, [x1, #3304]
  971094:	f9401021 	ldr	x1, [x1, #32]
  971098:	f8605820 	ldr	x0, [x1, w0, uxtw #3]
  97109c:	17fffe8a 	b	970ac4 <gicv3_rdistif_mark_core_asleep>

00000000009710a0 <gicv3_get_pending_interrupt_type>:
  9710a0:	d538c840 	mrs	x0, icc_hppir0_el1
  9710a4:	12005c00 	and	w0, w0, #0xffffff
  9710a8:	d65f03c0 	ret

00000000009710ac <gicv3_rdistif_save>:
  9710ac:	a9bf7bfd 	stp	x29, x30, [sp, #-16]!
  9710b0:	2a0003e3 	mov	w3, w0
  9710b4:	d0000060 	adrp	x0, 97f000 <psci_ns_context+0x600>
  9710b8:	910003fd 	mov	x29, sp
  9710bc:	f9467400 	ldr	x0, [x0, #3304]
  9710c0:	aa0103e2 	mov	x2, x1
  9710c4:	f9401000 	ldr	x0, [x0, #32]
  9710c8:	f8635800 	ldr	x0, [x0, w3, uxtw #3]
  9710cc:	97ffff60 	bl	970e4c <gicr_wait_for_pending_write>
  9710d0:	b9400001 	ldr	w1, [x0]
  9710d4:	b9001041 	str	w1, [x2, #16]
  9710d8:	f9403801 	ldr	x1, [x0, #112]
  9710dc:	f9000041 	str	x1, [x2]
  9710e0:	f9403c01 	ldr	x1, [x0, #120]
  9710e4:	f9000441 	str	x1, [x2, #8]
  9710e8:	d2801001 	mov	x1, #0x80                  	// #128
  9710ec:	f2a00021 	movk	x1, #0x1, lsl #16
  9710f0:	b8616804 	ldr	w4, [x0, x1]
  9710f4:	91020021 	add	x1, x1, #0x80
  9710f8:	b9001444 	str	w4, [x2, #20]
  9710fc:	b8616804 	ldr	w4, [x0, x1]
  971100:	b9001844 	str	w4, [x2, #24]
  971104:	91040024 	add	x4, x1, #0x100
  971108:	b8646804 	ldr	w4, [x0, x4]
  97110c:	b9001c44 	str	w4, [x2, #28]
  971110:	91080024 	add	x4, x1, #0x200
  971114:	b8646804 	ldr	w4, [x0, x4]
  971118:	b9002044 	str	w4, [x2, #32]
  97111c:	91300024 	add	x4, x1, #0xc00
  971120:	b8646804 	ldr	w4, [x0, x4]
  971124:	b9004c44 	str	w4, [x2, #76]
  971128:	912c0024 	add	x4, x1, #0xb00
  97112c:	b8646804 	ldr	w4, [x0, x4]
  971130:	b9004444 	str	w4, [x2, #68]
  971134:	912c1024 	add	x4, x1, #0xb04
  971138:	91340021 	add	x1, x1, #0xd00
  97113c:	b8646804 	ldr	w4, [x0, x4]
  971140:	b9004844 	str	w4, [x2, #72]
  971144:	91404004 	add	x4, x0, #0x10, lsl #12
  971148:	91108084 	add	x4, x4, #0x420
  97114c:	b8616801 	ldr	w1, [x0, x1]
  971150:	b9005041 	str	w1, [x2, #80]
  971154:	cb000042 	sub	x2, x2, x0
  971158:	91404001 	add	x1, x0, #0x10, lsl #12
  97115c:	d1404042 	sub	x2, x2, #0x10, lsl #12
  971160:	91100021 	add	x1, x1, #0x400
  971164:	d10f7042 	sub	x2, x2, #0x3dc
  971168:	b9400020 	ldr	w0, [x1]
  97116c:	b8216840 	str	w0, [x2, x1]
  971170:	91001021 	add	x1, x1, #0x4
  971174:	eb04003f 	cmp	x1, x4
  971178:	54ffff81 	b.ne	971168 <gicv3_rdistif_save+0xbc>  // b.any
  97117c:	a8c17bfd 	ldp	x29, x30, [sp], #16
  971180:	2a0303e0 	mov	w0, w3
  971184:	17fffd77 	b	970760 <gicv3_distif_pre_save>

0000000000971188 <gicv3_rdistif_init_restore>:
  971188:	a9bd7bfd 	stp	x29, x30, [sp, #-48]!
  97118c:	910003fd 	mov	x29, sp
  971190:	a90153f3 	stp	x19, x20, [sp, #16]
  971194:	aa0103f4 	mov	x20, x1
  971198:	d0000061 	adrp	x1, 97f000 <psci_ns_context+0x600>
  97119c:	f9467421 	ldr	x1, [x1, #3304]
  9711a0:	f9401021 	ldr	x1, [x1, #32]
  9711a4:	f90013f5 	str	x21, [sp, #32]
  9711a8:	2a0003f5 	mov	w21, w0
  9711ac:	f8755833 	ldr	x19, [x1, w21, uxtw #3]
  9711b0:	97fffd6e 	bl	970768 <gicv3_rdistif_on>
  9711b4:	2a1503e0 	mov	w0, w21
  9711b8:	97fffd6b 	bl	970764 <gicv3_distif_post_restore>
  9711bc:	d2803002 	mov	x2, #0x180                 	// #384
  9711c0:	12800000 	mov	w0, #0xffffffff            	// #-1
  9711c4:	f2a00022 	movk	x2, #0x1, lsl #16
  9711c8:	b8226a60 	str	w0, [x19, x2]
  9711cc:	aa1303e0 	mov	x0, x19
  9711d0:	d1040042 	sub	x2, x2, #0x100
  9711d4:	97ffff1e 	bl	970e4c <gicr_wait_for_pending_write>
  9711d8:	b9401281 	ldr	w1, [x20, #16]
  9711dc:	121f7821 	and	w1, w1, #0xfffffffe
  9711e0:	b9000261 	str	w1, [x19]
  9711e4:	97ffff1a 	bl	970e4c <gicr_wait_for_pending_write>
  9711e8:	f9400280 	ldr	x0, [x20]
  9711ec:	f9003a60 	str	x0, [x19, #112]
  9711f0:	cb130281 	sub	x1, x20, x19
  9711f4:	f9400680 	ldr	x0, [x20, #8]
  9711f8:	f9003e60 	str	x0, [x19, #120]
  9711fc:	b9401680 	ldr	w0, [x20, #20]
  971200:	d1404021 	sub	x1, x1, #0x10, lsl #12
  971204:	b8226a60 	str	w0, [x19, x2]
  971208:	91320042 	add	x2, x2, #0xc80
  97120c:	d10f7021 	sub	x1, x1, #0x3dc
  971210:	b9404e80 	ldr	w0, [x20, #76]
  971214:	b8226a60 	str	w0, [x19, x2]
  971218:	91404260 	add	x0, x19, #0x10, lsl #12
  97121c:	91404262 	add	x2, x19, #0x10, lsl #12
  971220:	91100000 	add	x0, x0, #0x400
  971224:	91108042 	add	x2, x2, #0x420
  971228:	b8606823 	ldr	w3, [x1, x0]
  97122c:	b8004403 	str	w3, [x0], #4
  971230:	eb02001f 	cmp	x0, x2
  971234:	54ffffa1 	b.ne	971228 <gicv3_rdistif_init_restore+0xa0>  // b.any
  971238:	d2818002 	mov	x2, #0xc00                 	// #3072
  97123c:	b9404680 	ldr	w0, [x20, #68]
  971240:	f2a00022 	movk	x2, #0x1, lsl #16
  971244:	b8226a60 	str	w0, [x19, x2]
  971248:	91001042 	add	x2, x2, #0x4
  97124c:	b9404a80 	ldr	w0, [x20, #72]
  971250:	b8226a60 	str	w0, [x19, x2]
  971254:	9107f040 	add	x0, x2, #0x1fc
  971258:	b9405281 	ldr	w1, [x20, #80]
  97125c:	b8206a61 	str	w1, [x19, x0]
  971260:	d1281040 	sub	x0, x2, #0xa04
  971264:	b9401e81 	ldr	w1, [x20, #28]
  971268:	b8206a61 	str	w1, [x19, x0]
  97126c:	d1241040 	sub	x0, x2, #0x904
  971270:	d12c1042 	sub	x2, x2, #0xb04
  971274:	b9402281 	ldr	w1, [x20, #32]
  971278:	b8206a61 	str	w1, [x19, x0]
  97127c:	aa1303e0 	mov	x0, x19
  971280:	97fffef0 	bl	970e40 <gicd_wait_for_pending_write>
  971284:	b9401a81 	ldr	w1, [x20, #24]
  971288:	b8226a61 	str	w1, [x19, x2]
  97128c:	f94013f5 	ldr	x21, [sp, #32]
  971290:	b9401281 	ldr	w1, [x20, #16]
  971294:	a94153f3 	ldp	x19, x20, [sp, #16]
  971298:	b9000001 	str	w1, [x0]
  97129c:	a8c37bfd 	ldp	x29, x30, [sp], #48
  9712a0:	17fffeeb 	b	970e4c <gicr_wait_for_pending_write>

00000000009712a4 <gicv3_distif_save>:
  9712a4:	a9bd7bfd 	stp	x29, x30, [sp, #-48]!
  9712a8:	910003fd 	mov	x29, sp
  9712ac:	a90153f3 	stp	x19, x20, [sp, #16]
  9712b0:	aa0003f4 	mov	x20, x0
  9712b4:	d0000060 	adrp	x0, 97f000 <psci_ns_context+0x600>
  9712b8:	a9025bf5 	stp	x21, x22, [sp, #32]
  9712bc:	52800416 	mov	w22, #0x20                  	// #32
  9712c0:	f9467400 	ldr	x0, [x0, #3304]
  9712c4:	f9400013 	ldr	x19, [x0]
  9712c8:	aa1303e0 	mov	x0, x19
  9712cc:	97fffe20 	bl	970b4c <gicv3_get_spi_limit>
  9712d0:	2a0003f5 	mov	w21, w0
  9712d4:	aa1303e0 	mov	x0, x19
  9712d8:	97fffeda 	bl	970e40 <gicd_wait_for_pending_write>
  9712dc:	b9400260 	ldr	w0, [x19]
  9712e0:	b91ee280 	str	w0, [x20, #7904]
  9712e4:	6b1502df 	cmp	w22, w21
  9712e8:	54000403 	b.cc	971368 <gicv3_distif_save+0xc4>  // b.lo, b.ul, b.last
  9712ec:	52800416 	mov	w22, #0x20                  	// #32
  9712f0:	6b1502df 	cmp	w22, w21
  9712f4:	540004c3 	b.cc	97138c <gicv3_distif_save+0xe8>  // b.lo, b.ul, b.last
  9712f8:	52800416 	mov	w22, #0x20                  	// #32
  9712fc:	6b1502df 	cmp	w22, w21
  971300:	54000583 	b.cc	9713b0 <gicv3_distif_save+0x10c>  // b.lo, b.ul, b.last
  971304:	52800416 	mov	w22, #0x20                  	// #32
  971308:	6b1502df 	cmp	w22, w21
  97130c:	54000643 	b.cc	9713d4 <gicv3_distif_save+0x130>  // b.lo, b.ul, b.last
  971310:	52800416 	mov	w22, #0x20                  	// #32
  971314:	6b1502df 	cmp	w22, w21
  971318:	54000703 	b.cc	9713f8 <gicv3_distif_save+0x154>  // b.lo, b.ul, b.last
  97131c:	52800416 	mov	w22, #0x20                  	// #32
  971320:	6b1502df 	cmp	w22, w21
  971324:	540007c3 	b.cc	97141c <gicv3_distif_save+0x178>  // b.lo, b.ul, b.last
  971328:	52800416 	mov	w22, #0x20                  	// #32
  97132c:	6b1502df 	cmp	w22, w21
  971330:	54000883 	b.cc	971440 <gicv3_distif_save+0x19c>  // b.lo, b.ul, b.last
  971334:	52800416 	mov	w22, #0x20                  	// #32
  971338:	6b1502df 	cmp	w22, w21
  97133c:	54000943 	b.cc	971464 <gicv3_distif_save+0x1c0>  // b.lo, b.ul, b.last
  971340:	d28c2000 	mov	x0, #0x6100                	// #24832
  971344:	8b000273 	add	x19, x19, x0
  971348:	d2800000 	mov	x0, #0x0                   	// #0
  97134c:	11008001 	add	w1, w0, #0x20
  971350:	6b0102bf 	cmp	w21, w1
  971354:	540009a8 	b.hi	971488 <gicv3_distif_save+0x1e4>  // b.pmore
  971358:	a94153f3 	ldp	x19, x20, [sp, #16]
  97135c:	a9425bf5 	ldp	x21, x22, [sp, #32]
  971360:	a8c37bfd 	ldp	x29, x30, [sp], #48
  971364:	d65f03c0 	ret
  971368:	2a1603e1 	mov	w1, w22
  97136c:	aa1303e0 	mov	x0, x19
  971370:	97fffd44 	bl	970880 <gicd_read_igroupr>
  971374:	510082c1 	sub	w1, w22, #0x20
  971378:	110082d6 	add	w22, w22, #0x20
  97137c:	53057c21 	lsr	w1, w1, #5
  971380:	8b010a81 	add	x1, x20, x1, lsl #2
  971384:	b91ee420 	str	w0, [x1, #7908]
  971388:	17ffffd7 	b	9712e4 <gicv3_distif_save+0x40>
  97138c:	2a1603e1 	mov	w1, w22
  971390:	aa1303e0 	mov	x0, x19
  971394:	97fffd61 	bl	970918 <gicd_read_isenabler>
  971398:	510082c1 	sub	w1, w22, #0x20
  97139c:	110082d6 	add	w22, w22, #0x20
  9713a0:	53057c21 	lsr	w1, w1, #5
  9713a4:	911f6021 	add	x1, x1, #0x7d8
  9713a8:	b8217a80 	str	w0, [x20, x1, lsl #2]
  9713ac:	17ffffd1 	b	9712f0 <gicv3_distif_save+0x4c>
  9713b0:	2a1603e1 	mov	w1, w22
  9713b4:	aa1303e0 	mov	x0, x19
  9713b8:	97fffd62 	bl	970940 <gicd_read_ispendr>
  9713bc:	510082c1 	sub	w1, w22, #0x20
  9713c0:	110082d6 	add	w22, w22, #0x20
  9713c4:	53057c21 	lsr	w1, w1, #5
  9713c8:	8b010a81 	add	x1, x20, x1, lsl #2
  9713cc:	b91fdc20 	str	w0, [x1, #8156]
  9713d0:	17ffffcb 	b	9712fc <gicv3_distif_save+0x58>
  9713d4:	2a1603e1 	mov	w1, w22
  9713d8:	aa1303e0 	mov	x0, x19
  9713dc:	97fffd45 	bl	9708f0 <gicd_read_isactiver>
  9713e0:	510082c1 	sub	w1, w22, #0x20
  9713e4:	110082d6 	add	w22, w22, #0x20
  9713e8:	53057c21 	lsr	w1, w1, #5
  9713ec:	8b010a81 	add	x1, x20, x1, lsl #2
  9713f0:	b9205820 	str	w0, [x1, #8280]
  9713f4:	17ffffc5 	b	971308 <gicv3_distif_save+0x64>
  9713f8:	2a1603e1 	mov	w1, w22
  9713fc:	aa1303e0 	mov	x0, x19
  971400:	97fffd34 	bl	9708d0 <gicd_read_ipriorityr>
  971404:	510082c1 	sub	w1, w22, #0x20
  971408:	110012d6 	add	w22, w22, #0x4
  97140c:	927e7421 	and	x1, x1, #0xfffffffc
  971410:	8b010281 	add	x1, x20, x1
  971414:	b920d420 	str	w0, [x1, #8404]
  971418:	17ffffbf 	b	971314 <gicv3_distif_save+0x70>
  97141c:	2a1603e1 	mov	w1, w22
  971420:	aa1303e0 	mov	x0, x19
  971424:	97fffd0d 	bl	970858 <gicd_read_icfgr>
  971428:	510082c1 	sub	w1, w22, #0x20
  97142c:	110042d6 	add	w22, w22, #0x10
  971430:	53047c21 	lsr	w1, w1, #4
  971434:	9124b021 	add	x1, x1, #0x92c
  971438:	b8217a80 	str	w0, [x20, x1, lsl #2]
  97143c:	17ffffb9 	b	971320 <gicv3_distif_save+0x7c>
  971440:	2a1603e1 	mov	w1, w22
  971444:	aa1303e0 	mov	x0, x19
  971448:	97fffd18 	bl	9708a8 <gicd_read_igrpmodr>
  97144c:	510082c1 	sub	w1, w22, #0x20
  971450:	110082d6 	add	w22, w22, #0x20
  971454:	53057c21 	lsr	w1, w1, #5
  971458:	8b010a81 	add	x1, x20, x1, lsl #2
  97145c:	b925a820 	str	w0, [x1, #9640]
  971460:	17ffffb3 	b	97132c <gicv3_distif_save+0x88>
  971464:	2a1603e1 	mov	w1, w22
  971468:	aa1303e0 	mov	x0, x19
  97146c:	97fffd3f 	bl	970968 <gicd_read_nsacr>
  971470:	510082c1 	sub	w1, w22, #0x20
  971474:	110042d6 	add	w22, w22, #0x10
  971478:	53047c21 	lsr	w1, w1, #4
  97147c:	8b010a81 	add	x1, x20, x1, lsl #2
  971480:	b9262420 	str	w0, [x1, #9764]
  971484:	17ffffad 	b	971338 <gicv3_distif_save+0x94>
  971488:	f8408661 	ldr	x1, [x19], #8
  97148c:	f8207a81 	str	x1, [x20, x0, lsl #3]
  971490:	91000400 	add	x0, x0, #0x1
  971494:	17ffffae 	b	97134c <gicv3_distif_save+0xa8>

0000000000971498 <gicv3_distif_init_restore>:
  971498:	a9bd7bfd 	stp	x29, x30, [sp, #-48]!
  97149c:	910003fd 	mov	x29, sp
  9714a0:	a90153f3 	stp	x19, x20, [sp, #16]
  9714a4:	aa0003f4 	mov	x20, x0
  9714a8:	d0000060 	adrp	x0, 97f000 <psci_ns_context+0x600>
  9714ac:	a9025bf5 	stp	x21, x22, [sp, #32]
  9714b0:	52800416 	mov	w22, #0x20                  	// #32
  9714b4:	f9467400 	ldr	x0, [x0, #3304]
  9714b8:	f9400013 	ldr	x19, [x0]
  9714bc:	b9400260 	ldr	w0, [x19]
  9714c0:	121d7000 	and	w0, w0, #0xfffffff8
  9714c4:	b9000260 	str	w0, [x19]
  9714c8:	aa1303e0 	mov	x0, x19
  9714cc:	97fffe5d 	bl	970e40 <gicd_wait_for_pending_write>
  9714d0:	b9400261 	ldr	w1, [x19]
  9714d4:	321c0421 	orr	w1, w1, #0x30
  9714d8:	b9000261 	str	w1, [x19]
  9714dc:	97fffe59 	bl	970e40 <gicd_wait_for_pending_write>
  9714e0:	97fffd9b 	bl	970b4c <gicv3_get_spi_limit>
  9714e4:	2a0003f5 	mov	w21, w0
  9714e8:	6b1502df 	cmp	w22, w21
  9714ec:	54000463 	b.cc	971578 <gicv3_distif_init_restore+0xe0>  // b.lo, b.ul, b.last
  9714f0:	52800416 	mov	w22, #0x20                  	// #32
  9714f4:	6b1502df 	cmp	w22, w21
  9714f8:	54000523 	b.cc	97159c <gicv3_distif_init_restore+0x104>  // b.lo, b.ul, b.last
  9714fc:	52800416 	mov	w22, #0x20                  	// #32
  971500:	6b1502df 	cmp	w22, w21
  971504:	540005e3 	b.cc	9715c0 <gicv3_distif_init_restore+0x128>  // b.lo, b.ul, b.last
  971508:	52800416 	mov	w22, #0x20                  	// #32
  97150c:	6b1502df 	cmp	w22, w21
  971510:	540006a3 	b.cc	9715e4 <gicv3_distif_init_restore+0x14c>  // b.lo, b.ul, b.last
  971514:	52800416 	mov	w22, #0x20                  	// #32
  971518:	6b1502df 	cmp	w22, w21
  97151c:	54000763 	b.cc	971608 <gicv3_distif_init_restore+0x170>  // b.lo, b.ul, b.last
  971520:	d28c2000 	mov	x0, #0x6100                	// #24832
  971524:	8b000261 	add	x1, x19, x0
  971528:	d2800000 	mov	x0, #0x0                   	// #0
  97152c:	11008002 	add	w2, w0, #0x20
  971530:	6b0202bf 	cmp	w21, w2
  971534:	540007c8 	b.hi	97162c <gicv3_distif_init_restore+0x194>  // b.pmore
  971538:	52800416 	mov	w22, #0x20                  	// #32
  97153c:	6b1502df 	cmp	w22, w21
  971540:	540007e3 	b.cc	97163c <gicv3_distif_init_restore+0x1a4>  // b.lo, b.ul, b.last
  971544:	52800416 	mov	w22, #0x20                  	// #32
  971548:	6b1502df 	cmp	w22, w21
  97154c:	540008a3 	b.cc	971660 <gicv3_distif_init_restore+0x1c8>  // b.lo, b.ul, b.last
  971550:	52800416 	mov	w22, #0x20                  	// #32
  971554:	6b1502df 	cmp	w22, w21
  971558:	54000963 	b.cc	971684 <gicv3_distif_init_restore+0x1ec>  // b.lo, b.ul, b.last
  97155c:	b95ee280 	ldr	w0, [x20, #7904]
  971560:	a9425bf5 	ldp	x21, x22, [sp, #32]
  971564:	b9000260 	str	w0, [x19]
  971568:	aa1303e0 	mov	x0, x19
  97156c:	a94153f3 	ldp	x19, x20, [sp, #16]
  971570:	a8c37bfd 	ldp	x29, x30, [sp], #48
  971574:	17fffe33 	b	970e40 <gicd_wait_for_pending_write>
  971578:	510082c0 	sub	w0, w22, #0x20
  97157c:	2a1603e1 	mov	w1, w22
  971580:	110082d6 	add	w22, w22, #0x20
  971584:	53057c00 	lsr	w0, w0, #5
  971588:	8b000a80 	add	x0, x20, x0, lsl #2
  97158c:	b95ee402 	ldr	w2, [x0, #7908]
  971590:	aa1303e0 	mov	x0, x19
  971594:	97fffcc0 	bl	970894 <gicd_write_igroupr>
  971598:	17ffffd4 	b	9714e8 <gicv3_distif_init_restore+0x50>
  97159c:	510082c0 	sub	w0, w22, #0x20
  9715a0:	2a1603e1 	mov	w1, w22
  9715a4:	927e7400 	and	x0, x0, #0xfffffffc
  9715a8:	110012d6 	add	w22, w22, #0x4
  9715ac:	8b000280 	add	x0, x20, x0
  9715b0:	b960d402 	ldr	w2, [x0, #8404]
  9715b4:	aa1303e0 	mov	x0, x19
  9715b8:	97fffcca 	bl	9708e0 <gicd_write_ipriorityr>
  9715bc:	17ffffce 	b	9714f4 <gicv3_distif_init_restore+0x5c>
  9715c0:	510082c0 	sub	w0, w22, #0x20
  9715c4:	2a1603e1 	mov	w1, w22
  9715c8:	110042d6 	add	w22, w22, #0x10
  9715cc:	53047c00 	lsr	w0, w0, #4
  9715d0:	9124b000 	add	x0, x0, #0x92c
  9715d4:	b8607a82 	ldr	w2, [x20, x0, lsl #2]
  9715d8:	aa1303e0 	mov	x0, x19
  9715dc:	97fffca4 	bl	97086c <gicd_write_icfgr>
  9715e0:	17ffffc8 	b	971500 <gicv3_distif_init_restore+0x68>
  9715e4:	510082c0 	sub	w0, w22, #0x20
  9715e8:	2a1603e1 	mov	w1, w22
  9715ec:	110082d6 	add	w22, w22, #0x20
  9715f0:	53057c00 	lsr	w0, w0, #5
  9715f4:	8b000a80 	add	x0, x20, x0, lsl #2
  9715f8:	b965a802 	ldr	w2, [x0, #9640]
  9715fc:	aa1303e0 	mov	x0, x19
  971600:	97fffcaf 	bl	9708bc <gicd_write_igrpmodr>
  971604:	17ffffc2 	b	97150c <gicv3_distif_init_restore+0x74>
  971608:	510082c0 	sub	w0, w22, #0x20
  97160c:	2a1603e1 	mov	w1, w22
  971610:	110042d6 	add	w22, w22, #0x10
  971614:	53047c00 	lsr	w0, w0, #4
  971618:	8b000a80 	add	x0, x20, x0, lsl #2
  97161c:	b9662402 	ldr	w2, [x0, #9764]
  971620:	aa1303e0 	mov	x0, x19
  971624:	97fffcd6 	bl	97097c <gicd_write_nsacr>
  971628:	17ffffbc 	b	971518 <gicv3_distif_init_restore+0x80>
  97162c:	f8607a82 	ldr	x2, [x20, x0, lsl #3]
  971630:	91000400 	add	x0, x0, #0x1
  971634:	f8008422 	str	x2, [x1], #8
  971638:	17ffffbd 	b	97152c <gicv3_distif_init_restore+0x94>
  97163c:	510082c0 	sub	w0, w22, #0x20
  971640:	2a1603e1 	mov	w1, w22
  971644:	110082d6 	add	w22, w22, #0x20
  971648:	53057c00 	lsr	w0, w0, #5
  97164c:	911f6000 	add	x0, x0, #0x7d8
  971650:	b8607a82 	ldr	w2, [x20, x0, lsl #2]
  971654:	aa1303e0 	mov	x0, x19
  971658:	97fffcb5 	bl	97092c <gicd_write_isenabler>
  97165c:	17ffffb8 	b	97153c <gicv3_distif_init_restore+0xa4>
  971660:	510082c0 	sub	w0, w22, #0x20
  971664:	2a1603e1 	mov	w1, w22
  971668:	110082d6 	add	w22, w22, #0x20
  97166c:	53057c00 	lsr	w0, w0, #5
  971670:	8b000a80 	add	x0, x20, x0, lsl #2
  971674:	b95fdc02 	ldr	w2, [x0, #8156]
  971678:	aa1303e0 	mov	x0, x19
  97167c:	97fffcb6 	bl	970954 <gicd_write_ispendr>
  971680:	17ffffb2 	b	971548 <gicv3_distif_init_restore+0xb0>
  971684:	510082c0 	sub	w0, w22, #0x20
  971688:	2a1603e1 	mov	w1, w22
  97168c:	110082d6 	add	w22, w22, #0x20
  971690:	53057c00 	lsr	w0, w0, #5
  971694:	8b000a80 	add	x0, x20, x0, lsl #2
  971698:	b9605802 	ldr	w2, [x0, #8280]
  97169c:	aa1303e0 	mov	x0, x19
  9716a0:	97fffc99 	bl	970904 <gicd_write_isactiver>
  9716a4:	17ffffac 	b	971554 <gicv3_distif_init_restore+0xbc>

00000000009716a8 <gicv3_raise_sgi>:
  9716a8:	d3483c43 	ubfx	x3, x2, #8, #8
  9716ac:	52800024 	mov	w4, #0x1                   	// #1
  9716b0:	1ac22084 	lsl	w4, w4, w2
  9716b4:	92403c84 	and	x4, x4, #0xffff
  9716b8:	aa034083 	orr	x3, x4, x3, lsl #16
  9716bc:	d3609c44 	ubfx	x4, x2, #32, #8
  9716c0:	d3505c42 	ubfx	x2, x2, #16, #8
  9716c4:	d3680c00 	ubfiz	x0, x0, #24, #4
  9716c8:	d3607c42 	lsl	x2, x2, #32
  9716cc:	aa04c042 	orr	x2, x2, x4, lsl #48
  9716d0:	aa020062 	orr	x2, x3, x2
  9716d4:	aa000040 	orr	x0, x2, x0
  9716d8:	d5033a9f 	dsb	ishst
  9716dc:	7100043f 	cmp	w1, #0x1
  9716e0:	54000100 	b.eq	971700 <gicv3_raise_sgi+0x58>  // b.none
  9716e4:	7100083f 	cmp	w1, #0x2
  9716e8:	54000080 	b.eq	9716f8 <gicv3_raise_sgi+0x50>  // b.none
  9716ec:	340000e1 	cbz	w1, 971708 <gicv3_raise_sgi+0x60>
  9716f0:	d5033fdf 	isb
  9716f4:	d65f03c0 	ret
  9716f8:	d518cbe0 	msr	icc_sgi0r_el1, x0
  9716fc:	17fffffd 	b	9716f0 <gicv3_raise_sgi+0x48>
  971700:	d518cbc0 	msr	icc_asgi1r_el1, x0
  971704:	17fffffb 	b	9716f0 <gicv3_raise_sgi+0x48>
  971708:	d518cba0 	msr	icc_sgi1r_el1, x0
  97170c:	17fffff9 	b	9716f0 <gicv3_raise_sgi+0x48>

0000000000971710 <tzc380_init>:
  971710:	d0000061 	adrp	x1, 97f000 <psci_ns_context+0x600>
  971714:	9133c022 	add	x2, x1, #0xcf0
  971718:	f9067820 	str	x0, [x1, #3312]
  97171c:	b9400000 	ldr	w0, [x0]
  971720:	d3483401 	ubfx	x1, x0, #8, #6
  971724:	12000c00 	and	w0, w0, #0xf
  971728:	11000421 	add	w1, w1, #0x1
  97172c:	11000400 	add	w0, w0, #0x1
  971730:	39002041 	strb	w1, [x2, #8]
  971734:	39002440 	strb	w0, [x2, #9]
  971738:	d65f03c0 	ret

000000000097173c <tzc380_configure_region>:
  97173c:	d0000063 	adrp	x3, 97f000 <psci_ns_context+0x600>
  971740:	531c1c00 	ubfiz	w0, w0, #4, #8
  971744:	11040004 	add	w4, w0, #0x100
  971748:	f9467863 	ldr	x3, [x3, #3312]
  97174c:	aa0403e0 	mov	x0, x4
  971750:	11002000 	add	w0, w0, #0x8
  971754:	b8236881 	str	w1, [x4, x3]
  971758:	11001084 	add	w4, w4, #0x4
  97175c:	d360fc21 	lsr	x1, x1, #32
  971760:	b8236881 	str	w1, [x4, x3]
  971764:	b8236802 	str	w2, [x0, x3]
  971768:	d65f03c0 	ret

000000000097176c <console_is_registered>:
  97176c:	d0000061 	adrp	x1, 97f000 <psci_ns_context+0x600>
  971770:	f9468021 	ldr	x1, [x1, #3328]
  971774:	b5000061 	cbnz	x1, 971780 <console_is_registered+0x14>
  971778:	52800000 	mov	w0, #0x0                   	// #0
  97177c:	d65f03c0 	ret
  971780:	eb00003f 	cmp	x1, x0
  971784:	54000060 	b.eq	971790 <console_is_registered+0x24>  // b.none
  971788:	f9400021 	ldr	x1, [x1]
  97178c:	17fffffa 	b	971774 <console_is_registered+0x8>
  971790:	52800020 	mov	w0, #0x1                   	// #1
  971794:	17fffffa 	b	97177c <console_is_registered+0x10>

0000000000971798 <console_register>:
  971798:	a9bf7bfd 	stp	x29, x30, [sp, #-16]!
  97179c:	aa0003e2 	mov	x2, x0
  9717a0:	910003fd 	mov	x29, sp
  9717a4:	97fffff2 	bl	97176c <console_is_registered>
  9717a8:	7100041f 	cmp	w0, #0x1
  9717ac:	540000a0 	b.eq	9717c0 <console_register+0x28>  // b.none
  9717b0:	d0000060 	adrp	x0, 97f000 <psci_ns_context+0x600>
  9717b4:	f9468001 	ldr	x1, [x0, #3328]
  9717b8:	f9000041 	str	x1, [x2]
  9717bc:	f9068002 	str	x2, [x0, #3328]
  9717c0:	52800020 	mov	w0, #0x1                   	// #1
  9717c4:	a8c17bfd 	ldp	x29, x30, [sp], #16
  9717c8:	d65f03c0 	ret

00000000009717cc <console_switch_state>:
  9717cc:	d0000041 	adrp	x1, 97b000 <__RO_END__>
  9717d0:	390ab020 	strb	w0, [x1, #684]
  9717d4:	d65f03c0 	ret

00000000009717d8 <console_set_scope>:
  9717d8:	f9400402 	ldr	x2, [x0, #8]
  9717dc:	2a0103e1 	mov	w1, w1
  9717e0:	92785c42 	and	x2, x2, #0xffffff00
  9717e4:	aa010042 	orr	x2, x2, x1
  9717e8:	f9000402 	str	x2, [x0, #8]
  9717ec:	d65f03c0 	ret

00000000009717f0 <console_putc>:
  9717f0:	a9bd7bfd 	stp	x29, x30, [sp, #-48]!
  9717f4:	910003fd 	mov	x29, sp
  9717f8:	a9025bf5 	stp	x21, x22, [sp, #32]
  9717fc:	2a0003f5 	mov	w21, w0
  971800:	d0000060 	adrp	x0, 97f000 <psci_ns_context+0x600>
  971804:	a90153f3 	stp	x19, x20, [sp, #16]
  971808:	d0000056 	adrp	x22, 97b000 <__RO_END__>
  97180c:	910ab2d6 	add	x22, x22, #0x2ac
  971810:	f9468013 	ldr	x19, [x0, #3328]
  971814:	12800ff4 	mov	w20, #0xffffff80            	// #-128
  971818:	b50000d3 	cbnz	x19, 971830 <console_putc+0x40>
  97181c:	a9425bf5 	ldp	x21, x22, [sp, #32]
  971820:	2a1403e0 	mov	w0, w20
  971824:	a94153f3 	ldp	x19, x20, [sp, #16]
  971828:	a8c37bfd 	ldp	x29, x30, [sp], #48
  97182c:	d65f03c0 	ret
  971830:	f9400660 	ldr	x0, [x19, #8]
  971834:	394002c1 	ldrb	w1, [x22]
  971838:	ea00003f 	tst	x1, x0
  97183c:	54000060 	b.eq	971848 <console_putc+0x58>  // b.none
  971840:	f9400a62 	ldr	x2, [x19, #16]
  971844:	b50000a2 	cbnz	x2, 971858 <console_putc+0x68>
  971848:	2a1403e0 	mov	w0, w20
  97184c:	f9400273 	ldr	x19, [x19]
  971850:	2a0003f4 	mov	w20, w0
  971854:	17fffff1 	b	971818 <console_putc+0x28>
  971858:	71002abf 	cmp	w21, #0xa
  97185c:	54000120 	b.eq	971880 <console_putc+0x90>  // b.none
  971860:	f9400a62 	ldr	x2, [x19, #16]
  971864:	aa1303e1 	mov	x1, x19
  971868:	2a1503e0 	mov	w0, w21
  97186c:	d63f0040 	blr	x2
  971870:	3102029f 	cmn	w20, #0x80
  971874:	7a401280 	ccmp	w20, w0, #0x0, ne	// ne = any
  971878:	54fffe8d 	b.le	971848 <console_putc+0x58>
  97187c:	17fffff4 	b	97184c <console_putc+0x5c>
  971880:	3647ff00 	tbz	w0, #8, 971860 <console_putc+0x70>
  971884:	aa1303e1 	mov	x1, x19
  971888:	528001a0 	mov	w0, #0xd                   	// #13
  97188c:	d63f0040 	blr	x2
  971890:	36fffe80 	tbz	w0, #31, 971860 <console_putc+0x70>
  971894:	17fffff7 	b	971870 <console_putc+0x80>

0000000000971898 <putchar>:
  971898:	a9be7bfd 	stp	x29, x30, [sp, #-32]!
  97189c:	910003fd 	mov	x29, sp
  9718a0:	f9000bf3 	str	x19, [sp, #16]
  9718a4:	2a0003f3 	mov	w19, w0
  9718a8:	97ffffd2 	bl	9717f0 <console_putc>
  9718ac:	7100001f 	cmp	w0, #0x0
  9718b0:	5a9f0260 	csinv	w0, w19, wzr, eq	// eq = none
  9718b4:	f9400bf3 	ldr	x19, [sp, #16]
  9718b8:	a8c27bfd 	ldp	x29, x30, [sp], #32
  9718bc:	d65f03c0 	ret

00000000009718c0 <console_flush>:
  9718c0:	a9be7bfd 	stp	x29, x30, [sp, #-32]!
  9718c4:	d0000060 	adrp	x0, 97f000 <psci_ns_context+0x600>
  9718c8:	910003fd 	mov	x29, sp
  9718cc:	a90153f3 	stp	x19, x20, [sp, #16]
  9718d0:	d0000054 	adrp	x20, 97b000 <__RO_END__>
  9718d4:	910ab294 	add	x20, x20, #0x2ac
  9718d8:	f9468013 	ldr	x19, [x0, #3328]
  9718dc:	b5000093 	cbnz	x19, 9718ec <console_flush+0x2c>
  9718e0:	a94153f3 	ldp	x19, x20, [sp, #16]
  9718e4:	a8c27bfd 	ldp	x29, x30, [sp], #32
  9718e8:	d65f03c0 	ret
  9718ec:	f9400660 	ldr	x0, [x19, #8]
  9718f0:	39400281 	ldrb	w1, [x20]
  9718f4:	ea00003f 	tst	x1, x0
  9718f8:	540000a0 	b.eq	97190c <console_flush+0x4c>  // b.none
  9718fc:	f9400e61 	ldr	x1, [x19, #24]
  971900:	b4000061 	cbz	x1, 97190c <console_flush+0x4c>
  971904:	aa1303e0 	mov	x0, x19
  971908:	d63f0020 	blr	x1
  97190c:	f9400273 	ldr	x19, [x19]
  971910:	17fffff3 	b	9718dc <console_flush+0x1c>

0000000000971914 <udelay>:
  971914:	a9bd7bfd 	stp	x29, x30, [sp, #-48]!
  971918:	910003fd 	mov	x29, sp
  97191c:	f90013f5 	str	x21, [sp, #32]
  971920:	d0000075 	adrp	x21, 97f000 <psci_ns_context+0x600>
  971924:	a90153f3 	stp	x19, x20, [sp, #16]
  971928:	2a0003f3 	mov	w19, w0
  97192c:	f94686a0 	ldr	x0, [x21, #3336]
  971930:	f9400000 	ldr	x0, [x0]
  971934:	d63f0000 	blr	x0
  971938:	2a0003f4 	mov	w20, w0
  97193c:	f94686a1 	ldr	x1, [x21, #3336]
  971940:	29410420 	ldp	w0, w1, [x1, #8]
  971944:	d1000402 	sub	x2, x0, #0x1
  971948:	9ba10a73 	umaddl	x19, w19, w1, x2
  97194c:	9ac00a73 	udiv	x19, x19, x0
  971950:	91000673 	add	x19, x19, #0x1
  971954:	f94686a0 	ldr	x0, [x21, #3336]
  971958:	f9400000 	ldr	x0, [x0]
  97195c:	d63f0000 	blr	x0
  971960:	4b000281 	sub	w1, w20, w0
  971964:	eb13003f 	cmp	x1, x19
  971968:	54ffff63 	b.cc	971954 <udelay+0x40>  // b.lo, b.ul, b.last
  97196c:	a94153f3 	ldp	x19, x20, [sp, #16]
  971970:	f94013f5 	ldr	x21, [sp, #32]
  971974:	a8c37bfd 	ldp	x29, x30, [sp], #48
  971978:	d65f03c0 	ret

000000000097197c <timer_init>:
  97197c:	d0000061 	adrp	x1, 97f000 <psci_ns_context+0x600>
  971980:	f9068420 	str	x0, [x1, #3336]
  971984:	d65f03c0 	ret

0000000000971988 <get_timer_value>:
  971988:	d53be020 	mrs	x0, cntpct_el0
  97198c:	2a2003e0 	mvn	w0, w0
  971990:	d65f03c0 	ret

0000000000971994 <generic_delay_timer_init_args>:
  971994:	2a0003e4 	mov	w4, w0
  971998:	d0000063 	adrp	x3, 97f000 <psci_ns_context+0x600>
  97199c:	91344060 	add	x0, x3, #0xd10
  9719a0:	90000002 	adrp	x2, 971000 <gicv3_cpuif_enable+0x30>
  9719a4:	91262042 	add	x2, x2, #0x988
  9719a8:	f9068862 	str	x2, [x3, #3344]
  9719ac:	29010404 	stp	w4, w1, [x0, #8]
  9719b0:	17fffff3 	b	97197c <timer_init>

00000000009719b4 <generic_delay_timer_init>:
  9719b4:	a9bf7bfd 	stp	x29, x30, [sp, #-16]!
  9719b8:	910003fd 	mov	x29, sp
  9719bc:	94001544 	bl	976ecc <plat_get_syscnt_freq2>
  9719c0:	2a0003e1 	mov	w1, w0
  9719c4:	52800142 	mov	w2, #0xa                   	// #10
  9719c8:	1ac20800 	udiv	w0, w0, w2
  9719cc:	1b028400 	msub	w0, w0, w2, w1
  9719d0:	350001a0 	cbnz	w0, 971a04 <generic_delay_timer_init+0x50>
  9719d4:	52884800 	mov	w0, #0x4240                	// #16960
  9719d8:	72a001e0 	movk	w0, #0xf, lsl #16
  9719dc:	1ac20800 	udiv	w0, w0, w2
  9719e0:	1ac20821 	udiv	w1, w1, w2
  9719e4:	1ac20803 	udiv	w3, w0, w2
  9719e8:	1ac20824 	udiv	w4, w1, w2
  9719ec:	1b028063 	msub	w3, w3, w2, w0
  9719f0:	1b028484 	msub	w4, w4, w2, w1
  9719f4:	2a040063 	orr	w3, w3, w4
  9719f8:	34ffff23 	cbz	w3, 9719dc <generic_delay_timer_init+0x28>
  9719fc:	a8c17bfd 	ldp	x29, x30, [sp], #16
  971a00:	17ffffe5 	b	971994 <generic_delay_timer_init_args>
  971a04:	52884800 	mov	w0, #0x4240                	// #16960
  971a08:	72a001e0 	movk	w0, #0xf, lsl #16
  971a0c:	17fffffc 	b	9719fc <generic_delay_timer_init+0x48>

0000000000971a10 <print_errata_status>:
  971a10:	d65f03c0 	ret

0000000000971a14 <read_feat_mpam_version>:
  971a14:	d5380401 	mrs	x1, id_aa64pfr0_el1
  971a18:	d368fc21 	lsr	x1, x1, #40
  971a1c:	d5380420 	mrs	x0, id_aa64pfr1_el1
  971a20:	531c0c21 	ubfiz	w1, w1, #4, #4
  971a24:	53104c00 	ubfx	w0, w0, #16, #4
  971a28:	2a000020 	orr	w0, w1, w0
  971a2c:	d65f03c0 	ret

0000000000971a30 <cm_init>:
  971a30:	d65f03c0 	ret

0000000000971a34 <cm_setup_context>:
  971a34:	a9bd7bfd 	stp	x29, x30, [sp, #-48]!
  971a38:	910003fd 	mov	x29, sp
  971a3c:	a90153f3 	stp	x19, x20, [sp, #16]
  971a40:	aa0103f4 	mov	x20, x1
  971a44:	aa0003f3 	mov	x19, x0
  971a48:	d2804801 	mov	x1, #0x240                 	// #576
  971a4c:	a9025bf5 	stp	x21, x22, [sp, #32]
  971a50:	9400191d 	bl	977ec4 <zeromem>
  971a54:	b9401283 	ldr	w3, [x20, #16]
  971a58:	d2804600 	mov	x0, #0x230                 	// #560
  971a5c:	d280c602 	mov	x2, #0x630                 	// #1584
  971a60:	f27c007f 	tst	x3, #0x10
  971a64:	9a800042 	csel	x2, x2, x0, eq	// eq = none
  971a68:	b9400680 	ldr	w0, [x20, #4]
  971a6c:	36100040 	tbz	w0, #2, 971a74 <cm_setup_context+0x40>
  971a70:	b2750042 	orr	x2, x2, #0x800
  971a74:	f9400a80 	ldr	x0, [x20, #16]
  971a78:	927e0801 	and	x1, x0, #0x1c
  971a7c:	f100203f 	cmp	x1, #0x8
  971a80:	54000080 	b.eq	971a90 <cm_setup_context+0x5c>  // b.none
  971a84:	92401000 	and	x0, x0, #0x1f
  971a88:	f100681f 	cmp	x0, #0x1a
  971a8c:	54000041 	b.ne	971a94 <cm_setup_context+0x60>  // b.any
  971a90:	b2780042 	orr	x2, x2, #0x100
  971a94:	97ffffe0 	bl	971a14 <read_feat_mpam_version>
  971a98:	2a0003f6 	mov	w22, w0
  971a9c:	34000060 	cbz	w0, 971aa8 <cm_setup_context+0x74>
  971aa0:	d2e80000 	mov	x0, #0x4000000000000000    	// #4611686018427387904
  971aa4:	f9009e60 	str	x0, [x19, #312]
  971aa8:	f9400681 	ldr	x1, [x20, #8]
  971aac:	2a0303e3 	mov	w3, w3
  971ab0:	f9008262 	str	x2, [x19, #256]
  971ab4:	aa1303e0 	mov	x0, x19
  971ab8:	a9118663 	stp	x3, x1, [x19, #280]
  971abc:	d2800802 	mov	x2, #0x40                  	// #64
  971ac0:	91006281 	add	x1, x20, #0x18
  971ac4:	94001b84 	bl	9788d4 <memcpy>
  971ac8:	b9400680 	ldr	w0, [x20, #4]
  971acc:	52800421 	mov	w1, #0x21                  	// #33
  971ad0:	6a010000 	ands	w0, w0, w1
  971ad4:	54000100 	b.eq	971af4 <cm_setup_context+0xc0>  // b.none
  971ad8:	7100041f 	cmp	w0, #0x1
  971adc:	54000420 	b.eq	971b60 <cm_setup_context+0x12c>  // b.none
  971ae0:	90000040 	adrp	x0, 979000 <imx_mmap>
  971ae4:	911e0c00 	add	x0, x0, #0x783
  971ae8:	97fffadf 	bl	970664 <tf_log>
  971aec:	97ffff75 	bl	9718c0 <console_flush>
  971af0:	94001873 	bl	977cbc <el3_panic>
  971af4:	f9408274 	ldr	x20, [x19, #256]
  971af8:	52800000 	mov	w0, #0x0                   	// #0
  971afc:	97fffa33 	bl	9703c8 <get_scr_el3_from_routing_model>
  971b00:	d5380421 	mrs	x1, id_aa64pfr1_el1
  971b04:	53082c21 	ubfx	w1, w1, #8, #4
  971b08:	aa000280 	orr	x0, x20, x0
  971b0c:	7100043f 	cmp	w1, #0x1
  971b10:	54000041 	b.ne	971b18 <cm_setup_context+0xe4>  // b.any
  971b14:	b2660000 	orr	x0, x0, #0x4000000
  971b18:	f9008260 	str	x0, [x19, #256]
  971b1c:	b0000093 	adrp	x19, 982000 <imx_gicv3_ctx+0x1e90>
  971b20:	396da260 	ldrb	w0, [x19, #2920]
  971b24:	37000160 	tbnz	w0, #0, 971b50 <cm_setup_context+0x11c>
  971b28:	d0000061 	adrp	x1, 97f000 <psci_ns_context+0x600>
  971b2c:	d2a80202 	mov	x2, #0x40100000            	// #1074790400
  971b30:	91348020 	add	x0, x1, #0xd20
  971b34:	f9069022 	str	x2, [x1, #3360]
  971b38:	d5380401 	mrs	x1, id_aa64pfr0_el1
  971b3c:	f2600c3f 	tst	x1, #0xf00000000
  971b40:	54000040 	b.eq	971b48 <cm_setup_context+0x114>  // b.none
  971b44:	940000ed 	bl	971ef8 <sve_disable_per_world>
  971b48:	52800020 	mov	w0, #0x1                   	// #1
  971b4c:	392da260 	strb	w0, [x19, #2920]
  971b50:	a94153f3 	ldp	x19, x20, [sp, #16]
  971b54:	a9425bf5 	ldp	x21, x22, [sp, #32]
  971b58:	a8c37bfd 	ldp	x29, x30, [sp], #48
  971b5c:	d65f03c0 	ret
  971b60:	f9408275 	ldr	x21, [x19, #256]
  971b64:	97fffa19 	bl	9703c8 <get_scr_el3_from_routing_model>
  971b68:	b9400682 	ldr	w2, [x20, #4]
  971b6c:	d2810703 	mov	x3, #0x838                 	// #2104
  971b70:	b9401281 	ldr	w1, [x20, #16]
  971b74:	aa0002b5 	orr	x21, x21, x0
  971b78:	d2800020 	mov	x0, #0x1                   	// #1
  971b7c:	f2a018a3 	movk	x3, #0xc5, lsl #16
  971b80:	f2a08060 	movk	x0, #0x403, lsl #16
  971b84:	d3689c42 	lsl	x2, x2, #24
  971b88:	aa0002b5 	orr	x21, x21, x0
  971b8c:	92670042 	and	x2, x2, #0x2000000
  971b90:	d2810000 	mov	x0, #0x800                 	// #2048
  971b94:	f27c003f 	tst	x1, #0x10
  971b98:	f2a61a00 	movk	x0, #0x30d0, lsl #16
  971b9c:	aa000040 	orr	x0, x2, x0
  971ba0:	aa030042 	orr	x2, x2, x3
  971ba4:	f9008275 	str	x21, [x19, #256]
  971ba8:	9a801042 	csel	x2, x2, x0, ne	// ne = any
  971bac:	f900b262 	str	x2, [x19, #352]
  971bb0:	d5381020 	mrs	x0, actlr_el1
  971bb4:	f900da60 	str	x0, [x19, #432]
  971bb8:	34000076 	cbz	w22, 971bc4 <cm_setup_context+0x190>
  971bbc:	aa1303e0 	mov	x0, x19
  971bc0:	940000a0 	bl	971e40 <mpam_enable>
  971bc4:	a9425bf5 	ldp	x21, x22, [sp, #32]
  971bc8:	aa1303e0 	mov	x0, x19
  971bcc:	a94153f3 	ldp	x19, x20, [sp, #16]
  971bd0:	a8c37bfd 	ldp	x29, x30, [sp], #48
  971bd4:	140000a0 	b	971e54 <pmuv3_enable>

0000000000971bd8 <cm_manage_extensions_el3>:
  971bd8:	d5380500 	mrs	x0, id_aa64dfr0_el1
  971bdc:	f2600c1f 	tst	x0, #0xf00000000
  971be0:	540000a0 	b.eq	971bf4 <cm_manage_extensions_el3+0x1c>  // b.none
  971be4:	a9bf7bfd 	stp	x29, x30, [sp, #-16]!
  971be8:	910003fd 	mov	x29, sp
  971bec:	940000b4 	bl	971ebc <spe_init_el3>
  971bf0:	a8c17bfd 	ldp	x29, x30, [sp], #16
  971bf4:	14000099 	b	971e58 <pmuv3_init_el3>

0000000000971bf8 <manage_extensions_nonsecure_per_world>:
  971bf8:	d0000060 	adrp	x0, 97f000 <psci_ns_context+0x600>
  971bfc:	d2a80201 	mov	x1, #0x40100000            	// #1074790400
  971c00:	f9069801 	str	x1, [x0, #3376]
  971c04:	d5380400 	mrs	x0, id_aa64pfr0_el1
  971c08:	f2600c1f 	tst	x0, #0xf00000000
  971c0c:	54000080 	b.eq	971c1c <manage_extensions_nonsecure_per_world+0x24>  // b.none
  971c10:	d0000060 	adrp	x0, 97f000 <psci_ns_context+0x600>
  971c14:	9134c000 	add	x0, x0, #0xd30
  971c18:	140000b0 	b	971ed8 <sve_enable_per_world>
  971c1c:	d65f03c0 	ret

0000000000971c20 <cm_init_context_by_index>:
  971c20:	a9be7bfd 	stp	x29, x30, [sp, #-32]!
  971c24:	910003fd 	mov	x29, sp
  971c28:	f9000bf3 	str	x19, [sp, #16]
  971c2c:	aa0103f3 	mov	x19, x1
  971c30:	52800421 	mov	w1, #0x21                  	// #33
  971c34:	b9400662 	ldr	w2, [x19, #4]
  971c38:	0a010041 	and	w1, w2, w1
  971c3c:	97fff965 	bl	9701d0 <cm_get_context_by_index>
  971c40:	aa1303e1 	mov	x1, x19
  971c44:	f9400bf3 	ldr	x19, [sp, #16]
  971c48:	a8c27bfd 	ldp	x29, x30, [sp], #32
  971c4c:	17ffff7a 	b	971a34 <cm_setup_context>

0000000000971c50 <cm_init_my_context>:
  971c50:	a9be7bfd 	stp	x29, x30, [sp, #-32]!
  971c54:	910003fd 	mov	x29, sp
  971c58:	f9000bf3 	str	x19, [sp, #16]
  971c5c:	aa0003f3 	mov	x19, x0
  971c60:	52800420 	mov	w0, #0x21                  	// #33
  971c64:	b9400661 	ldr	w1, [x19, #4]
  971c68:	0a000020 	and	w0, w1, w0
  971c6c:	97fff94f 	bl	9701a8 <cm_get_context>
  971c70:	aa1303e1 	mov	x1, x19
  971c74:	f9400bf3 	ldr	x19, [sp, #16]
  971c78:	a8c27bfd 	ldp	x29, x30, [sp], #32
  971c7c:	17ffff6e 	b	971a34 <cm_setup_context>

0000000000971c80 <cm_el1_sysregs_context_save>:
  971c80:	a9be7bfd 	stp	x29, x30, [sp, #-32]!
  971c84:	910003fd 	mov	x29, sp
  971c88:	a90153f3 	stp	x19, x20, [sp, #16]
  971c8c:	2a0003f3 	mov	w19, w0
  971c90:	97fff946 	bl	9701a8 <cm_get_context>
  971c94:	91054000 	add	x0, x0, #0x150
  971c98:	9400198c 	bl	9782c8 <el1_sysregs_context_save>
  971c9c:	90000040 	adrp	x0, 979000 <imx_mmap>
  971ca0:	34000233 	cbz	w19, 971ce4 <cm_el1_sysregs_context_save+0x64>
  971ca4:	f9453013 	ldr	x19, [x0, #2656]
  971ca8:	f9456414 	ldr	x20, [x0, #2760]
  971cac:	eb14027f 	cmp	x19, x20
  971cb0:	54000142 	b.cs	971cd8 <cm_el1_sysregs_context_save+0x58>  // b.hs, b.nlast
  971cb4:	f8408661 	ldr	x1, [x19], #8
  971cb8:	d2800000 	mov	x0, #0x0                   	// #0
  971cbc:	d63f0020 	blr	x1
  971cc0:	17fffffb 	b	971cac <cm_el1_sysregs_context_save+0x2c>
  971cc4:	f8408661 	ldr	x1, [x19], #8
  971cc8:	d2800000 	mov	x0, #0x0                   	// #0
  971ccc:	d63f0020 	blr	x1
  971cd0:	eb14027f 	cmp	x19, x20
  971cd4:	54ffff83 	b.cc	971cc4 <cm_el1_sysregs_context_save+0x44>  // b.lo, b.ul, b.last
  971cd8:	a94153f3 	ldp	x19, x20, [sp, #16]
  971cdc:	a8c27bfd 	ldp	x29, x30, [sp], #32
  971ce0:	d65f03c0 	ret
  971ce4:	f9453c13 	ldr	x19, [x0, #2680]
  971ce8:	f9452414 	ldr	x20, [x0, #2632]
  971cec:	17fffff9 	b	971cd0 <cm_el1_sysregs_context_save+0x50>

0000000000971cf0 <cm_el1_sysregs_context_restore>:
  971cf0:	a9be7bfd 	stp	x29, x30, [sp, #-32]!
  971cf4:	910003fd 	mov	x29, sp
  971cf8:	a90153f3 	stp	x19, x20, [sp, #16]
  971cfc:	2a0003f3 	mov	w19, w0
  971d00:	97fff92a 	bl	9701a8 <cm_get_context>
  971d04:	91054000 	add	x0, x0, #0x150
  971d08:	9400199b 	bl	978374 <el1_sysregs_context_restore>
  971d0c:	90000040 	adrp	x0, 979000 <imx_mmap>
  971d10:	34000233 	cbz	w19, 971d54 <cm_el1_sysregs_context_restore+0x64>
  971d14:	f9457413 	ldr	x19, [x0, #2792]
  971d18:	f9454414 	ldr	x20, [x0, #2696]
  971d1c:	eb14027f 	cmp	x19, x20
  971d20:	54000142 	b.cs	971d48 <cm_el1_sysregs_context_restore+0x58>  // b.hs, b.nlast
  971d24:	f8408661 	ldr	x1, [x19], #8
  971d28:	d2800000 	mov	x0, #0x0                   	// #0
  971d2c:	d63f0020 	blr	x1
  971d30:	17fffffb 	b	971d1c <cm_el1_sysregs_context_restore+0x2c>
  971d34:	f8408661 	ldr	x1, [x19], #8
  971d38:	d2800000 	mov	x0, #0x0                   	// #0
  971d3c:	d63f0020 	blr	x1
  971d40:	eb14027f 	cmp	x19, x20
  971d44:	54ffff83 	b.cc	971d34 <cm_el1_sysregs_context_restore+0x44>  // b.lo, b.ul, b.last
  971d48:	a94153f3 	ldp	x19, x20, [sp, #16]
  971d4c:	a8c27bfd 	ldp	x29, x30, [sp], #32
  971d50:	d65f03c0 	ret
  971d54:	f9455813 	ldr	x19, [x0, #2736]
  971d58:	f9455014 	ldr	x20, [x0, #2720]
  971d5c:	17fffff9 	b	971d40 <cm_el1_sysregs_context_restore+0x50>

0000000000971d60 <cm_set_elr_el3>:
  971d60:	a9be7bfd 	stp	x29, x30, [sp, #-32]!
  971d64:	910003fd 	mov	x29, sp
  971d68:	f9000bf3 	str	x19, [sp, #16]
  971d6c:	aa0103f3 	mov	x19, x1
  971d70:	97fff90e 	bl	9701a8 <cm_get_context>
  971d74:	f9009013 	str	x19, [x0, #288]
  971d78:	f9400bf3 	ldr	x19, [sp, #16]
  971d7c:	a8c27bfd 	ldp	x29, x30, [sp], #32
  971d80:	d65f03c0 	ret

0000000000971d84 <cm_write_scr_el3_bit>:
  971d84:	a9be7bfd 	stp	x29, x30, [sp, #-32]!
  971d88:	910003fd 	mov	x29, sp
  971d8c:	a90153f3 	stp	x19, x20, [sp, #16]
  971d90:	2a0103f4 	mov	w20, w1
  971d94:	2a0203f3 	mov	w19, w2
  971d98:	97fff904 	bl	9701a8 <cm_get_context>
  971d9c:	f9408001 	ldr	x1, [x0, #256]
  971da0:	d2800022 	mov	x2, #0x1                   	// #1
  971da4:	9ad42042 	lsl	x2, x2, x20
  971da8:	8a220022 	bic	x2, x1, x2
  971dac:	9ad42273 	lsl	x19, x19, x20
  971db0:	aa020273 	orr	x19, x19, x2
  971db4:	f9008013 	str	x19, [x0, #256]
  971db8:	a94153f3 	ldp	x19, x20, [sp, #16]
  971dbc:	a8c27bfd 	ldp	x29, x30, [sp], #32
  971dc0:	d65f03c0 	ret

0000000000971dc4 <cm_set_next_eret_context>:
  971dc4:	a9bf7bfd 	stp	x29, x30, [sp, #-16]!
  971dc8:	910003fd 	mov	x29, sp
  971dcc:	97fff8f7 	bl	9701a8 <cm_get_context>
  971dd0:	d50041bf 	msr	spsel, #0x1
  971dd4:	9100001f 	mov	sp, x0
  971dd8:	d50040bf 	msr	spsel, #0x0
  971ddc:	a8c17bfd 	ldp	x29, x30, [sp], #16
  971de0:	d65f03c0 	ret

0000000000971de4 <cm_prepare_el3_exit>:
  971de4:	a9be7bfd 	stp	x29, x30, [sp, #-32]!
  971de8:	910003fd 	mov	x29, sp
  971dec:	f9000bf3 	str	x19, [sp, #16]
  971df0:	2a0003f3 	mov	w19, w0
  971df4:	97fff8ed 	bl	9701a8 <cm_get_context>
  971df8:	7100067f 	cmp	w19, #0x1
  971dfc:	54000121 	b.ne	971e20 <cm_prepare_el3_exit+0x3c>  // b.any
  971e00:	f9408001 	ldr	x1, [x0, #256]
  971e04:	364000e1 	tbz	w1, #8, 971e20 <cm_prepare_el3_exit+0x3c>
  971e08:	f940b000 	ldr	x0, [x0, #352]
  971e0c:	d2810601 	mov	x1, #0x830                 	// #2096
  971e10:	f2a618a1 	movk	x1, #0x30c5, lsl #16
  971e14:	92670000 	and	x0, x0, #0x2000000
  971e18:	aa010000 	orr	x0, x0, x1
  971e1c:	d51c1000 	msr	sctlr_el2, x0
  971e20:	2a1303e0 	mov	w0, w19
  971e24:	97ffffb3 	bl	971cf0 <cm_el1_sysregs_context_restore>
  971e28:	2a1303e0 	mov	w0, w19
  971e2c:	f9400bf3 	ldr	x19, [sp, #16]
  971e30:	a8c27bfd 	ldp	x29, x30, [sp], #32
  971e34:	17ffffe4 	b	971dc4 <cm_set_next_eret_context>

0000000000971e38 <cm_prepare_el3_exit_ns>:
  971e38:	52800020 	mov	w0, #0x1                   	// #1
  971e3c:	17ffffea 	b	971de4 <cm_prepare_el3_exit>

0000000000971e40 <mpam_enable>:
  971e40:	f9409c01 	ldr	x1, [x0, #312]
  971e44:	9240f421 	and	x1, x1, #0x3fffffffffffffff
  971e48:	b2410021 	orr	x1, x1, #0x8000000000000000
  971e4c:	f9009c01 	str	x1, [x0, #312]
  971e50:	d65f03c0 	ret

0000000000971e54 <pmuv3_enable>:
  971e54:	d65f03c0 	ret

0000000000971e58 <pmuv3_init_el3>:
  971e58:	d53e1320 	mrs	x0, mdcr_el3
  971e5c:	92800801 	mov	x1, #0xffffffffffffffbf    	// #-65
  971e60:	f2bfefa1 	movk	x1, #0xff7d, lsl #16
  971e64:	f2dffe61 	movk	x1, #0xfff3, lsl #32
  971e68:	8a010000 	and	x0, x0, x1
  971e6c:	d2a01001 	mov	x1, #0x800000              	// #8388608
  971e70:	f2c00081 	movk	x1, #0x4, lsl #32
  971e74:	aa010000 	orr	x0, x0, x1
  971e78:	d51e1320 	msr	mdcr_el3, x0
  971e7c:	d53b9c00 	mrs	x0, pmcr_el0
  971e80:	128006e1 	mov	w1, #0xffffffc8            	// #-56
  971e84:	8a010000 	and	x0, x0, x1
  971e88:	d28004c1 	mov	x1, #0x26                  	// #38
  971e8c:	aa010000 	orr	x0, x0, x1
  971e90:	d51b9c00 	msr	pmcr_el0, x0
  971e94:	d65f03c0 	ret

0000000000971e98 <spe_drain_buffers_hook>:
  971e98:	d5380500 	mrs	x0, id_aa64dfr0_el1
  971e9c:	f2600c1f 	tst	x0, #0xf00000000
  971ea0:	540000a0 	b.eq	971eb4 <spe_drain_buffers_hook+0x1c>  // b.none
  971ea4:	d503223f 	psb	csync
  971ea8:	d503379f 	dsb	nsh
  971eac:	d2800000 	mov	x0, #0x0                   	// #0
  971eb0:	d65f03c0 	ret
  971eb4:	92800000 	mov	x0, #0xffffffffffffffff    	// #-1
  971eb8:	17fffffe 	b	971eb0 <spe_drain_buffers_hook+0x18>

0000000000971ebc <spe_init_el3>:
  971ebc:	d53e1320 	mrs	x0, mdcr_el3
  971ec0:	d2860001 	mov	x1, #0x3000                	// #12288
  971ec4:	9274f800 	and	x0, x0, #0xfffffffffffff7ff
  971ec8:	f2c00201 	movk	x1, #0x10, lsl #32
  971ecc:	aa010000 	orr	x0, x0, x1
  971ed0:	d51e1320 	msr	mdcr_el3, x0
  971ed4:	d65f03c0 	ret

0000000000971ed8 <sve_enable_per_world>:
  971ed8:	f9400001 	ldr	x1, [x0]
  971edc:	1280a002 	mov	w2, #0xfffffaff            	// #-1281
  971ee0:	8a020021 	and	x1, x1, x2
  971ee4:	b2780021 	orr	x1, x1, #0x100
  971ee8:	f9000001 	str	x1, [x0]
  971eec:	d28001e1 	mov	x1, #0xf                   	// #15
  971ef0:	f9000401 	str	x1, [x0, #8]
  971ef4:	d65f03c0 	ret

0000000000971ef8 <sve_disable_per_world>:
  971ef8:	f9400001 	ldr	x1, [x0]
  971efc:	12802002 	mov	w2, #0xfffffeff            	// #-257
  971f00:	8a020021 	and	x1, x1, x2
  971f04:	b2760021 	orr	x1, x1, #0x400
  971f08:	f9000001 	str	x1, [x0]
  971f0c:	d65f03c0 	ret

0000000000971f10 <bakery_lock_get>:
  971f10:	a9be7bfd 	stp	x29, x30, [sp, #-32]!
  971f14:	910003fd 	mov	x29, sp
  971f18:	f9000bf3 	str	x19, [sp, #16]
  971f1c:	aa0003f3 	mov	x19, x0
  971f20:	940019fa 	bl	978708 <plat_my_core_pos>
  971f24:	d37f7c04 	ubfiz	x4, x0, #1, #32
  971f28:	52800021 	mov	w1, #0x1                   	// #1
  971f2c:	52800002 	mov	w2, #0x0                   	// #0
  971f30:	78246a61 	strh	w1, [x19, x4]
  971f34:	52800001 	mov	w1, #0x0                   	// #0
  971f38:	2a0203e3 	mov	w3, w2
  971f3c:	11000442 	add	w2, w2, #0x1
  971f40:	78637a63 	ldrh	w3, [x19, x3, lsl #1]
  971f44:	d3413c63 	ubfx	x3, x3, #1, #15
  971f48:	6b03003f 	cmp	w1, w3
  971f4c:	1a832021 	csel	w1, w1, w3, cs	// cs = hs, nlast
  971f50:	7100105f 	cmp	w2, #0x4
  971f54:	54ffff21 	b.ne	971f38 <bakery_lock_get+0x28>  // b.any
  971f58:	11000421 	add	w1, w1, #0x1
  971f5c:	531f3822 	ubfiz	w2, w1, #1, #15
  971f60:	2a012001 	orr	w1, w0, w1, lsl #8
  971f64:	78246a62 	strh	w2, [x19, x4]
  971f68:	52800002 	mov	w2, #0x0                   	// #0
  971f6c:	6b02001f 	cmp	w0, w2
  971f70:	54000200 	b.eq	971fb0 <bakery_lock_get+0xa0>  // b.none
  971f74:	d37f7c45 	ubfiz	x5, x2, #1, #32
  971f78:	78656a64 	ldrh	w4, [x19, x5]
  971f7c:	8b050266 	add	x6, x19, x5
  971f80:	12003c83 	and	w3, w4, #0xffff
  971f84:	3707ffa4 	tbnz	w4, #0, 971f78 <bakery_lock_get+0x68>
  971f88:	53017c63 	lsr	w3, w3, #1
  971f8c:	34000123 	cbz	w3, 971fb0 <bakery_lock_get+0xa0>
  971f90:	2a032044 	orr	w4, w2, w3, lsl #8
  971f94:	6b04003f 	cmp	w1, w4
  971f98:	540000c9 	b.ls	971fb0 <bakery_lock_get+0xa0>  // b.plast
  971f9c:	d503205f 	wfe
  971fa0:	794000c4 	ldrh	w4, [x6]
  971fa4:	d3413c84 	ubfx	x4, x4, #1, #15
  971fa8:	6b04007f 	cmp	w3, w4
  971fac:	54ffff80 	b.eq	971f9c <bakery_lock_get+0x8c>  // b.none
  971fb0:	11000442 	add	w2, w2, #0x1
  971fb4:	7100105f 	cmp	w2, #0x4
  971fb8:	54fffda1 	b.ne	971f6c <bakery_lock_get+0x5c>  // b.any
  971fbc:	d5033bbf 	dmb	ish
  971fc0:	f9400bf3 	ldr	x19, [sp, #16]
  971fc4:	a8c27bfd 	ldp	x29, x30, [sp], #32
  971fc8:	d65f03c0 	ret

0000000000971fcc <bakery_lock_release>:
  971fcc:	a9be7bfd 	stp	x29, x30, [sp, #-32]!
  971fd0:	910003fd 	mov	x29, sp
  971fd4:	f9000bf3 	str	x19, [sp, #16]
  971fd8:	aa0003f3 	mov	x19, x0
  971fdc:	940019cb 	bl	978708 <plat_my_core_pos>
  971fe0:	d5033bbf 	dmb	ish
  971fe4:	2a0003e1 	mov	w1, w0
  971fe8:	78217a7f 	strh	wzr, [x19, x1, lsl #1]
  971fec:	d5033f9f 	dsb	sy
  971ff0:	d503209f 	sev
  971ff4:	f9400bf3 	ldr	x19, [sp, #16]
  971ff8:	a8c27bfd 	ldp	x29, x30, [sp], #32
  971ffc:	d65f03c0 	ret

0000000000972000 <psci_set_req_local_pwr_state>:
  972000:	51000400 	sub	w0, w0, #0x1
  972004:	12001c42 	and	w2, w2, #0xff
  972008:	7100041f 	cmp	w0, #0x1
  97200c:	54000128 	b.hi	972030 <psci_set_req_local_pwr_state+0x30>  // b.pmore
  972010:	90000083 	adrp	x3, 982000 <imx_gicv3_ctx+0x1e90>
  972014:	b94ad063 	ldr	w3, [x3, #2768]
  972018:	6b01007f 	cmp	w3, w1
  97201c:	540000a9 	b.ls	972030 <psci_set_req_local_pwr_state+0x30>  // b.plast
  972020:	90000083 	adrp	x3, 982000 <imx_gicv3_ctx+0x1e90>
  972024:	912da463 	add	x3, x3, #0xb69
  972028:	8b204860 	add	x0, x3, w0, uxtw #2
  97202c:	38214802 	strb	w2, [x0, w1, uxtw]
  972030:	d65f03c0 	ret

0000000000972034 <psci_validate_power_state>:
  972034:	52bf9fc2 	mov	w2, #0xfcfe0000            	// #-50462720
  972038:	6a02001f 	tst	w0, w2
  97203c:	540000c1 	b.ne	972054 <psci_validate_power_state+0x20>  // b.any
  972040:	b0000062 	adrp	x2, 97f000 <psci_ns_context+0x600>
  972044:	f946a042 	ldr	x2, [x2, #3392]
  972048:	f9403042 	ldr	x2, [x2, #96]
  97204c:	aa0203f0 	mov	x16, x2
  972050:	d61f0200 	br	x16
  972054:	12800020 	mov	w0, #0xfffffffe            	// #-2
  972058:	d65f03c0 	ret

000000000097205c <psci_query_sys_suspend_pwrstate>:
  97205c:	b0000061 	adrp	x1, 97f000 <psci_ns_context+0x600>
  972060:	f946a021 	ldr	x1, [x1, #3392]
  972064:	f9403821 	ldr	x1, [x1, #112]
  972068:	aa0103f0 	mov	x16, x1
  97206c:	d61f0200 	br	x16

0000000000972070 <psci_is_last_on_cpu>:
  972070:	a9bd7bfd 	stp	x29, x30, [sp, #-48]!
  972074:	910003fd 	mov	x29, sp
  972078:	a90153f3 	stp	x19, x20, [sp, #16]
  97207c:	90000094 	adrp	x20, 982000 <imx_gicv3_ctx+0x1e90>
  972080:	912b4294 	add	x20, x20, #0xad0
  972084:	f90013f5 	str	x21, [sp, #32]
  972088:	940019a0 	bl	978708 <plat_my_core_pos>
  97208c:	2a0003f5 	mov	w21, w0
  972090:	52800013 	mov	w19, #0x0                   	// #0
  972094:	b9400280 	ldr	w0, [x20]
  972098:	6b13001f 	cmp	w0, w19
  97209c:	540000c8 	b.hi	9720b4 <psci_is_last_on_cpu+0x44>  // b.pmore
  9720a0:	52800020 	mov	w0, #0x1                   	// #1
  9720a4:	a94153f3 	ldp	x19, x20, [sp, #16]
  9720a8:	f94013f5 	ldr	x21, [sp, #32]
  9720ac:	a8c37bfd 	ldp	x29, x30, [sp], #48
  9720b0:	d65f03c0 	ret
  9720b4:	6b15027f 	cmp	w19, w21
  9720b8:	54000061 	b.ne	9720c4 <psci_is_last_on_cpu+0x54>  // b.any
  9720bc:	11000673 	add	w19, w19, #0x1
  9720c0:	17fffff5 	b	972094 <psci_is_last_on_cpu+0x24>
  9720c4:	2a1303e0 	mov	w0, w19
  9720c8:	94001936 	bl	9785a0 <_cpu_data_by_index>
  9720cc:	b9401800 	ldr	w0, [x0, #24]
  9720d0:	7100041f 	cmp	w0, #0x1
  9720d4:	54ffff40 	b.eq	9720bc <psci_is_last_on_cpu+0x4c>  // b.none
  9720d8:	52800000 	mov	w0, #0x0                   	// #0
  9720dc:	17fffff2 	b	9720a4 <psci_is_last_on_cpu+0x34>

00000000009720e0 <psci_init_req_local_pwr_states>:
  9720e0:	90000080 	adrp	x0, 982000 <imx_gicv3_ctx+0x1e90>
  9720e4:	90000081 	adrp	x1, 982000 <imx_gicv3_ctx+0x1e90>
  9720e8:	912da421 	add	x1, x1, #0xb69
  9720ec:	52800083 	mov	w3, #0x4                   	// #4
  9720f0:	b94ad002 	ldr	w2, [x0, #2768]
  9720f4:	d2800000 	mov	x0, #0x0                   	// #0
  9720f8:	6b00005f 	cmp	w2, w0
  9720fc:	54000089 	b.ls	97210c <psci_init_req_local_pwr_states+0x2c>  // b.plast
  972100:	38206823 	strb	w3, [x1, x0]
  972104:	91000400 	add	x0, x0, #0x1
  972108:	17fffffc 	b	9720f8 <psci_init_req_local_pwr_states+0x18>
  97210c:	90000081 	adrp	x1, 982000 <imx_gicv3_ctx+0x1e90>
  972110:	912db421 	add	x1, x1, #0xb6d
  972114:	d2800000 	mov	x0, #0x0                   	// #0
  972118:	52800083 	mov	w3, #0x4                   	// #4
  97211c:	6b00005f 	cmp	w2, w0
  972120:	54000089 	b.ls	972130 <psci_init_req_local_pwr_states+0x50>  // b.plast
  972124:	38206823 	strb	w3, [x1, x0]
  972128:	91000400 	add	x0, x0, #0x1
  97212c:	17fffffc 	b	97211c <psci_init_req_local_pwr_states+0x3c>
  972130:	d65f03c0 	ret

0000000000972134 <psci_get_target_local_pwr_states>:
  972134:	a9be7bfd 	stp	x29, x30, [sp, #-32]!
  972138:	910003fd 	mov	x29, sp
  97213c:	a90153f3 	stp	x19, x20, [sp, #16]
  972140:	2a0003f4 	mov	w20, w0
  972144:	aa0103f3 	mov	x19, x1
  972148:	d53ed040 	mrs	x0, tpidr_el3
  97214c:	39408000 	ldrb	w0, [x0, #32]
  972150:	39000020 	strb	w0, [x1]
  972154:	9400196d 	bl	978708 <plat_my_core_pos>
  972158:	b0000061 	adrp	x1, 97f000 <psci_ns_context+0x600>
  97215c:	91352021 	add	x1, x1, #0xd48
  972160:	8b205020 	add	x0, x1, w0, uxtw #4
  972164:	52800021 	mov	w1, #0x1                   	// #1
  972168:	b9400802 	ldr	w2, [x0, #8]
  97216c:	b00000c0 	adrp	x0, 98b000 <psci_locks>
  972170:	9100a000 	add	x0, x0, #0x28
  972174:	6b14003f 	cmp	w1, w20
  972178:	2a0103e3 	mov	w3, w1
  97217c:	540000e9 	b.ls	972198 <psci_get_target_local_pwr_states+0x64>  // b.plast
  972180:	8b030273 	add	x19, x19, x3
  972184:	7100083f 	cmp	w1, #0x2
  972188:	54000149 	b.ls	9721b0 <psci_get_target_local_pwr_states+0x7c>  // b.plast
  97218c:	a94153f3 	ldp	x19, x20, [sp, #16]
  972190:	a8c27bfd 	ldp	x29, x30, [sp], #32
  972194:	d65f03c0 	ret
  972198:	8b225002 	add	x2, x0, w2, uxtw #4
  97219c:	11000421 	add	w1, w1, #0x1
  9721a0:	39403044 	ldrb	w4, [x2, #12]
  9721a4:	38236a64 	strb	w4, [x19, x3]
  9721a8:	b9400842 	ldr	w2, [x2, #8]
  9721ac:	17fffff2 	b	972174 <psci_get_target_local_pwr_states+0x40>
  9721b0:	11000421 	add	w1, w1, #0x1
  9721b4:	3800167f 	strb	wzr, [x19], #1
  9721b8:	17fffff3 	b	972184 <psci_get_target_local_pwr_states+0x50>

00000000009721bc <psci_set_target_local_pwr_states>:
  9721bc:	a9be7bfd 	stp	x29, x30, [sp, #-32]!
  9721c0:	910003fd 	mov	x29, sp
  9721c4:	a90153f3 	stp	x19, x20, [sp, #16]
  9721c8:	aa0103f3 	mov	x19, x1
  9721cc:	2a0003f4 	mov	w20, w0
  9721d0:	39400021 	ldrb	w1, [x1]
  9721d4:	d53ed040 	mrs	x0, tpidr_el3
  9721d8:	39008001 	strb	w1, [x0, #32]
  9721dc:	d53ed040 	mrs	x0, tpidr_el3
  9721e0:	91008000 	add	x0, x0, #0x20
  9721e4:	d2800021 	mov	x1, #0x1                   	// #1
  9721e8:	940016c1 	bl	977cec <flush_dcache_range>
  9721ec:	94001947 	bl	978708 <plat_my_core_pos>
  9721f0:	b0000061 	adrp	x1, 97f000 <psci_ns_context+0x600>
  9721f4:	91352021 	add	x1, x1, #0xd48
  9721f8:	8b205020 	add	x0, x1, w0, uxtw #4
  9721fc:	52800023 	mov	w3, #0x1                   	// #1
  972200:	b9400802 	ldr	w2, [x0, #8]
  972204:	b00000c0 	adrp	x0, 98b000 <psci_locks>
  972208:	9100a000 	add	x0, x0, #0x28
  97220c:	6b14007f 	cmp	w3, w20
  972210:	54000089 	b.ls	972220 <psci_set_target_local_pwr_states+0x64>  // b.plast
  972214:	a94153f3 	ldp	x19, x20, [sp, #16]
  972218:	a8c27bfd 	ldp	x29, x30, [sp], #32
  97221c:	d65f03c0 	ret
  972220:	8b225002 	add	x2, x0, w2, uxtw #4
  972224:	38634a61 	ldrb	w1, [x19, w3, uxtw]
  972228:	11000463 	add	w3, w3, #0x1
  97222c:	39003041 	strb	w1, [x2, #12]
  972230:	b9400842 	ldr	w2, [x2, #8]
  972234:	17fffff6 	b	97220c <psci_set_target_local_pwr_states+0x50>

0000000000972238 <psci_get_parent_pwr_domain_nodes>:
  972238:	b0000063 	adrp	x3, 97f000 <psci_ns_context+0x600>
  97223c:	91352063 	add	x3, x3, #0xd48
  972240:	8b205060 	add	x0, x3, w0, uxtw #4
  972244:	b00000c4 	adrp	x4, 98b000 <psci_locks>
  972248:	d1001042 	sub	x2, x2, #0x4
  97224c:	9100a084 	add	x4, x4, #0x28
  972250:	d2800003 	mov	x3, #0x0                   	// #0
  972254:	b9400800 	ldr	w0, [x0, #8]
  972258:	91000463 	add	x3, x3, #0x1
  97225c:	6b03003f 	cmp	w1, w3
  972260:	54000042 	b.cs	972268 <psci_get_parent_pwr_domain_nodes+0x30>  // b.hs, b.nlast
  972264:	d65f03c0 	ret
  972268:	b8237840 	str	w0, [x2, x3, lsl #2]
  97226c:	8b205080 	add	x0, x4, w0, uxtw #4
  972270:	b9400800 	ldr	w0, [x0, #8]
  972274:	17fffff9 	b	972258 <psci_get_parent_pwr_domain_nodes+0x20>

0000000000972278 <psci_set_pwr_domains_to_run>:
  972278:	a9be7bfd 	stp	x29, x30, [sp, #-32]!
  97227c:	910003fd 	mov	x29, sp
  972280:	f9000bf3 	str	x19, [sp, #16]
  972284:	2a0003f3 	mov	w19, w0
  972288:	94001920 	bl	978708 <plat_my_core_pos>
  97228c:	2a0003e1 	mov	w1, w0
  972290:	b0000062 	adrp	x2, 97f000 <psci_ns_context+0x600>
  972294:	91352042 	add	x2, x2, #0xd48
  972298:	8b215042 	add	x2, x2, w1, uxtw #4
  97229c:	b00000c6 	adrp	x6, 98b000 <psci_locks>
  9722a0:	9100a0c6 	add	x6, x6, #0x28
  9722a4:	52800025 	mov	w5, #0x1                   	// #1
  9722a8:	b9400844 	ldr	w4, [x2, #8]
  9722ac:	6b1300bf 	cmp	w5, w19
  9722b0:	54000169 	b.ls	9722dc <psci_set_pwr_domains_to_run+0x64>  // b.plast
  9722b4:	d53ed040 	mrs	x0, tpidr_el3
  9722b8:	b900181f 	str	wzr, [x0, #24]
  9722bc:	d53ed040 	mrs	x0, tpidr_el3
  9722c0:	3900801f 	strb	wzr, [x0, #32]
  9722c4:	d53ed040 	mrs	x0, tpidr_el3
  9722c8:	f9400bf3 	ldr	x19, [sp, #16]
  9722cc:	91006000 	add	x0, x0, #0x18
  9722d0:	a8c27bfd 	ldp	x29, x30, [sp], #32
  9722d4:	d2800181 	mov	x1, #0xc                   	// #12
  9722d8:	14001685 	b	977cec <flush_dcache_range>
  9722dc:	8b2450c4 	add	x4, x6, w4, uxtw #4
  9722e0:	2a0503e0 	mov	w0, w5
  9722e4:	52800002 	mov	w2, #0x0                   	// #0
  9722e8:	110004a5 	add	w5, w5, #0x1
  9722ec:	3900309f 	strb	wzr, [x4, #12]
  9722f0:	97ffff44 	bl	972000 <psci_set_req_local_pwr_state>
  9722f4:	b9400884 	ldr	w4, [x4, #8]
  9722f8:	17ffffed 	b	9722ac <psci_set_pwr_domains_to_run+0x34>

00000000009722fc <psci_do_state_coordination>:
  9722fc:	a9ba7bfd 	stp	x29, x30, [sp, #-96]!
  972300:	910003fd 	mov	x29, sp
  972304:	a90153f3 	stp	x19, x20, [sp, #16]
  972308:	aa0103f4 	mov	x20, x1
  97230c:	a9025bf5 	stp	x21, x22, [sp, #32]
  972310:	2a0003f6 	mov	w22, w0
  972314:	a90363f7 	stp	x23, x24, [sp, #48]
  972318:	b00000d8 	adrp	x24, 98b000 <psci_locks>
  97231c:	90000097 	adrp	x23, 982000 <imx_gicv3_ctx+0x1e90>
  972320:	a9046bf9 	stp	x25, x26, [sp, #64]
  972324:	912b42f7 	add	x23, x23, #0xad0
  972328:	9100a31a 	add	x26, x24, #0x28
  97232c:	f9002bfb 	str	x27, [sp, #80]
  972330:	940018f6 	bl	978708 <plat_my_core_pos>
  972334:	2a0003f5 	mov	w21, w0
  972338:	b0000060 	adrp	x0, 97f000 <psci_ns_context+0x600>
  97233c:	91352000 	add	x0, x0, #0xd48
  972340:	52800024 	mov	w4, #0x1                   	// #1
  972344:	8b355000 	add	x0, x0, w21, uxtw #4
  972348:	b9400805 	ldr	w5, [x0, #8]
  97234c:	6b16009f 	cmp	w4, w22
  972350:	11000493 	add	w19, w4, #0x1
  972354:	54000149 	b.ls	97237c <psci_do_state_coordination+0x80>  // b.plast
  972358:	6b16027f 	cmp	w19, w22
  97235c:	54000509 	b.ls	9723fc <psci_do_state_coordination+0x100>  // b.plast
  972360:	a94153f3 	ldp	x19, x20, [sp, #16]
  972364:	a9425bf5 	ldp	x21, x22, [sp, #32]
  972368:	a94363f7 	ldp	x23, x24, [sp, #48]
  97236c:	a9446bf9 	ldp	x25, x26, [sp, #64]
  972370:	f9402bfb 	ldr	x27, [sp, #80]
  972374:	a8c67bfd 	ldp	x29, x30, [sp], #96
  972378:	d65f03c0 	ret
  97237c:	2a0403f9 	mov	w25, w4
  972380:	2a0403e0 	mov	w0, w4
  972384:	2a1503e1 	mov	w1, w21
  972388:	2a0503fb 	mov	w27, w5
  97238c:	d37c7ca5 	ubfiz	x5, x5, #4, #32
  972390:	38796a82 	ldrb	w2, [x20, x25]
  972394:	97ffff1b 	bl	972000 <psci_set_req_local_pwr_state>
  972398:	9100a300 	add	x0, x24, #0x28
  97239c:	51000482 	sub	w2, w4, #0x1
  9723a0:	b8656803 	ldr	w3, [x0, x5]
  9723a4:	7100045f 	cmp	w2, #0x1
  9723a8:	54000268 	b.hi	9723f4 <psci_do_state_coordination+0xf8>  // b.pmore
  9723ac:	2a0303e0 	mov	w0, w3
  9723b0:	b94002e5 	ldr	w5, [x23]
  9723b4:	8b224801 	add	x1, x0, w2, uxtw #2
  9723b8:	90000080 	adrp	x0, 982000 <imx_gicv3_ctx+0x1e90>
  9723bc:	912da400 	add	x0, x0, #0xb69
  9723c0:	6b05007f 	cmp	w3, w5
  9723c4:	8b000021 	add	x1, x1, x0
  9723c8:	9a9f3021 	csel	x1, x1, xzr, cc	// cc = lo, ul, last
  9723cc:	8b1b135b 	add	x27, x26, x27, lsl #4
  9723d0:	2a0403e0 	mov	w0, w4
  9723d4:	b9400762 	ldr	w2, [x27, #4]
  9723d8:	94000773 	bl	9741a4 <plat_get_target_pwr_state>
  9723dc:	38396a80 	strb	w0, [x20, x25]
  9723e0:	72001c1f 	tst	w0, #0xff
  9723e4:	54fffba0 	b.eq	972358 <psci_do_state_coordination+0x5c>  // b.none
  9723e8:	b9400b65 	ldr	w5, [x27, #8]
  9723ec:	2a1303e4 	mov	w4, w19
  9723f0:	17ffffd7 	b	97234c <psci_do_state_coordination+0x50>
  9723f4:	d2800001 	mov	x1, #0x0                   	// #0
  9723f8:	17fffff5 	b	9723cc <psci_do_state_coordination+0xd0>
  9723fc:	2a1303e4 	mov	w4, w19
  972400:	2a1303e0 	mov	w0, w19
  972404:	2a1503e1 	mov	w1, w21
  972408:	11000673 	add	w19, w19, #0x1
  97240c:	38646a82 	ldrb	w2, [x20, x4]
  972410:	97fffefc 	bl	972000 <psci_set_req_local_pwr_state>
  972414:	38246a9f 	strb	wzr, [x20, x4]
  972418:	17ffffd0 	b	972358 <psci_do_state_coordination+0x5c>

000000000097241c <psci_find_max_off_lvl>:
  97241c:	39400801 	ldrb	w1, [x0, #2]
  972420:	51000c21 	sub	w1, w1, #0x3
  972424:	7100043f 	cmp	w1, #0x1
  972428:	54000189 	b.ls	972458 <psci_find_max_off_lvl+0x3c>  // b.plast
  97242c:	39400401 	ldrb	w1, [x0, #1]
  972430:	51000c21 	sub	w1, w1, #0x3
  972434:	7100043f 	cmp	w1, #0x1
  972438:	54000149 	b.ls	972460 <psci_find_max_off_lvl+0x44>  // b.plast
  97243c:	39400001 	ldrb	w1, [x0]
  972440:	52800060 	mov	w0, #0x3                   	// #3
  972444:	51000c21 	sub	w1, w1, #0x3
  972448:	7100043f 	cmp	w1, #0x1
  97244c:	54000048 	b.hi	972454 <psci_find_max_off_lvl+0x38>  // b.pmore
  972450:	52800000 	mov	w0, #0x0                   	// #0
  972454:	d65f03c0 	ret
  972458:	52800040 	mov	w0, #0x2                   	// #2
  97245c:	17fffffe 	b	972454 <psci_find_max_off_lvl+0x38>
  972460:	52800020 	mov	w0, #0x1                   	// #1
  972464:	17fffffc 	b	972454 <psci_find_max_off_lvl+0x38>

0000000000972468 <psci_find_target_suspend_lvl>:
  972468:	39400801 	ldrb	w1, [x0, #2]
  97246c:	35000101 	cbnz	w1, 97248c <psci_find_target_suspend_lvl+0x24>
  972470:	39400401 	ldrb	w1, [x0, #1]
  972474:	35000101 	cbnz	w1, 972494 <psci_find_target_suspend_lvl+0x2c>
  972478:	39400001 	ldrb	w1, [x0]
  97247c:	52800060 	mov	w0, #0x3                   	// #3
  972480:	34000041 	cbz	w1, 972488 <psci_find_target_suspend_lvl+0x20>
  972484:	52800000 	mov	w0, #0x0                   	// #0
  972488:	d65f03c0 	ret
  97248c:	52800040 	mov	w0, #0x2                   	// #2
  972490:	17fffffe 	b	972488 <psci_find_target_suspend_lvl+0x20>
  972494:	52800020 	mov	w0, #0x1                   	// #1
  972498:	17fffffc 	b	972488 <psci_find_target_suspend_lvl+0x20>

000000000097249c <psci_acquire_pwr_domain_locks>:
  97249c:	a9bc7bfd 	stp	x29, x30, [sp, #-64]!
  9724a0:	910003fd 	mov	x29, sp
  9724a4:	a90153f3 	stp	x19, x20, [sp, #16]
  9724a8:	2a0003f4 	mov	w20, w0
  9724ac:	52800033 	mov	w19, #0x1                   	// #1
  9724b0:	a9025bf5 	stp	x21, x22, [sp, #32]
  9724b4:	b00000d6 	adrp	x22, 98b000 <psci_locks>
  9724b8:	aa0103f5 	mov	x21, x1
  9724bc:	9100a2d6 	add	x22, x22, #0x28
  9724c0:	f9001bf7 	str	x23, [sp, #48]
  9724c4:	b00000d7 	adrp	x23, 98b000 <psci_locks>
  9724c8:	910002f7 	add	x23, x23, #0x0
  9724cc:	6b14027f 	cmp	w19, w20
  9724d0:	540000c9 	b.ls	9724e8 <psci_acquire_pwr_domain_locks+0x4c>  // b.plast
  9724d4:	a94153f3 	ldp	x19, x20, [sp, #16]
  9724d8:	a9425bf5 	ldp	x21, x22, [sp, #32]
  9724dc:	f9401bf7 	ldr	x23, [sp, #48]
  9724e0:	a8c47bfd 	ldp	x29, x30, [sp], #64
  9724e4:	d65f03c0 	ret
  9724e8:	51000660 	sub	w0, w19, #0x1
  9724ec:	11000673 	add	w19, w19, #0x1
  9724f0:	b8607aa0 	ldr	w0, [x21, x0, lsl #2]
  9724f4:	8b0012c0 	add	x0, x22, x0, lsl #4
  9724f8:	79401c00 	ldrh	w0, [x0, #14]
  9724fc:	8b000ee0 	add	x0, x23, x0, lsl #3
  972500:	97fffe84 	bl	971f10 <bakery_lock_get>
  972504:	17fffff2 	b	9724cc <psci_acquire_pwr_domain_locks+0x30>

0000000000972508 <psci_release_pwr_domain_locks>:
  972508:	a9bd7bfd 	stp	x29, x30, [sp, #-48]!
  97250c:	910003fd 	mov	x29, sp
  972510:	a90153f3 	stp	x19, x20, [sp, #16]
  972514:	2a0003f3 	mov	w19, w0
  972518:	aa0103f4 	mov	x20, x1
  97251c:	a9025bf5 	stp	x21, x22, [sp, #32]
  972520:	b00000d5 	adrp	x21, 98b000 <psci_locks>
  972524:	b00000d6 	adrp	x22, 98b000 <psci_locks>
  972528:	9100a2b5 	add	x21, x21, #0x28
  97252c:	910002d6 	add	x22, x22, #0x0
  972530:	350000b3 	cbnz	w19, 972544 <psci_release_pwr_domain_locks+0x3c>
  972534:	a94153f3 	ldp	x19, x20, [sp, #16]
  972538:	a9425bf5 	ldp	x21, x22, [sp, #32]
  97253c:	a8c37bfd 	ldp	x29, x30, [sp], #48
  972540:	d65f03c0 	ret
  972544:	51000673 	sub	w19, w19, #0x1
  972548:	b8735a80 	ldr	w0, [x20, w19, uxtw #2]
  97254c:	8b0012a0 	add	x0, x21, x0, lsl #4
  972550:	79401c00 	ldrh	w0, [x0, #14]
  972554:	8b000ec0 	add	x0, x22, x0, lsl #3
  972558:	97fffe9d 	bl	971fcc <bakery_lock_release>
  97255c:	17fffff5 	b	972530 <psci_release_pwr_domain_locks+0x28>

0000000000972560 <psci_validate_entry_point>:
  972560:	a9bb7bfd 	stp	x29, x30, [sp, #-80]!
  972564:	910003fd 	mov	x29, sp
  972568:	a90153f3 	stp	x19, x20, [sp, #16]
  97256c:	aa0003f4 	mov	x20, x0
  972570:	b0000060 	adrp	x0, 97f000 <psci_ns_context+0x600>
  972574:	aa0103f3 	mov	x19, x1
  972578:	a9025bf5 	stp	x21, x22, [sp, #32]
  97257c:	f946a000 	ldr	x0, [x0, #3392]
  972580:	a90363f7 	stp	x23, x24, [sp, #48]
  972584:	aa0203f8 	mov	x24, x2
  972588:	f9403401 	ldr	x1, [x0, #104]
  97258c:	f90023f9 	str	x25, [sp, #64]
  972590:	b5000361 	cbnz	x1, 9725fc <psci_validate_entry_point+0x9c>
  972594:	d53e1117 	mrs	x23, scr_el3
  972598:	d5381000 	mrs	x0, sctlr_el1
  97259c:	927802f9 	and	x25, x23, #0x100
  9725a0:	37400437 	tbnz	w23, #8, 972624 <psci_validate_entry_point+0xc4>
  9725a4:	f2670000 	ands	x0, x0, #0x2000000
  9725a8:	52802021 	mov	w1, #0x101                 	// #257
  9725ac:	72a00b01 	movk	w1, #0x58, lsl #16
  9725b0:	d2800075 	mov	x21, #0x3                   	// #3
  9725b4:	9a9f16a0 	csinc	x0, x21, xzr, ne	// ne = any
  9725b8:	29000281 	stp	w1, w0, [x20]
  9725bc:	f9000693 	str	x19, [x20, #8]
  9725c0:	1a9f07f6 	cset	w22, ne	// ne = any
  9725c4:	91006280 	add	x0, x20, #0x18
  9725c8:	d2800801 	mov	x1, #0x40                  	// #64
  9725cc:	9400163e 	bl	977ec4 <zeromem>
  9725d0:	f9000e98 	str	x24, [x20, #24]
  9725d4:	365002d7 	tbz	w23, #10, 97262c <psci_validate_entry_point+0xcc>
  9725d8:	37000193 	tbnz	w19, #0, 972608 <psci_validate_entry_point+0xa8>
  9725dc:	f100033f 	cmp	x25, #0x0
  9725e0:	52807821 	mov	w1, #0x3c1                 	// #961
  9725e4:	1a9f07e0 	cset	w0, ne	// ne = any
  9725e8:	11000400 	add	w0, w0, #0x1
  9725ec:	2a000820 	orr	w0, w1, w0, lsl #2
  9725f0:	b9001280 	str	w0, [x20, #16]
  9725f4:	52800000 	mov	w0, #0x0                   	// #0
  9725f8:	14000005 	b	97260c <psci_validate_entry_point+0xac>
  9725fc:	aa1303e0 	mov	x0, x19
  972600:	d63f0020 	blr	x1
  972604:	34fffc80 	cbz	w0, 972594 <psci_validate_entry_point+0x34>
  972608:	12800100 	mov	w0, #0xfffffff7            	// #-9
  97260c:	a94153f3 	ldp	x19, x20, [sp, #16]
  972610:	a9425bf5 	ldp	x21, x22, [sp, #32]
  972614:	a94363f7 	ldp	x23, x24, [sp, #48]
  972618:	f94023f9 	ldr	x25, [sp, #64]
  97261c:	a8c57bfd 	ldp	x29, x30, [sp], #80
  972620:	d65f03c0 	ret
  972624:	d53c1000 	mrs	x0, sctlr_el2
  972628:	17ffffdf 	b	9725a4 <psci_validate_entry_point+0x44>
  97262c:	52800140 	mov	w0, #0xa                   	// #10
  972630:	f100033f 	cmp	x25, #0x0
  972634:	1a8002b5 	csel	w21, w21, w0, eq	// eq = none
  972638:	531b0273 	ubfiz	w19, w19, #5, #1
  97263c:	52803a00 	mov	w0, #0x1d0                 	// #464
  972640:	2a150273 	orr	w19, w19, w21
  972644:	2a162416 	orr	w22, w0, w22, lsl #9
  972648:	2a160273 	orr	w19, w19, w22
  97264c:	b9001293 	str	w19, [x20, #16]
  972650:	17ffffe9 	b	9725f4 <psci_validate_entry_point+0x94>

0000000000972654 <psci_warmboot_entrypoint>:
  972654:	a9bc7bfd 	stp	x29, x30, [sp, #-64]!
  972658:	910003fd 	mov	x29, sp
  97265c:	a90153f3 	stp	x19, x20, [sp, #16]
  972660:	a9025bf5 	stp	x21, x22, [sp, #32]
  972664:	94001829 	bl	978708 <plat_my_core_pos>
  972668:	2a0003f4 	mov	w20, w0
  97266c:	790063ff 	strh	wzr, [sp, #48]
  972670:	3900cbff 	strb	wzr, [sp, #50]
  972674:	f9001fff 	str	xzr, [sp, #56]
  972678:	97fffd58 	bl	971bd8 <cm_manage_extensions_el3>
  97267c:	d53ed040 	mrs	x0, tpidr_el3
  972680:	b9401800 	ldr	w0, [x0, #24]
  972684:	7100041f 	cmp	w0, #0x1
  972688:	540000c1 	b.ne	9726a0 <psci_warmboot_entrypoint+0x4c>  // b.any
  97268c:	f0000020 	adrp	x0, 979000 <imx_mmap>
  972690:	911e7000 	add	x0, x0, #0x79c
  972694:	97fff7f4 	bl	970664 <tf_log>
  972698:	97fffc8a 	bl	9718c0 <console_flush>
  97269c:	94001588 	bl	977cbc <el3_panic>
  9726a0:	d53ed040 	mrs	x0, tpidr_el3
  9726a4:	b9401c13 	ldr	w19, [x0, #28]
  9726a8:	9100e3f5 	add	x21, sp, #0x38
  9726ac:	aa1503e2 	mov	x2, x21
  9726b0:	52800040 	mov	w0, #0x2                   	// #2
  9726b4:	71000e7f 	cmp	w19, #0x3
  9726b8:	9100c3f6 	add	x22, sp, #0x30
  9726bc:	1a801273 	csel	w19, w19, w0, ne	// ne = any
  9726c0:	2a1403e0 	mov	w0, w20
  9726c4:	2a1303e1 	mov	w1, w19
  9726c8:	97fffedc 	bl	972238 <psci_get_parent_pwr_domain_nodes>
  9726cc:	aa1503e1 	mov	x1, x21
  9726d0:	2a1303e0 	mov	w0, w19
  9726d4:	97ffff72 	bl	97249c <psci_acquire_pwr_domain_locks>
  9726d8:	aa1603e1 	mov	x1, x22
  9726dc:	2a1303e0 	mov	w0, w19
  9726e0:	97fffe95 	bl	972134 <psci_get_target_local_pwr_states>
  9726e4:	d53ed040 	mrs	x0, tpidr_el3
  9726e8:	b9401800 	ldr	w0, [x0, #24]
  9726ec:	aa1603e1 	mov	x1, x22
  9726f0:	7100081f 	cmp	w0, #0x2
  9726f4:	2a1403e0 	mov	w0, w20
  9726f8:	54000181 	b.ne	972728 <psci_warmboot_entrypoint+0xd4>  // b.any
  9726fc:	94000253 	bl	973048 <psci_cpu_on_finish>
  972700:	97fffdce 	bl	971e38 <cm_prepare_el3_exit_ns>
  972704:	2a1303e0 	mov	w0, w19
  972708:	97fffedc 	bl	972278 <psci_set_pwr_domains_to_run>
  97270c:	aa1503e1 	mov	x1, x21
  972710:	2a1303e0 	mov	w0, w19
  972714:	97ffff7d 	bl	972508 <psci_release_pwr_domain_locks>
  972718:	a94153f3 	ldp	x19, x20, [sp, #16]
  97271c:	a9425bf5 	ldp	x21, x22, [sp, #32]
  972720:	a8c47bfd 	ldp	x29, x30, [sp], #64
  972724:	d65f03c0 	ret
  972728:	940003ce 	bl	973660 <psci_cpu_suspend_finish>
  97272c:	17fffff5 	b	972700 <psci_warmboot_entrypoint+0xac>

0000000000972730 <psci_register_spd_pm_hook>:
  972730:	b0000061 	adrp	x1, 97f000 <psci_ns_context+0x600>
  972734:	f906c420 	str	x0, [x1, #3464]
  972738:	f9401401 	ldr	x1, [x0, #40]
  97273c:	b40000c1 	cbz	x1, 972754 <psci_register_spd_pm_hook+0x24>
  972740:	f0000021 	adrp	x1, 979000 <imx_mmap>
  972744:	f9454821 	ldr	x1, [x1, #2704]
  972748:	b9400022 	ldr	w2, [x1]
  97274c:	321b0042 	orr	w2, w2, #0x20
  972750:	b9000022 	str	w2, [x1]
  972754:	f9401800 	ldr	x0, [x0, #48]
  972758:	b40000c0 	cbz	x0, 972770 <psci_register_spd_pm_hook+0x40>
  97275c:	f0000021 	adrp	x1, 979000 <imx_mmap>
  972760:	f9454821 	ldr	x1, [x1, #2704]
  972764:	b9400020 	ldr	w0, [x1]
  972768:	321a0400 	orr	w0, w0, #0xc0
  97276c:	b9000020 	str	w0, [x1]
  972770:	d65f03c0 	ret

0000000000972774 <psci_spd_migrate_info>:
  972774:	b0000061 	adrp	x1, 97f000 <psci_ns_context+0x600>
  972778:	f946c421 	ldr	x1, [x1, #3464]
  97277c:	b40000a1 	cbz	x1, 972790 <psci_spd_migrate_info+0x1c>
  972780:	f9401821 	ldr	x1, [x1, #48]
  972784:	b4000061 	cbz	x1, 972790 <psci_spd_migrate_info+0x1c>
  972788:	aa0103f0 	mov	x16, x1
  97278c:	d61f0200 	br	x16
  972790:	12800000 	mov	w0, #0xffffffff            	// #-1
  972794:	d65f03c0 	ret

0000000000972798 <psci_print_power_domain_map>:
  972798:	d65f03c0 	ret

000000000097279c <psci_pwrdown_cpu>:
  97279c:	14001791 	b	9785e0 <psci_do_pwrdown_cache_maintenance>

00000000009727a0 <is_valid_mpidr>:
  9727a0:	a9bf7bfd 	stp	x29, x30, [sp, #-16]!
  9727a4:	910003fd 	mov	x29, sp
  9727a8:	9400068c 	bl	9741d8 <plat_core_pos_by_mpidr>
  9727ac:	71000c1f 	cmp	w0, #0x3
  9727b0:	1a9f87e0 	cset	w0, ls	// ls = plast
  9727b4:	a8c17bfd 	ldp	x29, x30, [sp], #16
  9727b8:	d65f03c0 	ret

00000000009727bc <psci_cpu_on>:
  9727bc:	a9b77bfd 	stp	x29, x30, [sp, #-144]!
  9727c0:	910003fd 	mov	x29, sp
  9727c4:	a90153f3 	stp	x19, x20, [sp, #16]
  9727c8:	aa0003f3 	mov	x19, x0
  9727cc:	aa0103f4 	mov	x20, x1
  9727d0:	a9025bf5 	stp	x21, x22, [sp, #32]
  9727d4:	aa0203f5 	mov	x21, x2
  9727d8:	97fffff2 	bl	9727a0 <is_valid_mpidr>
  9727dc:	360001c0 	tbz	w0, #0, 972814 <psci_cpu_on+0x58>
  9727e0:	9100e3f6 	add	x22, sp, #0x38
  9727e4:	aa1503e2 	mov	x2, x21
  9727e8:	aa1403e1 	mov	x1, x20
  9727ec:	aa1603e0 	mov	x0, x22
  9727f0:	97ffff5c 	bl	972560 <psci_validate_entry_point>
  9727f4:	35000080 	cbnz	w0, 972804 <psci_cpu_on+0x48>
  9727f8:	aa1603e1 	mov	x1, x22
  9727fc:	aa1303e0 	mov	x0, x19
  972800:	940001b9 	bl	972ee4 <psci_cpu_on_start>
  972804:	a94153f3 	ldp	x19, x20, [sp, #16]
  972808:	a9425bf5 	ldp	x21, x22, [sp, #32]
  97280c:	a8c97bfd 	ldp	x29, x30, [sp], #144
  972810:	d65f03c0 	ret
  972814:	12800020 	mov	w0, #0xfffffffe            	// #-2
  972818:	17fffffb 	b	972804 <psci_cpu_on+0x48>

000000000097281c <psci_cpu_suspend>:
  97281c:	a9b57bfd 	stp	x29, x30, [sp, #-176]!
  972820:	910003fd 	mov	x29, sp
  972824:	a90363f7 	stp	x23, x24, [sp, #48]
  972828:	910143f8 	add	x24, sp, #0x50
  97282c:	aa0203f7 	mov	x23, x2
  972830:	a90153f3 	stp	x19, x20, [sp, #16]
  972834:	2a0003f4 	mov	w20, w0
  972838:	a9025bf5 	stp	x21, x22, [sp, #32]
  97283c:	aa0103f6 	mov	x22, x1
  972840:	aa1803e1 	mov	x1, x24
  972844:	f90023f9 	str	x25, [sp, #64]
  972848:	7900a3ff 	strh	wzr, [sp, #80]
  97284c:	39014bff 	strb	wzr, [sp, #82]
  972850:	97fffdf9 	bl	972034 <psci_validate_power_state>
  972854:	2a0003f3 	mov	w19, w0
  972858:	35000320 	cbnz	w0, 9728bc <psci_cpu_suspend+0xa0>
  97285c:	aa1803e0 	mov	x0, x24
  972860:	d3504294 	ubfx	x20, x20, #16, #1
  972864:	97ffff01 	bl	972468 <psci_find_target_suspend_lvl>
  972868:	2a0003f5 	mov	w21, w0
  97286c:	71000c1f 	cmp	w0, #0x3
  972870:	540000c1 	b.ne	972888 <psci_cpu_suspend+0x6c>  // b.any
  972874:	f0000020 	adrp	x0, 979000 <imx_mmap>
  972878:	911ef800 	add	x0, x0, #0x7be
  97287c:	97fff77a 	bl	970664 <tf_log>
  972880:	97fffc10 	bl	9718c0 <console_flush>
  972884:	9400150e 	bl	977cbc <el3_panic>
  972888:	2a000280 	orr	w0, w20, w0
  97288c:	35000260 	cbnz	w0, 9728d8 <psci_cpu_suspend+0xbc>
  972890:	f0000020 	adrp	x0, 979000 <imx_mmap>
  972894:	f9456c00 	ldr	x0, [x0, #2776]
  972898:	f9400000 	ldr	x0, [x0]
  97289c:	f9400001 	ldr	x1, [x0]
  9728a0:	b40003c1 	cbz	x1, 972918 <psci_cpu_suspend+0xfc>
  9728a4:	394143e0 	ldrb	w0, [sp, #80]
  9728a8:	d53ed042 	mrs	x2, tpidr_el3
  9728ac:	39008040 	strb	w0, [x2, #32]
  9728b0:	d63f0020 	blr	x1
  9728b4:	d53ed040 	mrs	x0, tpidr_el3
  9728b8:	3900801f 	strb	wzr, [x0, #32]
  9728bc:	a9425bf5 	ldp	x21, x22, [sp, #32]
  9728c0:	2a1303e0 	mov	w0, w19
  9728c4:	a94153f3 	ldp	x19, x20, [sp, #16]
  9728c8:	a94363f7 	ldp	x23, x24, [sp, #48]
  9728cc:	f94023f9 	ldr	x25, [sp, #64]
  9728d0:	a8cb7bfd 	ldp	x29, x30, [sp], #176
  9728d4:	d65f03c0 	ret
  9728d8:	910163f9 	add	x25, sp, #0x58
  9728dc:	35000114 	cbnz	w20, 9728fc <psci_cpu_suspend+0xe0>
  9728e0:	2a1403e3 	mov	w3, w20
  9728e4:	aa1803e2 	mov	x2, x24
  9728e8:	2a1503e1 	mov	w1, w21
  9728ec:	aa1903e0 	mov	x0, x25
  9728f0:	940002e6 	bl	973488 <psci_cpu_suspend_start>
  9728f4:	2a0003f3 	mov	w19, w0
  9728f8:	17fffff1 	b	9728bc <psci_cpu_suspend+0xa0>
  9728fc:	aa1703e2 	mov	x2, x23
  972900:	aa1603e1 	mov	x1, x22
  972904:	aa1903e0 	mov	x0, x25
  972908:	97ffff16 	bl	972560 <psci_validate_entry_point>
  97290c:	2a0003f3 	mov	w19, w0
  972910:	34fffe80 	cbz	w0, 9728e0 <psci_cpu_suspend+0xc4>
  972914:	17ffffea 	b	9728bc <psci_cpu_suspend+0xa0>
  972918:	12800033 	mov	w19, #0xfffffffe            	// #-2
  97291c:	17ffffe8 	b	9728bc <psci_cpu_suspend+0xa0>

0000000000972920 <psci_system_suspend>:
  972920:	a9b77bfd 	stp	x29, x30, [sp, #-144]!
  972924:	910003fd 	mov	x29, sp
  972928:	a90153f3 	stp	x19, x20, [sp, #16]
  97292c:	aa0003f3 	mov	x19, x0
  972930:	aa0103f4 	mov	x20, x1
  972934:	f90013f5 	str	x21, [sp, #32]
  972938:	97fffdce 	bl	972070 <psci_is_last_on_cpu>
  97293c:	370000c0 	tbnz	w0, #0, 972954 <psci_system_suspend+0x34>
  972940:	12800040 	mov	w0, #0xfffffffd            	// #-3
  972944:	a94153f3 	ldp	x19, x20, [sp, #16]
  972948:	f94013f5 	ldr	x21, [sp, #32]
  97294c:	a8c97bfd 	ldp	x29, x30, [sp], #144
  972950:	d65f03c0 	ret
  972954:	9100e3f5 	add	x21, sp, #0x38
  972958:	aa1403e2 	mov	x2, x20
  97295c:	aa1303e1 	mov	x1, x19
  972960:	aa1503e0 	mov	x0, x21
  972964:	97fffeff 	bl	972560 <psci_validate_entry_point>
  972968:	35fffee0 	cbnz	w0, 972944 <psci_system_suspend+0x24>
  97296c:	9100c3f3 	add	x19, sp, #0x30
  972970:	aa1303e0 	mov	x0, x19
  972974:	97fffdba 	bl	97205c <psci_query_sys_suspend_pwrstate>
  972978:	aa1303e0 	mov	x0, x19
  97297c:	97fffebb 	bl	972468 <psci_find_target_suspend_lvl>
  972980:	7100041f 	cmp	w0, #0x1
  972984:	54fffde9 	b.ls	972940 <psci_system_suspend+0x20>  // b.plast
  972988:	aa1303e2 	mov	x2, x19
  97298c:	aa1503e0 	mov	x0, x21
  972990:	52800023 	mov	w3, #0x1                   	// #1
  972994:	52800041 	mov	w1, #0x2                   	// #2
  972998:	940002bc 	bl	973488 <psci_cpu_suspend_start>
  97299c:	17ffffea 	b	972944 <psci_system_suspend+0x24>

00000000009729a0 <psci_cpu_off>:
  9729a0:	52800040 	mov	w0, #0x2                   	// #2
  9729a4:	140000fa 	b	972d8c <psci_do_cpu_off>

00000000009729a8 <psci_affinity_info>:
  9729a8:	a9be7bfd 	stp	x29, x30, [sp, #-32]!
  9729ac:	910003fd 	mov	x29, sp
  9729b0:	a90153f3 	stp	x19, x20, [sp, #16]
  9729b4:	aa0003f3 	mov	x19, x0
  9729b8:	2a0103f4 	mov	w20, w1
  9729bc:	97ffff79 	bl	9727a0 <is_valid_mpidr>
  9729c0:	360001e0 	tbz	w0, #0, 9729fc <psci_affinity_info+0x54>
  9729c4:	350001d4 	cbnz	w20, 9729fc <psci_affinity_info+0x54>
  9729c8:	aa1303e0 	mov	x0, x19
  9729cc:	94000603 	bl	9741d8 <plat_core_pos_by_mpidr>
  9729d0:	2a0003f3 	mov	w19, w0
  9729d4:	940016f3 	bl	9785a0 <_cpu_data_by_index>
  9729d8:	d2800081 	mov	x1, #0x4                   	// #4
  9729dc:	91006000 	add	x0, x0, #0x18
  9729e0:	940014c3 	bl	977cec <flush_dcache_range>
  9729e4:	2a1303e0 	mov	w0, w19
  9729e8:	940016ee 	bl	9785a0 <_cpu_data_by_index>
  9729ec:	b9401800 	ldr	w0, [x0, #24]
  9729f0:	a94153f3 	ldp	x19, x20, [sp, #16]
  9729f4:	a8c27bfd 	ldp	x29, x30, [sp], #32
  9729f8:	d65f03c0 	ret
  9729fc:	12800020 	mov	w0, #0xfffffffe            	// #-2
  972a00:	17fffffc 	b	9729f0 <psci_affinity_info+0x48>

0000000000972a04 <psci_migrate>:
  972a04:	a9bd7bfd 	stp	x29, x30, [sp, #-48]!
  972a08:	910003fd 	mov	x29, sp
  972a0c:	f9000bf3 	str	x19, [sp, #16]
  972a10:	aa0003f3 	mov	x19, x0
  972a14:	97ffff63 	bl	9727a0 <is_valid_mpidr>
  972a18:	370000a0 	tbnz	w0, #0, 972a2c <psci_migrate+0x28>
  972a1c:	12800020 	mov	w0, #0xfffffffe            	// #-2
  972a20:	f9400bf3 	ldr	x19, [sp, #16]
  972a24:	a8c37bfd 	ldp	x29, x30, [sp], #48
  972a28:	d65f03c0 	ret
  972a2c:	9100a3e0 	add	x0, sp, #0x28
  972a30:	97ffff51 	bl	972774 <psci_spd_migrate_info>
  972a34:	340000a0 	cbz	w0, 972a48 <psci_migrate+0x44>
  972a38:	7100041f 	cmp	w0, #0x1
  972a3c:	12800040 	mov	w0, #0xfffffffd            	// #-3
  972a40:	5a9f0000 	csinv	w0, w0, wzr, eq	// eq = none
  972a44:	17fffff7 	b	972a20 <psci_migrate+0x1c>
  972a48:	d53800a0 	mrs	x0, mpidr_el1
  972a4c:	f94017e1 	ldr	x1, [sp, #40]
  972a50:	eb00003f 	cmp	x1, x0
  972a54:	54000181 	b.ne	972a84 <psci_migrate+0x80>  // b.any
  972a58:	aa1303e0 	mov	x0, x19
  972a5c:	97ffff51 	bl	9727a0 <is_valid_mpidr>
  972a60:	3607fde0 	tbz	w0, #0, 972a1c <psci_migrate+0x18>
  972a64:	d53800a0 	mrs	x0, mpidr_el1
  972a68:	f0000021 	adrp	x1, 979000 <imx_mmap>
  972a6c:	f945a021 	ldr	x1, [x1, #2880]
  972a70:	f9400021 	ldr	x1, [x1]
  972a74:	f9401422 	ldr	x2, [x1, #40]
  972a78:	aa1303e1 	mov	x1, x19
  972a7c:	d63f0040 	blr	x2
  972a80:	17ffffe8 	b	972a20 <psci_migrate+0x1c>
  972a84:	128000c0 	mov	w0, #0xfffffff9            	// #-7
  972a88:	17ffffe6 	b	972a20 <psci_migrate+0x1c>

0000000000972a8c <psci_migrate_info_type>:
  972a8c:	a9be7bfd 	stp	x29, x30, [sp, #-32]!
  972a90:	910003fd 	mov	x29, sp
  972a94:	910063e0 	add	x0, sp, #0x18
  972a98:	97ffff37 	bl	972774 <psci_spd_migrate_info>
  972a9c:	a8c27bfd 	ldp	x29, x30, [sp], #32
  972aa0:	d65f03c0 	ret

0000000000972aa4 <psci_migrate_info_up_cpu>:
  972aa4:	a9be7bfd 	stp	x29, x30, [sp, #-32]!
  972aa8:	910003fd 	mov	x29, sp
  972aac:	910063e0 	add	x0, sp, #0x18
  972ab0:	97ffff31 	bl	972774 <psci_spd_migrate_info>
  972ab4:	f9400fe1 	ldr	x1, [sp, #24]
  972ab8:	7100041f 	cmp	w0, #0x1
  972abc:	a8c27bfd 	ldp	x29, x30, [sp], #32
  972ac0:	92800020 	mov	x0, #0xfffffffffffffffe    	// #-2
  972ac4:	9a809020 	csel	x0, x1, x0, ls	// ls = plast
  972ac8:	d65f03c0 	ret

0000000000972acc <psci_node_hw_state>:
  972acc:	a9be7bfd 	stp	x29, x30, [sp, #-32]!
  972ad0:	910003fd 	mov	x29, sp
  972ad4:	a90153f3 	stp	x19, x20, [sp, #16]
  972ad8:	aa0003f4 	mov	x20, x0
  972adc:	2a0103f3 	mov	w19, w1
  972ae0:	97ffff30 	bl	9727a0 <is_valid_mpidr>
  972ae4:	360001a0 	tbz	w0, #0, 972b18 <psci_node_hw_state+0x4c>
  972ae8:	71000a7f 	cmp	w19, #0x2
  972aec:	54000168 	b.hi	972b18 <psci_node_hw_state+0x4c>  // b.pmore
  972af0:	f0000020 	adrp	x0, 979000 <imx_mmap>
  972af4:	2a1303e1 	mov	w1, w19
  972af8:	f9456c00 	ldr	x0, [x0, #2776]
  972afc:	f9400000 	ldr	x0, [x0]
  972b00:	f9404402 	ldr	x2, [x0, #136]
  972b04:	aa1403e0 	mov	x0, x20
  972b08:	a94153f3 	ldp	x19, x20, [sp, #16]
  972b0c:	aa0203f0 	mov	x16, x2
  972b10:	a8c27bfd 	ldp	x29, x30, [sp], #32
  972b14:	d61f0200 	br	x16
  972b18:	a94153f3 	ldp	x19, x20, [sp, #16]
  972b1c:	12800020 	mov	w0, #0xfffffffe            	// #-2
  972b20:	a8c27bfd 	ldp	x29, x30, [sp], #32
  972b24:	d65f03c0 	ret

0000000000972b28 <psci_features>:
  972b28:	52b00001 	mov	w1, #0x80000000            	// #-2147483648
  972b2c:	6b01001f 	cmp	w0, w1
  972b30:	54000280 	b.eq	972b80 <psci_features+0x58>  // b.none
  972b34:	f0000021 	adrp	x1, 979000 <imx_mmap>
  972b38:	f9454821 	ldr	x1, [x1, #2704]
  972b3c:	b9400021 	ldr	w1, [x1]
  972b40:	36f00080 	tbz	w0, #30, 972b50 <psci_features+0x28>
  972b44:	528c1742 	mov	w2, #0x60ba                	// #24762
  972b48:	72a002e2 	movk	w2, #0x17, lsl #16
  972b4c:	0a020021 	and	w1, w1, w2
  972b50:	12081403 	and	w3, w0, #0x3f000000
  972b54:	52a08002 	mov	w2, #0x4000000             	// #67108864
  972b58:	6b02007f 	cmp	w3, w2
  972b5c:	54000161 	b.ne	972b88 <psci_features+0x60>  // b.any
  972b60:	531f7c02 	lsr	w2, w0, #31
  972b64:	36f80120 	tbz	w0, #31, 972b88 <psci_features+0x60>
  972b68:	721b481f 	tst	w0, #0xffffe0
  972b6c:	540000e1 	b.ne	972b88 <psci_features+0x60>  // b.any
  972b70:	1ac02040 	lsl	w0, w2, w0
  972b74:	6a01001f 	tst	w0, w1
  972b78:	5a9f13e0 	csetm	w0, eq	// eq = none
  972b7c:	d65f03c0 	ret
  972b80:	52800000 	mov	w0, #0x0                   	// #0
  972b84:	17fffffe 	b	972b7c <psci_features+0x54>
  972b88:	12800000 	mov	w0, #0xffffffff            	// #-1
  972b8c:	17fffffc 	b	972b7c <psci_features+0x54>

0000000000972b90 <psci_smc_handler>:
  972b90:	36000a07 	tbz	w7, #0, 972cd0 <psci_smc_handler+0x140>
  972b94:	f0000025 	adrp	x5, 979000 <imx_mmap>
  972b98:	2a0003e4 	mov	w4, w0
  972b9c:	aa0103e0 	mov	x0, x1
  972ba0:	aa0203e1 	mov	x1, x2
  972ba4:	f94548a5 	ldr	x5, [x5, #2704]
  972ba8:	aa0303e2 	mov	x2, x3
  972bac:	52800023 	mov	w3, #0x1                   	// #1
  972bb0:	1ac42063 	lsl	w3, w3, w4
  972bb4:	b94000a5 	ldr	w5, [x5]
  972bb8:	6a05007f 	tst	w3, w5
  972bbc:	540008a0 	b.eq	972cd0 <psci_smc_handler+0x140>  // b.none
  972bc0:	a9bf7bfd 	stp	x29, x30, [sp, #-16]!
  972bc4:	910003fd 	mov	x29, sp
  972bc8:	37f00704 	tbnz	w4, #30, 972ca8 <psci_smc_handler+0x118>
  972bcc:	52af8003 	mov	w3, #0x7c000000            	// #2080374784
  972bd0:	0b030084 	add	w4, w4, w3
  972bd4:	7100509f 	cmp	w4, #0x14
  972bd8:	54000808 	b.hi	972cd8 <psci_smc_handler+0x148>  // b.pmore
  972bdc:	f0000023 	adrp	x3, 979000 <imx_mmap>
  972be0:	910ae063 	add	x3, x3, #0x2b8
  972be4:	38644863 	ldrb	w3, [x3, w4, uxtw]
  972be8:	10000064 	adr	x4, 972bf4 <psci_smc_handler+0x64>
  972bec:	8b238883 	add	x3, x4, w3, sxtb #2
  972bf0:	d61f0060 	br	x3
  972bf4:	320083e0 	mov	w0, #0x10001               	// #65537
  972bf8:	a8c17bfd 	ldp	x29, x30, [sp], #16
  972bfc:	d65f03c0 	ret
  972c00:	97ffff68 	bl	9729a0 <psci_cpu_off>
  972c04:	93407c00 	sxtw	x0, w0
  972c08:	17fffffc 	b	972bf8 <psci_smc_handler+0x68>
  972c0c:	2a0203e2 	mov	w2, w2
  972c10:	2a0103e1 	mov	w1, w1
  972c14:	97ffff02 	bl	97281c <psci_cpu_suspend>
  972c18:	17fffffb 	b	972c04 <psci_smc_handler+0x74>
  972c1c:	2a0203e2 	mov	w2, w2
  972c20:	2a0103e1 	mov	w1, w1
  972c24:	2a0003e0 	mov	w0, w0
  972c28:	97fffee5 	bl	9727bc <psci_cpu_on>
  972c2c:	17fffff6 	b	972c04 <psci_smc_handler+0x74>
  972c30:	2a0003e0 	mov	w0, w0
  972c34:	97ffff5d 	bl	9729a8 <psci_affinity_info>
  972c38:	17fffff3 	b	972c04 <psci_smc_handler+0x74>
  972c3c:	2a0003e0 	mov	w0, w0
  972c40:	97ffff71 	bl	972a04 <psci_migrate>
  972c44:	17fffff0 	b	972c04 <psci_smc_handler+0x74>
  972c48:	97ffff91 	bl	972a8c <psci_migrate_info_type>
  972c4c:	17ffffee 	b	972c04 <psci_smc_handler+0x74>
  972c50:	a8c17bfd 	ldp	x29, x30, [sp], #16
  972c54:	17ffff94 	b	972aa4 <psci_migrate_info_up_cpu>
  972c58:	2a0003e0 	mov	w0, w0
  972c5c:	97ffff9c 	bl	972acc <psci_node_hw_state>
  972c60:	17ffffe9 	b	972c04 <psci_smc_handler+0x74>
  972c64:	2a0103e1 	mov	w1, w1
  972c68:	2a0003e0 	mov	w0, w0
  972c6c:	97ffff2d 	bl	972920 <psci_system_suspend>
  972c70:	17ffffe5 	b	972c04 <psci_smc_handler+0x74>
  972c74:	940002a5 	bl	973708 <psci_system_off>
  972c78:	940002b4 	bl	973748 <psci_system_reset>
  972c7c:	97ffffab 	bl	972b28 <psci_features>
  972c80:	17ffffe1 	b	972c04 <psci_smc_handler+0x74>
  972c84:	a8c17bfd 	ldp	x29, x30, [sp], #16
  972c88:	14000016 	b	972ce0 <psci_mem_protect>
  972c8c:	2a0103e1 	mov	w1, w1
  972c90:	2a0003e0 	mov	w0, w0
  972c94:	a8c17bfd 	ldp	x29, x30, [sp], #16
  972c98:	1400002a 	b	972d40 <psci_mem_chk_range>
  972c9c:	2a0103e1 	mov	w1, w1
  972ca0:	a8c17bfd 	ldp	x29, x30, [sp], #16
  972ca4:	140002b9 	b	973788 <psci_system_reset2>
  972ca8:	12b88003 	mov	w3, #0x3bffffff            	// #1006632959
  972cac:	0b030084 	add	w4, w4, w3
  972cb0:	71004c9f 	cmp	w4, #0x13
  972cb4:	54000128 	b.hi	972cd8 <psci_smc_handler+0x148>  // b.pmore
  972cb8:	f0000023 	adrp	x3, 979000 <imx_mmap>
  972cbc:	910b4063 	add	x3, x3, #0x2d0
  972cc0:	38644863 	ldrb	w3, [x3, w4, uxtw]
  972cc4:	10000064 	adr	x4, 972cd0 <psci_smc_handler+0x140>
  972cc8:	8b238883 	add	x3, x4, w3, sxtb #2
  972ccc:	d61f0060 	br	x3
  972cd0:	92800000 	mov	x0, #0xffffffffffffffff    	// #-1
  972cd4:	d65f03c0 	ret
  972cd8:	92800000 	mov	x0, #0xffffffffffffffff    	// #-1
  972cdc:	17ffffc7 	b	972bf8 <psci_smc_handler+0x68>

0000000000972ce0 <psci_mem_protect>:
  972ce0:	a9bd7bfd 	stp	x29, x30, [sp, #-48]!
  972ce4:	910003fd 	mov	x29, sp
  972ce8:	a90153f3 	stp	x19, x20, [sp, #16]
  972cec:	f0000033 	adrp	x19, 979000 <imx_mmap>
  972cf0:	2a0003f4 	mov	w20, w0
  972cf4:	f9456e73 	ldr	x19, [x19, #2776]
  972cf8:	f9400260 	ldr	x0, [x19]
  972cfc:	f9404c01 	ldr	x1, [x0, #152]
  972d00:	9100b3e0 	add	x0, sp, #0x2c
  972d04:	d63f0020 	blr	x1
  972d08:	36f800a0 	tbz	w0, #31, 972d1c <psci_mem_protect+0x3c>
  972d0c:	92800000 	mov	x0, #0xffffffffffffffff    	// #-1
  972d10:	a94153f3 	ldp	x19, x20, [sp, #16]
  972d14:	a8c37bfd 	ldp	x29, x30, [sp], #48
  972d18:	d65f03c0 	ret
  972d1c:	f9400260 	ldr	x0, [x19]
  972d20:	f9405001 	ldr	x1, [x0, #160]
  972d24:	2a1403e0 	mov	w0, w20
  972d28:	d63f0020 	blr	x1
  972d2c:	37ffff00 	tbnz	w0, #31, 972d0c <psci_mem_protect+0x2c>
  972d30:	b9402fe0 	ldr	w0, [sp, #44]
  972d34:	7100001f 	cmp	w0, #0x0
  972d38:	9a9f07e0 	cset	x0, ne	// ne = any
  972d3c:	17fffff5 	b	972d10 <psci_mem_protect+0x30>

0000000000972d40 <psci_mem_chk_range>:
  972d40:	b4000081 	cbz	x1, 972d50 <psci_mem_chk_range+0x10>
  972d44:	cb0103e2 	neg	x2, x1
  972d48:	eb00005f 	cmp	x2, x0
  972d4c:	540000c2 	b.cs	972d64 <psci_mem_chk_range+0x24>  // b.hs, b.nlast
  972d50:	92800040 	mov	x0, #0xfffffffffffffffd    	// #-3
  972d54:	d65f03c0 	ret
  972d58:	92800040 	mov	x0, #0xfffffffffffffffd    	// #-3
  972d5c:	a8c17bfd 	ldp	x29, x30, [sp], #16
  972d60:	d65f03c0 	ret
  972d64:	a9bf7bfd 	stp	x29, x30, [sp, #-16]!
  972d68:	f0000022 	adrp	x2, 979000 <imx_mmap>
  972d6c:	910003fd 	mov	x29, sp
  972d70:	f9456c42 	ldr	x2, [x2, #2776]
  972d74:	f9400042 	ldr	x2, [x2]
  972d78:	f9404842 	ldr	x2, [x2, #144]
  972d7c:	d63f0040 	blr	x2
  972d80:	37fffec0 	tbnz	w0, #31, 972d58 <psci_mem_chk_range+0x18>
  972d84:	d2800000 	mov	x0, #0x0                   	// #0
  972d88:	17fffff5 	b	972d5c <psci_mem_chk_range+0x1c>

0000000000972d8c <psci_do_cpu_off>:
  972d8c:	a9bb7bfd 	stp	x29, x30, [sp, #-80]!
  972d90:	910003fd 	mov	x29, sp
  972d94:	a90153f3 	stp	x19, x20, [sp, #16]
  972d98:	2a0003f4 	mov	w20, w0
  972d9c:	a9025bf5 	stp	x21, x22, [sp, #32]
  972da0:	f9001bf7 	str	x23, [sp, #48]
  972da4:	94001659 	bl	978708 <plat_my_core_pos>
  972da8:	f0000021 	adrp	x1, 979000 <imx_mmap>
  972dac:	2a0003f6 	mov	w22, w0
  972db0:	52808080 	mov	w0, #0x404                 	// #1028
  972db4:	790083e0 	strh	w0, [sp, #64]
  972db8:	52800080 	mov	w0, #0x4                   	// #4
  972dbc:	39010be0 	strb	w0, [sp, #66]
  972dc0:	f9456c20 	ldr	x0, [x1, #2776]
  972dc4:	f90027ff 	str	xzr, [sp, #72]
  972dc8:	aa0103f5 	mov	x21, x1
  972dcc:	f9400000 	ldr	x0, [x0]
  972dd0:	f9400c02 	ldr	x2, [x0, #24]
  972dd4:	b4000182 	cbz	x2, 972e04 <psci_do_cpu_off+0x78>
  972dd8:	910103e0 	add	x0, sp, #0x40
  972ddc:	d63f0040 	blr	x2
  972de0:	2a0003f3 	mov	w19, w0
  972de4:	31000c1f 	cmn	w0, #0x3
  972de8:	54000101 	b.ne	972e08 <psci_do_cpu_off+0x7c>  // b.any
  972dec:	a9425bf5 	ldp	x21, x22, [sp, #32]
  972df0:	2a1303e0 	mov	w0, w19
  972df4:	a94153f3 	ldp	x19, x20, [sp, #16]
  972df8:	f9401bf7 	ldr	x23, [sp, #48]
  972dfc:	a8c57bfd 	ldp	x29, x30, [sp], #80
  972e00:	d65f03c0 	ret
  972e04:	52800013 	mov	w19, #0x0                   	// #0
  972e08:	910123f7 	add	x23, sp, #0x48
  972e0c:	2a1403e1 	mov	w1, w20
  972e10:	aa1703e2 	mov	x2, x23
  972e14:	2a1603e0 	mov	w0, w22
  972e18:	97fffd08 	bl	972238 <psci_get_parent_pwr_domain_nodes>
  972e1c:	2a1403e0 	mov	w0, w20
  972e20:	aa1703e1 	mov	x1, x23
  972e24:	97fffd9e 	bl	97249c <psci_acquire_pwr_domain_locks>
  972e28:	f945a2a0 	ldr	x0, [x21, #2880]
  972e2c:	f9400000 	ldr	x0, [x0]
  972e30:	b40000e0 	cbz	x0, 972e4c <psci_do_cpu_off+0xc0>
  972e34:	f9400401 	ldr	x1, [x0, #8]
  972e38:	b40000a1 	cbz	x1, 972e4c <psci_do_cpu_off+0xc0>
  972e3c:	d2800000 	mov	x0, #0x0                   	// #0
  972e40:	d63f0020 	blr	x1
  972e44:	2a0003f3 	mov	w19, w0
  972e48:	35000200 	cbnz	w0, 972e88 <psci_do_cpu_off+0xfc>
  972e4c:	910103f6 	add	x22, sp, #0x40
  972e50:	2a1403e0 	mov	w0, w20
  972e54:	aa1603e1 	mov	x1, x22
  972e58:	97fffd29 	bl	9722fc <psci_do_state_coordination>
  972e5c:	aa1603e1 	mov	x1, x22
  972e60:	2a1403e0 	mov	w0, w20
  972e64:	97fffcd6 	bl	9721bc <psci_set_target_local_pwr_states>
  972e68:	aa1603e0 	mov	x0, x22
  972e6c:	97fffd6c 	bl	97241c <psci_find_max_off_lvl>
  972e70:	97fffe4b 	bl	97279c <psci_pwrdown_cpu>
  972e74:	f9456ea0 	ldr	x0, [x21, #2776]
  972e78:	f9400000 	ldr	x0, [x0]
  972e7c:	f9400801 	ldr	x1, [x0, #16]
  972e80:	aa1603e0 	mov	x0, x22
  972e84:	d63f0020 	blr	x1
  972e88:	aa1703e1 	mov	x1, x23
  972e8c:	2a1403e0 	mov	w0, w20
  972e90:	97fffd9e 	bl	972508 <psci_release_pwr_domain_locks>
  972e94:	35fffad3 	cbnz	w19, 972dec <psci_do_cpu_off+0x60>
  972e98:	d53ed040 	mrs	x0, tpidr_el3
  972e9c:	d2800081 	mov	x1, #0x4                   	// #4
  972ea0:	91006000 	add	x0, x0, #0x18
  972ea4:	94001392 	bl	977cec <flush_dcache_range>
  972ea8:	d53ed040 	mrs	x0, tpidr_el3
  972eac:	52800021 	mov	w1, #0x1                   	// #1
  972eb0:	b9001801 	str	w1, [x0, #24]
  972eb4:	d5033b9f 	dsb	ish
  972eb8:	d53ed040 	mrs	x0, tpidr_el3
  972ebc:	d2800081 	mov	x1, #0x4                   	// #4
  972ec0:	91006000 	add	x0, x0, #0x18
  972ec4:	940013a6 	bl	977d5c <inv_dcache_range>
  972ec8:	f9456eb5 	ldr	x21, [x21, #2776]
  972ecc:	f94002a0 	ldr	x0, [x21]
  972ed0:	f9402401 	ldr	x1, [x0, #72]
  972ed4:	b4000061 	cbz	x1, 972ee0 <psci_do_cpu_off+0x154>
  972ed8:	910103e0 	add	x0, sp, #0x40
  972edc:	d63f0020 	blr	x1
  972ee0:	940015dc 	bl	978650 <psci_power_down_wfi>

0000000000972ee4 <psci_cpu_on_start>:
  972ee4:	a9bc7bfd 	stp	x29, x30, [sp, #-64]!
  972ee8:	910003fd 	mov	x29, sp
  972eec:	a9025bf5 	stp	x21, x22, [sp, #32]
  972ef0:	f0000036 	adrp	x22, 979000 <imx_mmap>
  972ef4:	d2800195 	mov	x21, #0xc                   	// #12
  972ef8:	a90153f3 	stp	x19, x20, [sp, #16]
  972efc:	a90363f7 	stp	x23, x24, [sp, #48]
  972f00:	aa0103f7 	mov	x23, x1
  972f04:	aa0003f8 	mov	x24, x0
  972f08:	940004b4 	bl	9741d8 <plat_core_pos_by_mpidr>
  972f0c:	2a0003f3 	mov	w19, w0
  972f10:	8b2052b5 	add	x21, x21, w0, uxtw #4
  972f14:	f9453ac0 	ldr	x0, [x22, #2672]
  972f18:	8b0002b5 	add	x21, x21, x0
  972f1c:	aa1503e0 	mov	x0, x21
  972f20:	940015a6 	bl	9785b8 <spin_lock>
  972f24:	2a1303e0 	mov	w0, w19
  972f28:	9400159e 	bl	9785a0 <_cpu_data_by_index>
  972f2c:	d2800081 	mov	x1, #0x4                   	// #4
  972f30:	91006000 	add	x0, x0, #0x18
  972f34:	9400136e 	bl	977cec <flush_dcache_range>
  972f38:	2a1303e0 	mov	w0, w19
  972f3c:	94001599 	bl	9785a0 <_cpu_data_by_index>
  972f40:	b9401800 	ldr	w0, [x0, #24]
  972f44:	340007a0 	cbz	w0, 973038 <psci_cpu_on_start+0x154>
  972f48:	7100081f 	cmp	w0, #0x2
  972f4c:	540007a0 	b.eq	973040 <psci_cpu_on_start+0x15c>  // b.none
  972f50:	f945a2c0 	ldr	x0, [x22, #2880]
  972f54:	aa1603f4 	mov	x20, x22
  972f58:	f9400000 	ldr	x0, [x0]
  972f5c:	b40000a0 	cbz	x0, 972f70 <psci_cpu_on_start+0x8c>
  972f60:	f9400001 	ldr	x1, [x0]
  972f64:	b4000061 	cbz	x1, 972f70 <psci_cpu_on_start+0x8c>
  972f68:	aa1803e0 	mov	x0, x24
  972f6c:	d63f0020 	blr	x1
  972f70:	2a1303e0 	mov	w0, w19
  972f74:	52800056 	mov	w22, #0x2                   	// #2
  972f78:	9400158a 	bl	9785a0 <_cpu_data_by_index>
  972f7c:	b9001816 	str	w22, [x0, #24]
  972f80:	2a1303e0 	mov	w0, w19
  972f84:	94001587 	bl	9785a0 <_cpu_data_by_index>
  972f88:	91006000 	add	x0, x0, #0x18
  972f8c:	d2800081 	mov	x1, #0x4                   	// #4
  972f90:	94001357 	bl	977cec <flush_dcache_range>
  972f94:	2a1303e0 	mov	w0, w19
  972f98:	94001582 	bl	9785a0 <_cpu_data_by_index>
  972f9c:	b9401800 	ldr	w0, [x0, #24]
  972fa0:	6b16001f 	cmp	w0, w22
  972fa4:	54000120 	b.eq	972fc8 <psci_cpu_on_start+0xe4>  // b.none
  972fa8:	2a1303e0 	mov	w0, w19
  972fac:	9400157d 	bl	9785a0 <_cpu_data_by_index>
  972fb0:	b9001816 	str	w22, [x0, #24]
  972fb4:	2a1303e0 	mov	w0, w19
  972fb8:	9400157a 	bl	9785a0 <_cpu_data_by_index>
  972fbc:	91006000 	add	x0, x0, #0x18
  972fc0:	d2800081 	mov	x1, #0x4                   	// #4
  972fc4:	9400134a 	bl	977cec <flush_dcache_range>
  972fc8:	f9456e94 	ldr	x20, [x20, #2776]
  972fcc:	f9400280 	ldr	x0, [x20]
  972fd0:	f9400401 	ldr	x1, [x0, #8]
  972fd4:	aa1803e0 	mov	x0, x24
  972fd8:	d63f0020 	blr	x1
  972fdc:	2a0003f4 	mov	w20, w0
  972fe0:	35000180 	cbnz	w0, 973010 <psci_cpu_on_start+0x12c>
  972fe4:	aa1703e1 	mov	x1, x23
  972fe8:	2a1303e0 	mov	w0, w19
  972fec:	97fffb0d 	bl	971c20 <cm_init_context_by_index>
  972ff0:	aa1503e0 	mov	x0, x21
  972ff4:	94001579 	bl	9785d8 <spin_unlock>
  972ff8:	a9425bf5 	ldp	x21, x22, [sp, #32]
  972ffc:	2a1403e0 	mov	w0, w20
  973000:	a94153f3 	ldp	x19, x20, [sp, #16]
  973004:	a94363f7 	ldp	x23, x24, [sp, #48]
  973008:	a8c47bfd 	ldp	x29, x30, [sp], #64
  97300c:	d65f03c0 	ret
  973010:	2a1303e0 	mov	w0, w19
  973014:	94001563 	bl	9785a0 <_cpu_data_by_index>
  973018:	52800021 	mov	w1, #0x1                   	// #1
  97301c:	b9001801 	str	w1, [x0, #24]
  973020:	2a1303e0 	mov	w0, w19
  973024:	9400155f 	bl	9785a0 <_cpu_data_by_index>
  973028:	91006000 	add	x0, x0, #0x18
  97302c:	d2800081 	mov	x1, #0x4                   	// #4
  973030:	9400132f 	bl	977cec <flush_dcache_range>
  973034:	17ffffef 	b	972ff0 <psci_cpu_on_start+0x10c>
  973038:	12800074 	mov	w20, #0xfffffffc            	// #-4
  97303c:	17ffffed 	b	972ff0 <psci_cpu_on_start+0x10c>
  973040:	12800094 	mov	w20, #0xfffffffb            	// #-5
  973044:	17ffffeb 	b	972ff0 <psci_cpu_on_start+0x10c>

0000000000973048 <psci_cpu_on_finish>:
  973048:	a9bc7bfd 	stp	x29, x30, [sp, #-64]!
  97304c:	910003fd 	mov	x29, sp
  973050:	a9025bf5 	stp	x21, x22, [sp, #32]
  973054:	d0000036 	adrp	x22, 979000 <imx_mmap>
  973058:	aa0103f5 	mov	x21, x1
  97305c:	a90153f3 	stp	x19, x20, [sp, #16]
  973060:	2a0003f4 	mov	w20, w0
  973064:	f9456ed3 	ldr	x19, [x22, #2776]
  973068:	f9400260 	ldr	x0, [x19]
  97306c:	f9401801 	ldr	x1, [x0, #48]
  973070:	aa1503e0 	mov	x0, x21
  973074:	f9001bf7 	str	x23, [sp, #48]
  973078:	d63f0020 	blr	x1
  97307c:	94001568 	bl	97861c <psci_do_pwrup_cache_maintenance>
  973080:	f9400260 	ldr	x0, [x19]
  973084:	aa1603f3 	mov	x19, x22
  973088:	f9401c01 	ldr	x1, [x0, #56]
  97308c:	b4000061 	cbz	x1, 973098 <psci_cpu_on_finish+0x50>
  973090:	aa1503e0 	mov	x0, x21
  973094:	d63f0020 	blr	x1
  973098:	94000023 	bl	973124 <psci_arch_setup>
  97309c:	d2800195 	mov	x21, #0xc                   	// #12
  9730a0:	f9453a60 	ldr	x0, [x19, #2672]
  9730a4:	8b3452b5 	add	x21, x21, w20, uxtw #4
  9730a8:	8b0002b5 	add	x21, x21, x0
  9730ac:	aa1503e0 	mov	x0, x21
  9730b0:	94001542 	bl	9785b8 <spin_lock>
  9730b4:	aa1503e0 	mov	x0, x21
  9730b8:	94001548 	bl	9785d8 <spin_unlock>
  9730bc:	f945a260 	ldr	x0, [x19, #2880]
  9730c0:	f9400000 	ldr	x0, [x0]
  9730c4:	b40000a0 	cbz	x0, 9730d8 <psci_cpu_on_finish+0x90>
  9730c8:	f9400c01 	ldr	x1, [x0, #24]
  9730cc:	b4000061 	cbz	x1, 9730d8 <psci_cpu_on_finish+0x90>
  9730d0:	d2800000 	mov	x0, #0x0                   	// #0
  9730d4:	d63f0020 	blr	x1
  9730d8:	f9458a75 	ldr	x21, [x19, #2832]
  9730dc:	f9459e77 	ldr	x23, [x19, #2872]
  9730e0:	eb1702bf 	cmp	x21, x23
  9730e4:	54000183 	b.cc	973114 <psci_cpu_on_finish+0xcc>  // b.lo, b.ul, b.last
  9730e8:	d53800a0 	mrs	x0, mpidr_el1
  9730ec:	f9453a73 	ldr	x19, [x19, #2672]
  9730f0:	d37c7e94 	ubfiz	x20, x20, #4, #32
  9730f4:	92409c00 	and	x0, x0, #0xffffffffff
  9730f8:	9260dc00 	and	x0, x0, #0xffffffff00ffffff
  9730fc:	f8346a60 	str	x0, [x19, x20]
  973100:	a94153f3 	ldp	x19, x20, [sp, #16]
  973104:	a9425bf5 	ldp	x21, x22, [sp, #32]
  973108:	f9401bf7 	ldr	x23, [sp, #48]
  97310c:	a8c47bfd 	ldp	x29, x30, [sp], #64
  973110:	d65f03c0 	ret
  973114:	f84086a1 	ldr	x1, [x21], #8
  973118:	d2800000 	mov	x0, #0x0                   	// #0
  97311c:	d63f0020 	blr	x1
  973120:	17fffff0 	b	9730e0 <psci_cpu_on_finish+0x98>

0000000000973124 <psci_arch_setup>:
  973124:	a9bf7bfd 	stp	x29, x30, [sp, #-16]!
  973128:	910003fd 	mov	x29, sp
  97312c:	94000f68 	bl	976ecc <plat_get_syscnt_freq2>
  973130:	2a0003e0 	mov	w0, w0
  973134:	d51be000 	msr	cntfrq_el0, x0
  973138:	9400142e 	bl	9781f0 <init_cpu_ops>
  97313c:	a8c17bfd 	ldp	x29, x30, [sp], #16
  973140:	17fffa34 	b	971a10 <print_errata_status>

0000000000973144 <psci_setup>:
  973144:	a9b77bfd 	stp	x29, x30, [sp, #-144]!
  973148:	910003fd 	mov	x29, sp
  97314c:	a90153f3 	stp	x19, x20, [sp, #16]
  973150:	52800013 	mov	w19, #0x0                   	// #0
  973154:	a9025bf5 	stp	x21, x22, [sp, #32]
  973158:	aa0003f5 	mov	x21, x0
  97315c:	f0000056 	adrp	x22, 97e000 <__STACKS_START__+0x2340>
  973160:	a90363f7 	stp	x23, x24, [sp, #48]
  973164:	912802d6 	add	x22, x22, #0xa00
  973168:	52800017 	mov	w23, #0x0                   	// #0
  97316c:	a9046bf9 	stp	x25, x26, [sp, #64]
  973170:	52800058 	mov	w24, #0x2                   	// #2
  973174:	52800039 	mov	w25, #0x1                   	// #1
  973178:	a90573fb 	stp	x27, x28, [sp, #80]
  97317c:	97ffffea 	bl	973124 <psci_arch_setup>
  973180:	d000003c 	adrp	x28, 979000 <imx_mmap>
  973184:	94000412 	bl	9741cc <plat_get_power_domain_tree_desc>
  973188:	aa0003fa 	mov	x26, x0
  97318c:	f9453b83 	ldr	x3, [x28, #2672]
  973190:	52800001 	mov	w1, #0x0                   	// #0
  973194:	0b1902fb 	add	w27, w23, w25
  973198:	52800019 	mov	w25, #0x0                   	// #0
  97319c:	14000009 	b	9731c0 <psci_setup+0x7c>
  9731a0:	38774b44 	ldrb	w4, [x26, w23, uxtw]
  9731a4:	2a0103f3 	mov	w19, w1
  9731a8:	0b010085 	add	w5, w4, w1
  9731ac:	6b05027f 	cmp	w19, w5
  9731b0:	54000183 	b.cc	9731e0 <psci_setup+0x9c>  // b.lo, b.ul, b.last
  9731b4:	0b040339 	add	w25, w25, w4
  9731b8:	110006f7 	add	w23, w23, #0x1
  9731bc:	2a1303e1 	mov	w1, w19
  9731c0:	6b1b02ff 	cmp	w23, w27
  9731c4:	54fffee1 	b.ne	9731a0 <psci_setup+0x5c>  // b.any
  9731c8:	71000718 	subs	w24, w24, #0x1
  9731cc:	540005c0 	b.eq	973284 <psci_setup+0x140>  // b.none
  9731d0:	3100071f 	cmn	w24, #0x1
  9731d4:	540005c0 	b.eq	97328c <psci_setup+0x148>  // b.none
  9731d8:	2a1b03f7 	mov	w23, w27
  9731dc:	17ffffee 	b	973194 <psci_setup+0x50>
  9731e0:	510006e2 	sub	w2, w23, #0x1
  9731e4:	12003e74 	and	w20, w19, #0xffff
  9731e8:	34000178 	cbz	w24, 973214 <psci_setup+0xd0>
  9731ec:	f9455781 	ldr	x1, [x28, #2728]
  9731f0:	52800080 	mov	w0, #0x4                   	// #4
  9731f4:	8b343034 	add	x20, x1, w20, uxth #4
  9731f8:	8b333021 	add	x1, x1, w19, uxth #4
  9731fc:	39003698 	strb	w24, [x20, #13]
  973200:	79001c33 	strh	w19, [x1, #14]
  973204:	b9000a82 	str	w2, [x20, #8]
  973208:	39003280 	strb	w0, [x20, #12]
  97320c:	11000673 	add	w19, w19, #0x1
  973210:	17ffffe7 	b	9731ac <psci_setup+0x68>
  973214:	d37c3e80 	ubfiz	x0, x20, #4, #16
  973218:	f9003be3 	str	x3, [sp, #112]
  97321c:	8b000061 	add	x1, x3, x0
  973220:	290f17e4 	stp	w4, w5, [sp, #120]
  973224:	b9000822 	str	w2, [x1, #8]
  973228:	92800001 	mov	x1, #0xffffffffffffffff    	// #-1
  97322c:	f8206861 	str	x1, [x3, x0]
  973230:	2a1403e0 	mov	w0, w20
  973234:	940014db 	bl	9785a0 <_cpu_data_by_index>
  973238:	aa0003e1 	mov	x1, x0
  97323c:	91006000 	add	x0, x0, #0x18
  973240:	52800022 	mov	w2, #0x1                   	// #1
  973244:	b9006fe2 	str	w2, [sp, #108]
  973248:	b9001822 	str	w2, [x1, #24]
  97324c:	52800061 	mov	w1, #0x3                   	// #3
  973250:	b9000401 	str	w1, [x0, #4]
  973254:	52800081 	mov	w1, #0x4                   	// #4
  973258:	39002001 	strb	w1, [x0, #8]
  97325c:	d2800181 	mov	x1, #0xc                   	// #12
  973260:	940012a3 	bl	977cec <flush_dcache_range>
  973264:	52804801 	mov	w1, #0x240                 	// #576
  973268:	b9406fe2 	ldr	w2, [sp, #108]
  97326c:	2a1403e0 	mov	w0, w20
  973270:	9ba15a81 	umaddl	x1, w20, w1, x22
  973274:	97fff3e2 	bl	9701fc <cm_set_context_by_index>
  973278:	f9403be3 	ldr	x3, [sp, #112]
  97327c:	294f17e4 	ldp	w4, w5, [sp, #120]
  973280:	17ffffe3 	b	97320c <psci_setup+0xc8>
  973284:	52800001 	mov	w1, #0x0                   	// #0
  973288:	17ffffd4 	b	9731d8 <psci_setup+0x94>
  97328c:	d0000021 	adrp	x1, 979000 <imx_mmap>
  973290:	910223f6 	add	x22, sp, #0x88
  973294:	52800019 	mov	w25, #0x0                   	// #0
  973298:	52800018 	mov	w24, #0x0                   	// #0
  97329c:	f9456037 	ldr	x23, [x1, #2752]
  9732a0:	52800014 	mov	w20, #0x0                   	// #0
  9732a4:	f945543a 	ldr	x26, [x1, #2728]
  9732a8:	b90002f3 	str	w19, [x23]
  9732ac:	aa0103f3 	mov	x19, x1
  9732b0:	b94002e0 	ldr	w0, [x23]
  9732b4:	6b00029f 	cmp	w20, w0
  9732b8:	54000ac3 	b.cc	973410 <psci_setup+0x2cc>  // b.lo, b.ul, b.last
  9732bc:	d53800b4 	mrs	x20, mpidr_el1
  9732c0:	94001512 	bl	978708 <plat_my_core_pos>
  9732c4:	d37c7c00 	ubfiz	x0, x0, #4, #32
  9732c8:	f9453a62 	ldr	x2, [x19, #2672]
  9732cc:	92409e81 	and	x1, x20, #0xffffffffff
  9732d0:	9260dc21 	and	x1, x1, #0xffffffff00ffffff
  9732d4:	f8206841 	str	x1, [x2, x0]
  9732d8:	97fffb82 	bl	9720e0 <psci_init_req_local_pwr_states>
  9732dc:	52800040 	mov	w0, #0x2                   	// #2
  9732e0:	97fffbe6 	bl	972278 <psci_set_pwr_domains_to_run>
  9732e4:	f94006a0 	ldr	x0, [x21, #8]
  9732e8:	f9456e73 	ldr	x19, [x19, #2776]
  9732ec:	aa1303e1 	mov	x1, x19
  9732f0:	94000efa 	bl	976ed8 <plat_setup_psci_ops>
  9732f4:	aa1303e0 	mov	x0, x19
  9732f8:	d2800101 	mov	x1, #0x8                   	// #8
  9732fc:	9400127c 	bl	977cec <flush_dcache_range>
  973300:	f9400260 	ldr	x0, [x19]
  973304:	52808223 	mov	w3, #0x411                 	// #1041
  973308:	f0000062 	adrp	x2, 982000 <imx_gicv3_ctx+0x1e90>
  97330c:	f9400801 	ldr	x1, [x0, #16]
  973310:	f100003f 	cmp	x1, #0x0
  973314:	528082a1 	mov	w1, #0x415                 	// #1045
  973318:	1a831021 	csel	w1, w1, w3, ne	// ne = any
  97331c:	b90ad441 	str	w1, [x2, #2772]
  973320:	f9400403 	ldr	x3, [x0, #8]
  973324:	b40000a3 	cbz	x3, 973338 <psci_setup+0x1f4>
  973328:	f9401803 	ldr	x3, [x0, #48]
  97332c:	b4000063 	cbz	x3, 973338 <psci_setup+0x1f4>
  973330:	321d0021 	orr	w1, w1, #0x8
  973334:	b90ad441 	str	w1, [x2, #2772]
  973338:	f9401401 	ldr	x1, [x0, #40]
  97333c:	b40001a1 	cbz	x1, 973370 <psci_setup+0x22c>
  973340:	f9402001 	ldr	x1, [x0, #64]
  973344:	b4000161 	cbz	x1, 973370 <psci_setup+0x22c>
  973348:	f9403001 	ldr	x1, [x0, #96]
  97334c:	b4000081 	cbz	x1, 97335c <psci_setup+0x218>
  973350:	b94ad441 	ldr	w1, [x2, #2772]
  973354:	321f0021 	orr	w1, w1, #0x2
  973358:	b90ad441 	str	w1, [x2, #2772]
  97335c:	f9403801 	ldr	x1, [x0, #112]
  973360:	b4000081 	cbz	x1, 973370 <psci_setup+0x22c>
  973364:	b94ad441 	ldr	w1, [x2, #2772]
  973368:	32120021 	orr	w1, w1, #0x4000
  97336c:	b90ad441 	str	w1, [x2, #2772]
  973370:	f9402801 	ldr	x1, [x0, #80]
  973374:	b4000081 	cbz	x1, 973384 <psci_setup+0x240>
  973378:	b94ad441 	ldr	w1, [x2, #2772]
  97337c:	32180021 	orr	w1, w1, #0x100
  973380:	b90ad441 	str	w1, [x2, #2772]
  973384:	f9402c01 	ldr	x1, [x0, #88]
  973388:	b4000081 	cbz	x1, 973398 <psci_setup+0x254>
  97338c:	b94ad441 	ldr	w1, [x2, #2772]
  973390:	32170021 	orr	w1, w1, #0x200
  973394:	b90ad441 	str	w1, [x2, #2772]
  973398:	f9404401 	ldr	x1, [x0, #136]
  97339c:	b4000081 	cbz	x1, 9733ac <psci_setup+0x268>
  9733a0:	b94ad441 	ldr	w1, [x2, #2772]
  9733a4:	32130021 	orr	w1, w1, #0x2000
  9733a8:	b90ad441 	str	w1, [x2, #2772]
  9733ac:	f9404c01 	ldr	x1, [x0, #152]
  9733b0:	b40000c1 	cbz	x1, 9733c8 <psci_setup+0x284>
  9733b4:	f9405001 	ldr	x1, [x0, #160]
  9733b8:	b4000081 	cbz	x1, 9733c8 <psci_setup+0x284>
  9733bc:	b94ad441 	ldr	w1, [x2, #2772]
  9733c0:	320d0021 	orr	w1, w1, #0x80000
  9733c4:	b90ad441 	str	w1, [x2, #2772]
  9733c8:	f9404801 	ldr	x1, [x0, #144]
  9733cc:	b4000081 	cbz	x1, 9733dc <psci_setup+0x298>
  9733d0:	b94ad441 	ldr	w1, [x2, #2772]
  9733d4:	320c0021 	orr	w1, w1, #0x100000
  9733d8:	b90ad441 	str	w1, [x2, #2772]
  9733dc:	f9405400 	ldr	x0, [x0, #168]
  9733e0:	b4000080 	cbz	x0, 9733f0 <psci_setup+0x2ac>
  9733e4:	b94ad440 	ldr	w0, [x2, #2772]
  9733e8:	320e0000 	orr	w0, w0, #0x40000
  9733ec:	b90ad440 	str	w0, [x2, #2772]
  9733f0:	a94153f3 	ldp	x19, x20, [sp, #16]
  9733f4:	52800000 	mov	w0, #0x0                   	// #0
  9733f8:	a9425bf5 	ldp	x21, x22, [sp, #32]
  9733fc:	a94363f7 	ldp	x23, x24, [sp, #48]
  973400:	a9446bf9 	ldp	x25, x26, [sp, #64]
  973404:	a94573fb 	ldp	x27, x28, [sp, #80]
  973408:	a8c97bfd 	ldp	x29, x30, [sp], #144
  97340c:	d65f03c0 	ret
  973410:	2a1403e0 	mov	w0, w20
  973414:	aa1603e2 	mov	x2, x22
  973418:	52800041 	mov	w1, #0x2                   	// #2
  97341c:	97fffb87 	bl	972238 <psci_get_parent_pwr_domain_nodes>
  973420:	b9408fe4 	ldr	w4, [sp, #140]
  973424:	6b19009f 	cmp	w4, w25
  973428:	2a0403e0 	mov	w0, w4
  97342c:	54000060 	b.eq	973438 <psci_setup+0x2f4>  // b.none
  973430:	d37cec01 	lsl	x1, x0, #4
  973434:	b8216b54 	str	w20, [x26, x1]
  973438:	f9455662 	ldr	x2, [x19, #2728]
  97343c:	b9408be3 	ldr	w3, [sp, #136]
  973440:	8b001040 	add	x0, x2, x0, lsl #4
  973444:	6b03031f 	cmp	w24, w3
  973448:	b9400401 	ldr	w1, [x0, #4]
  97344c:	11000421 	add	w1, w1, #0x1
  973450:	b9000401 	str	w1, [x0, #4]
  973454:	2a0303e0 	mov	w0, w3
  973458:	54000060 	b.eq	973464 <psci_setup+0x320>  // b.none
  97345c:	d37cec01 	lsl	x1, x0, #4
  973460:	b8216854 	str	w20, [x2, x1]
  973464:	f9455661 	ldr	x1, [x19, #2728]
  973468:	11000694 	add	w20, w20, #0x1
  97346c:	2a0403f9 	mov	w25, w4
  973470:	2a0303f8 	mov	w24, w3
  973474:	8b001021 	add	x1, x1, x0, lsl #4
  973478:	b9400420 	ldr	w0, [x1, #4]
  97347c:	11000400 	add	w0, w0, #0x1
  973480:	b9000420 	str	w0, [x1, #4]
  973484:	17ffff8b 	b	9732b0 <psci_setup+0x16c>

0000000000973488 <psci_cpu_suspend_start>:
  973488:	a9b87bfd 	stp	x29, x30, [sp, #-128]!
  97348c:	910003fd 	mov	x29, sp
  973490:	a90153f3 	stp	x19, x20, [sp, #16]
  973494:	2a0103f4 	mov	w20, w1
  973498:	a9025bf5 	stp	x21, x22, [sp, #32]
  97349c:	2a0303f6 	mov	w22, w3
  9734a0:	aa0203f5 	mov	x21, x2
  9734a4:	a90363f7 	stp	x23, x24, [sp, #48]
  9734a8:	a9046bf9 	stp	x25, x26, [sp, #64]
  9734ac:	9101c3f9 	add	x25, sp, #0x70
  9734b0:	aa0003fa 	mov	x26, x0
  9734b4:	a90573fb 	stp	x27, x28, [sp, #80]
  9734b8:	94001494 	bl	978708 <plat_my_core_pos>
  9734bc:	aa1903e2 	mov	x2, x25
  9734c0:	2a0003f8 	mov	w24, w0
  9734c4:	2a1403e1 	mov	w1, w20
  9734c8:	f9003bff 	str	xzr, [sp, #112]
  9734cc:	97fffb5b 	bl	972238 <psci_get_parent_pwr_domain_nodes>
  9734d0:	aa1903e1 	mov	x1, x25
  9734d4:	2a1403e0 	mov	w0, w20
  9734d8:	97fffbf1 	bl	97249c <psci_acquire_pwr_domain_locks>
  9734dc:	d538c100 	mrs	x0, isr_el1
  9734e0:	b50007a0 	cbnz	x0, 9735d4 <psci_cpu_suspend_start+0x14c>
  9734e4:	aa1503e1 	mov	x1, x21
  9734e8:	2a1403e0 	mov	w0, w20
  9734ec:	97fffb84 	bl	9722fc <psci_do_state_coordination>
  9734f0:	d0000033 	adrp	x19, 979000 <imx_mmap>
  9734f4:	aa1503e1 	mov	x1, x21
  9734f8:	2a1403e0 	mov	w0, w20
  9734fc:	97fffb30 	bl	9721bc <psci_set_target_local_pwr_states>
  973500:	340003f6 	cbz	w22, 97357c <psci_cpu_suspend_start+0xf4>
  973504:	aa1503e0 	mov	x0, x21
  973508:	97fffbc5 	bl	97241c <psci_find_max_off_lvl>
  97350c:	f945727b 	ldr	x27, [x19, #2784]
  973510:	2a0003f7 	mov	w23, w0
  973514:	f9452e7c 	ldr	x28, [x19, #2648]
  973518:	eb1c037f 	cmp	x27, x28
  97351c:	54000543 	b.cc	9735c4 <psci_cpu_suspend_start+0x13c>  // b.lo, b.ul, b.last
  973520:	d53ed040 	mrs	x0, tpidr_el3
  973524:	b9001c14 	str	w20, [x0, #28]
  973528:	d53ed040 	mrs	x0, tpidr_el3
  97352c:	d2800081 	mov	x1, #0x4                   	// #4
  973530:	91007000 	add	x0, x0, #0x1c
  973534:	940011ee 	bl	977cec <flush_dcache_range>
  973538:	f945a260 	ldr	x0, [x19, #2880]
  97353c:	f9400000 	ldr	x0, [x0]
  973540:	b40000a0 	cbz	x0, 973554 <psci_cpu_suspend_start+0xcc>
  973544:	f9400801 	ldr	x1, [x0, #16]
  973548:	b4000061 	cbz	x1, 973554 <psci_cpu_suspend_start+0xcc>
  97354c:	2a1703e0 	mov	w0, w23
  973550:	d63f0020 	blr	x1
  973554:	f9456e60 	ldr	x0, [x19, #2776]
  973558:	f9400000 	ldr	x0, [x0]
  97355c:	f9401001 	ldr	x1, [x0, #32]
  973560:	b4000061 	cbz	x1, 97356c <psci_cpu_suspend_start+0xe4>
  973564:	aa1503e0 	mov	x0, x21
  973568:	d63f0020 	blr	x1
  97356c:	aa1a03e0 	mov	x0, x26
  973570:	97fff9b8 	bl	971c50 <cm_init_my_context>
  973574:	2a1703e0 	mov	w0, w23
  973578:	97fffc89 	bl	97279c <psci_pwrdown_cpu>
  97357c:	f9456e73 	ldr	x19, [x19, #2776]
  973580:	f9400260 	ldr	x0, [x19]
  973584:	52800013 	mov	w19, #0x0                   	// #0
  973588:	f9401401 	ldr	x1, [x0, #40]
  97358c:	aa1503e0 	mov	x0, x21
  973590:	d63f0020 	blr	x1
  973594:	aa1903e1 	mov	x1, x25
  973598:	2a1403e0 	mov	w0, w20
  97359c:	97fffbdb 	bl	972508 <psci_release_pwr_domain_locks>
  9735a0:	35000513 	cbnz	w19, 973640 <psci_cpu_suspend_start+0x1b8>
  9735a4:	d0000033 	adrp	x19, 979000 <imx_mmap>
  9735a8:	340001d6 	cbz	w22, 9735e0 <psci_cpu_suspend_start+0x158>
  9735ac:	f9456e64 	ldr	x4, [x19, #2776]
  9735b0:	f9400080 	ldr	x0, [x4]
  9735b4:	f9402401 	ldr	x1, [x0, #72]
  9735b8:	b4000121 	cbz	x1, 9735dc <psci_cpu_suspend_start+0x154>
  9735bc:	aa1503e0 	mov	x0, x21
  9735c0:	d63f0020 	blr	x1
  9735c4:	f8408761 	ldr	x1, [x27], #8
  9735c8:	d2800000 	mov	x0, #0x0                   	// #0
  9735cc:	d63f0020 	blr	x1
  9735d0:	17ffffd2 	b	973518 <psci_cpu_suspend_start+0x90>
  9735d4:	52800033 	mov	w19, #0x1                   	// #1
  9735d8:	17ffffef 	b	973594 <psci_cpu_suspend_start+0x10c>
  9735dc:	9400141d 	bl	978650 <psci_power_down_wfi>
  9735e0:	d503207f 	wfi
  9735e4:	9101e3f5 	add	x21, sp, #0x78
  9735e8:	2a1403e1 	mov	w1, w20
  9735ec:	aa1503e2 	mov	x2, x21
  9735f0:	2a1803e0 	mov	w0, w24
  9735f4:	f9003fff 	str	xzr, [sp, #120]
  9735f8:	97fffb10 	bl	972238 <psci_get_parent_pwr_domain_nodes>
  9735fc:	9101a3f6 	add	x22, sp, #0x68
  973600:	aa1503e1 	mov	x1, x21
  973604:	2a1403e0 	mov	w0, w20
  973608:	97fffba5 	bl	97249c <psci_acquire_pwr_domain_locks>
  97360c:	aa1603e1 	mov	x1, x22
  973610:	2a1403e0 	mov	w0, w20
  973614:	97fffac8 	bl	972134 <psci_get_target_local_pwr_states>
  973618:	f9456e64 	ldr	x4, [x19, #2776]
  97361c:	f9400080 	ldr	x0, [x4]
  973620:	f9402001 	ldr	x1, [x0, #64]
  973624:	aa1603e0 	mov	x0, x22
  973628:	d63f0020 	blr	x1
  97362c:	2a1403e0 	mov	w0, w20
  973630:	97fffb12 	bl	972278 <psci_set_pwr_domains_to_run>
  973634:	aa1503e1 	mov	x1, x21
  973638:	2a1403e0 	mov	w0, w20
  97363c:	97fffbb3 	bl	972508 <psci_release_pwr_domain_locks>
  973640:	a94153f3 	ldp	x19, x20, [sp, #16]
  973644:	52800000 	mov	w0, #0x0                   	// #0
  973648:	a9425bf5 	ldp	x21, x22, [sp, #32]
  97364c:	a94363f7 	ldp	x23, x24, [sp, #48]
  973650:	a9446bf9 	ldp	x25, x26, [sp, #64]
  973654:	a94573fb 	ldp	x27, x28, [sp, #80]
  973658:	a8c87bfd 	ldp	x29, x30, [sp], #128
  97365c:	d65f03c0 	ret

0000000000973660 <psci_cpu_suspend_finish>:
  973660:	a9bd7bfd 	stp	x29, x30, [sp, #-48]!
  973664:	910003fd 	mov	x29, sp
  973668:	a90153f3 	stp	x19, x20, [sp, #16]
  97366c:	d0000033 	adrp	x19, 979000 <imx_mmap>
  973670:	f9456e60 	ldr	x0, [x19, #2776]
  973674:	a9025bf5 	stp	x21, x22, [sp, #32]
  973678:	aa0103f5 	mov	x21, x1
  97367c:	f9400000 	ldr	x0, [x0]
  973680:	f9402001 	ldr	x1, [x0, #64]
  973684:	aa1503e0 	mov	x0, x21
  973688:	d63f0020 	blr	x1
  97368c:	940013e4 	bl	97861c <psci_do_pwrup_cache_maintenance>
  973690:	94000e0f 	bl	976ecc <plat_get_syscnt_freq2>
  973694:	2a0003e0 	mov	w0, w0
  973698:	d51be000 	msr	cntfrq_el0, x0
  97369c:	f945a276 	ldr	x22, [x19, #2880]
  9736a0:	aa1303f4 	mov	x20, x19
  9736a4:	f94002c0 	ldr	x0, [x22]
  9736a8:	b4000120 	cbz	x0, 9736cc <psci_cpu_suspend_finish+0x6c>
  9736ac:	f9401000 	ldr	x0, [x0, #32]
  9736b0:	b40000e0 	cbz	x0, 9736cc <psci_cpu_suspend_finish+0x6c>
  9736b4:	aa1503e0 	mov	x0, x21
  9736b8:	97fffb59 	bl	97241c <psci_find_max_off_lvl>
  9736bc:	f94002c1 	ldr	x1, [x22]
  9736c0:	2a0003e0 	mov	w0, w0
  9736c4:	f9401021 	ldr	x1, [x1, #32]
  9736c8:	d63f0020 	blr	x1
  9736cc:	d53ed040 	mrs	x0, tpidr_el3
  9736d0:	f9459295 	ldr	x21, [x20, #2848]
  9736d4:	52800061 	mov	w1, #0x3                   	// #3
  9736d8:	f9451e94 	ldr	x20, [x20, #2616]
  9736dc:	b9001c01 	str	w1, [x0, #28]
  9736e0:	eb1402bf 	cmp	x21, x20
  9736e4:	540000a3 	b.cc	9736f8 <psci_cpu_suspend_finish+0x98>  // b.lo, b.ul, b.last
  9736e8:	a94153f3 	ldp	x19, x20, [sp, #16]
  9736ec:	a9425bf5 	ldp	x21, x22, [sp, #32]
  9736f0:	a8c37bfd 	ldp	x29, x30, [sp], #48
  9736f4:	d65f03c0 	ret
  9736f8:	f84086a1 	ldr	x1, [x21], #8
  9736fc:	d2800000 	mov	x0, #0x0                   	// #0
  973700:	d63f0020 	blr	x1
  973704:	17fffff7 	b	9736e0 <psci_cpu_suspend_finish+0x80>

0000000000973708 <psci_system_off>:
  973708:	a9bf7bfd 	stp	x29, x30, [sp, #-16]!
  97370c:	910003fd 	mov	x29, sp
  973710:	97fffc22 	bl	972798 <psci_print_power_domain_map>
  973714:	d0000020 	adrp	x0, 979000 <imx_mmap>
  973718:	f945a000 	ldr	x0, [x0, #2880]
  97371c:	f9400000 	ldr	x0, [x0]
  973720:	b4000080 	cbz	x0, 973730 <psci_system_off+0x28>
  973724:	f9401c00 	ldr	x0, [x0, #56]
  973728:	b4000040 	cbz	x0, 973730 <psci_system_off+0x28>
  97372c:	d63f0000 	blr	x0
  973730:	97fff864 	bl	9718c0 <console_flush>
  973734:	d0000020 	adrp	x0, 979000 <imx_mmap>
  973738:	f9456c00 	ldr	x0, [x0, #2776]
  97373c:	f9400000 	ldr	x0, [x0]
  973740:	f9402800 	ldr	x0, [x0, #80]
  973744:	d63f0000 	blr	x0

0000000000973748 <psci_system_reset>:
  973748:	a9bf7bfd 	stp	x29, x30, [sp, #-16]!
  97374c:	910003fd 	mov	x29, sp
  973750:	97fffc12 	bl	972798 <psci_print_power_domain_map>
  973754:	d0000020 	adrp	x0, 979000 <imx_mmap>
  973758:	f945a000 	ldr	x0, [x0, #2880]
  97375c:	f9400000 	ldr	x0, [x0]
  973760:	b4000080 	cbz	x0, 973770 <psci_system_reset+0x28>
  973764:	f9402000 	ldr	x0, [x0, #64]
  973768:	b4000040 	cbz	x0, 973770 <psci_system_reset+0x28>
  97376c:	d63f0000 	blr	x0
  973770:	97fff854 	bl	9718c0 <console_flush>
  973774:	d0000020 	adrp	x0, 979000 <imx_mmap>
  973778:	f9456c00 	ldr	x0, [x0, #2776]
  97377c:	f9400000 	ldr	x0, [x0]
  973780:	f9402c00 	ldr	x0, [x0, #88]
  973784:	d63f0000 	blr	x0

0000000000973788 <psci_system_reset2>:
  973788:	a9bd7bfd 	stp	x29, x30, [sp, #-48]!
  97378c:	910003fd 	mov	x29, sp
  973790:	a90153f3 	stp	x19, x20, [sp, #16]
  973794:	2a0003f3 	mov	w19, w0
  973798:	aa0103f4 	mov	x20, x1
  97379c:	f90013f5 	str	x21, [sp, #32]
  9737a0:	531f7e75 	lsr	w21, w19, #31
  9737a4:	97fffbfd 	bl	972798 <psci_print_power_domain_map>
  9737a8:	36f80273 	tbz	w19, #31, 9737f4 <psci_system_reset2+0x6c>
  9737ac:	d0000023 	adrp	x3, 979000 <imx_mmap>
  9737b0:	f945a063 	ldr	x3, [x3, #2880]
  9737b4:	f9400060 	ldr	x0, [x3]
  9737b8:	b5000340 	cbnz	x0, 973820 <psci_system_reset2+0x98>
  9737bc:	97fff841 	bl	9718c0 <console_flush>
  9737c0:	d0000023 	adrp	x3, 979000 <imx_mmap>
  9737c4:	aa1403e2 	mov	x2, x20
  9737c8:	2a1303e1 	mov	w1, w19
  9737cc:	f9456c63 	ldr	x3, [x3, #2776]
  9737d0:	f9400060 	ldr	x0, [x3]
  9737d4:	f9405403 	ldr	x3, [x0, #168]
  9737d8:	2a1503e0 	mov	w0, w21
  9737dc:	d63f0060 	blr	x3
  9737e0:	93407c00 	sxtw	x0, w0
  9737e4:	a94153f3 	ldp	x19, x20, [sp, #16]
  9737e8:	f94013f5 	ldr	x21, [sp, #32]
  9737ec:	a8c37bfd 	ldp	x29, x30, [sp], #48
  9737f0:	d65f03c0 	ret
  9737f4:	350001f3 	cbnz	w19, 973830 <psci_system_reset2+0xa8>
  9737f8:	d0000023 	adrp	x3, 979000 <imx_mmap>
  9737fc:	f9456c63 	ldr	x3, [x3, #2776]
  973800:	f9400060 	ldr	x0, [x3]
  973804:	f9405001 	ldr	x1, [x0, #160]
  973808:	b4fffd21 	cbz	x1, 9737ac <psci_system_reset2+0x24>
  97380c:	52800000 	mov	w0, #0x0                   	// #0
  973810:	d63f0020 	blr	x1
  973814:	36fffcc0 	tbz	w0, #31, 9737ac <psci_system_reset2+0x24>
  973818:	92800000 	mov	x0, #0xffffffffffffffff    	// #-1
  97381c:	17fffff2 	b	9737e4 <psci_system_reset2+0x5c>
  973820:	f9402000 	ldr	x0, [x0, #64]
  973824:	b4fffcc0 	cbz	x0, 9737bc <psci_system_reset2+0x34>
  973828:	d63f0000 	blr	x0
  97382c:	17ffffe4 	b	9737bc <psci_system_reset2+0x34>
  973830:	92800020 	mov	x0, #0xfffffffffffffffe    	// #-2
  973834:	17ffffec 	b	9737e4 <psci_system_reset2+0x5c>

0000000000973838 <xlat_arch_get_pas>:
  973838:	121c0400 	and	w0, w0, #0x30
  97383c:	7100401f 	cmp	w0, #0x10
  973840:	1a9f17e0 	cset	w0, eq	// eq = none
  973844:	531b6800 	lsl	w0, w0, #5
  973848:	d65f03c0 	ret

000000000097384c <tcr_physical_addr_size_bits>:
  97384c:	f2540c1f 	tst	x0, #0xf00000000000
  973850:	54000141 	b.ne	973878 <tcr_physical_addr_size_bits+0x2c>  // b.any
  973854:	f256041f 	tst	x0, #0xc0000000000
  973858:	54000141 	b.ne	973880 <tcr_physical_addr_size_bits+0x34>  // b.any
  97385c:	f258041f 	tst	x0, #0x30000000000
  973860:	54000141 	b.ne	973888 <tcr_physical_addr_size_bits+0x3c>  // b.any
  973864:	f25c0c1f 	tst	x0, #0xf000000000
  973868:	54000141 	b.ne	973890 <tcr_physical_addr_size_bits+0x44>  // b.any
  97386c:	f2600c1f 	tst	x0, #0xf00000000
  973870:	9a9f07e0 	cset	x0, ne	// ne = any
  973874:	d65f03c0 	ret
  973878:	d28000a0 	mov	x0, #0x5                   	// #5
  97387c:	17fffffe 	b	973874 <tcr_physical_addr_size_bits+0x28>
  973880:	d2800080 	mov	x0, #0x4                   	// #4
  973884:	17fffffc 	b	973874 <tcr_physical_addr_size_bits+0x28>
  973888:	d2800060 	mov	x0, #0x3                   	// #3
  97388c:	17fffffa 	b	973874 <tcr_physical_addr_size_bits+0x28>
  973890:	d2800040 	mov	x0, #0x2                   	// #2
  973894:	17fffff8 	b	973874 <tcr_physical_addr_size_bits+0x28>

0000000000973898 <is_dcache_enabled>:
  973898:	d53e1000 	mrs	x0, sctlr_el3
  97389c:	53020800 	ubfx	w0, w0, #2, #1
  9738a0:	d65f03c0 	ret

00000000009738a4 <xlat_arch_regime_get_xn_desc>:
  9738a4:	7100041f 	cmp	w0, #0x1
  9738a8:	d2e00801 	mov	x1, #0x40000000000000      	// #18014398509481984
  9738ac:	d2e00c00 	mov	x0, #0x60000000000000      	// #27021597764222976
  9738b0:	9a801020 	csel	x0, x1, x0, ne	// ne = any
  9738b4:	d65f03c0 	ret

00000000009738b8 <xlat_arch_current_el>:
  9738b8:	d5384240 	mrs	x0, currentel
  9738bc:	53020c00 	ubfx	w0, w0, #2, #2
  9738c0:	d65f03c0 	ret

00000000009738c4 <setup_mmu_cfg>:
  9738c4:	91000484 	add	x4, x4, #0x1
  9738c8:	a9bf7bfd 	stp	x29, x30, [sp, #-16]!
  9738cc:	dac00087 	rbit	x7, x4
  9738d0:	910003fd 	mov	x29, sp
  9738d4:	dac010e7 	clz	x7, x7
  9738d8:	aa0003e6 	mov	x6, x0
  9738dc:	52800804 	mov	w4, #0x40                  	// #64
  9738e0:	aa0303e0 	mov	x0, x3
  9738e4:	4b070084 	sub	w4, w4, w7
  9738e8:	37080061 	tbnz	w1, #1, 9738f4 <setup_mmu_cfg+0x30>
  9738ec:	5286a001 	mov	w1, #0x3500                	// #13568
  9738f0:	2a010084 	orr	w4, w4, w1
  9738f4:	93407c84 	sxtw	x4, w4
  9738f8:	97ffffd5 	bl	97384c <tcr_physical_addr_size_bits>
  9738fc:	aa008083 	orr	x3, x4, x0, lsl #32
  973900:	aa004081 	orr	x1, x4, x0, lsl #16
  973904:	b2690063 	orr	x3, x3, #0x800000
  973908:	d2b01000 	mov	x0, #0x80800000            	// #2155872256
  97390c:	710004bf 	cmp	w5, #0x1
  973910:	aa000021 	orr	x1, x1, x0
  973914:	9a831021 	csel	x1, x1, x3, ne	// ne = any
  973918:	d5380740 	mrs	x0, id_aa64mmfr2_el1
  97391c:	f2400c1f 	tst	x0, #0xf
  973920:	54000040 	b.eq	973928 <setup_mmu_cfg+0x64>  // b.none
  973924:	b2400042 	orr	x2, x2, #0x1
  973928:	d2809fe0 	mov	x0, #0x4ff                 	// #1279
  97392c:	a8c17bfd 	ldp	x29, x30, [sp], #16
  973930:	f2a00880 	movk	x0, #0x44, lsl #16
  973934:	a90004c0 	stp	x0, x1, [x6]
  973938:	f90008c2 	str	x2, [x6, #16]
  97393c:	d65f03c0 	ret

0000000000973940 <mmap_add>:
  973940:	aa0003e1 	mov	x1, x0
  973944:	90000040 	adrp	x0, 97b000 <__RO_END__>
  973948:	91004000 	add	x0, x0, #0x10
  97394c:	1400017b 	b	973f38 <mmap_add_ctx>

0000000000973950 <init_xlat_tables>:
  973950:	a9bf7bfd 	stp	x29, x30, [sp, #-16]!
  973954:	910003fd 	mov	x29, sp
  973958:	97ffffd8 	bl	9738b8 <xlat_arch_current_el>
  97395c:	7100041f 	cmp	w0, #0x1
  973960:	54000120 	b.eq	973984 <init_xlat_tables+0x34>  // b.none
  973964:	7100081f 	cmp	w0, #0x2
  973968:	1a9f07e0 	cset	w0, ne	// ne = any
  97396c:	11000801 	add	w1, w0, #0x2
  973970:	90000040 	adrp	x0, 97b000 <__RO_END__>
  973974:	91004000 	add	x0, x0, #0x10
  973978:	b9005801 	str	w1, [x0, #88]
  97397c:	a8c17bfd 	ldp	x29, x30, [sp], #16
  973980:	1400017d 	b	973f74 <init_xlat_tables_ctx>
  973984:	2a0003e1 	mov	w1, w0
  973988:	17fffffa 	b	973970 <init_xlat_tables+0x20>

000000000097398c <enable_mmu_el3>:
  97398c:	90000042 	adrp	x2, 97b000 <__RO_END__>
  973990:	91004042 	add	x2, x2, #0x10
  973994:	a9be7bfd 	stp	x29, x30, [sp, #-32]!
  973998:	2a0003e1 	mov	w1, w0
  97399c:	52800065 	mov	w5, #0x3                   	// #3
  9739a0:	910003fd 	mov	x29, sp
  9739a4:	f9400444 	ldr	x4, [x2, #8]
  9739a8:	f9402043 	ldr	x3, [x2, #64]
  9739ac:	f9401842 	ldr	x2, [x2, #48]
  9739b0:	f9000bf3 	str	x19, [sp, #16]
  9739b4:	2a0003f3 	mov	w19, w0
  9739b8:	b0000060 	adrp	x0, 980000 <tf_mmap+0x270>
  9739bc:	9100e000 	add	x0, x0, #0x38
  9739c0:	97ffffc1 	bl	9738c4 <setup_mmu_cfg>
  9739c4:	2a1303e0 	mov	w0, w19
  9739c8:	f9400bf3 	ldr	x19, [sp, #16]
  9739cc:	a8c27bfd 	ldp	x29, x30, [sp], #32
  9739d0:	14001323 	b	97865c <enable_mmu_direct_el3>

00000000009739d4 <xlat_clean_dcache_range>:
  9739d4:	a9be7bfd 	stp	x29, x30, [sp, #-32]!
  9739d8:	910003fd 	mov	x29, sp
  9739dc:	a90153f3 	stp	x19, x20, [sp, #16]
  9739e0:	aa0003f3 	mov	x19, x0
  9739e4:	aa0103f4 	mov	x20, x1
  9739e8:	97ffffac 	bl	973898 <is_dcache_enabled>
  9739ec:	360000c0 	tbz	w0, #0, 973a04 <xlat_clean_dcache_range+0x30>
  9739f0:	aa1403e1 	mov	x1, x20
  9739f4:	aa1303e0 	mov	x0, x19
  9739f8:	a94153f3 	ldp	x19, x20, [sp, #16]
  9739fc:	a8c27bfd 	ldp	x29, x30, [sp], #32
  973a00:	140010c9 	b	977d24 <clean_dcache_range>
  973a04:	a94153f3 	ldp	x19, x20, [sp, #16]
  973a08:	a8c27bfd 	ldp	x29, x30, [sp], #32
  973a0c:	d65f03c0 	ret

0000000000973a10 <xlat_desc>:
  973a10:	a9bc7bfd 	stp	x29, x30, [sp, #-64]!
  973a14:	71000c7f 	cmp	w3, #0x3
  973a18:	910003fd 	mov	x29, sp
  973a1c:	a90153f3 	stp	x19, x20, [sp, #16]
  973a20:	2a0103f4 	mov	w20, w1
  973a24:	d27d0293 	eor	x19, x20, #0x8
  973a28:	a9025bf5 	stp	x21, x22, [sp, #32]
  973a2c:	aa0003f5 	mov	x21, x0
  973a30:	d3430e73 	ubfx	x19, x19, #3, #1
  973a34:	2a0103e0 	mov	w0, w1
  973a38:	d2800076 	mov	x22, #0x3                   	// #3
  973a3c:	9a9f06d6 	csinc	x22, x22, xzr, eq	// eq = none
  973a40:	f9001bf7 	str	x23, [sp, #48]
  973a44:	aa0203f7 	mov	x23, x2
  973a48:	97ffff7c 	bl	973838 <xlat_arch_get_pas>
  973a4c:	2a0003e1 	mov	w1, w0
  973a50:	b9405aa0 	ldr	w0, [x21, #88]
  973a54:	aa131ef3 	orr	x19, x23, x19, lsl #7
  973a58:	aa160021 	orr	x1, x1, x22
  973a5c:	aa010273 	orr	x19, x19, x1
  973a60:	7100041f 	cmp	w0, #0x1
  973a64:	540001a1 	b.ne	973a98 <xlat_desc+0x88>  // b.any
  973a68:	b2760261 	orr	x1, x19, #0x400
  973a6c:	f279029f 	tst	x20, #0x80
  973a70:	d2808802 	mov	x2, #0x440                 	// #1088
  973a74:	aa020273 	orr	x19, x19, x2
  973a78:	9a811273 	csel	x19, x19, x1, ne	// ne = any
  973a7c:	72000a95 	ands	w21, w20, #0x7
  973a80:	54000121 	b.ne	973aa4 <xlat_desc+0x94>  // b.any
  973a84:	97ffff88 	bl	9738a4 <xlat_arch_regime_get_xn_desc>
  973a88:	aa000273 	orr	x19, x19, x0
  973a8c:	d2804080 	mov	x0, #0x204                 	// #516
  973a90:	aa000273 	orr	x19, x19, x0
  973a94:	14000012 	b	973adc <xlat_desc+0xcc>
  973a98:	d2808801 	mov	x1, #0x440                 	// #1088
  973a9c:	aa010273 	orr	x19, x19, x1
  973aa0:	17fffff7 	b	973a7c <xlat_desc+0x6c>
  973aa4:	52800901 	mov	w1, #0x48                  	// #72
  973aa8:	6a01029f 	tst	w20, w1
  973aac:	54000060 	b.eq	973ab8 <xlat_desc+0xa8>  // b.none
  973ab0:	97ffff7d 	bl	9738a4 <xlat_arch_regime_get_xn_desc>
  973ab4:	aa000273 	orr	x19, x19, x0
  973ab8:	71000abf 	cmp	w21, #0x2
  973abc:	540001c1 	b.ne	973af4 <xlat_desc+0xe4>  // b.any
  973ac0:	12180694 	and	w20, w20, #0x300
  973ac4:	710c029f 	cmp	w20, #0x300
  973ac8:	540000a0 	b.eq	973adc <xlat_desc+0xcc>  // b.none
  973acc:	b2770260 	orr	x0, x19, #0x200
  973ad0:	7108029f 	cmp	w20, #0x200
  973ad4:	b2780673 	orr	x19, x19, #0x300
  973ad8:	9a801273 	csel	x19, x19, x0, ne	// ne = any
  973adc:	a9425bf5 	ldp	x21, x22, [sp, #32]
  973ae0:	aa1303e0 	mov	x0, x19
  973ae4:	a94153f3 	ldp	x19, x20, [sp, #16]
  973ae8:	f9401bf7 	ldr	x23, [sp, #48]
  973aec:	a8c47bfd 	ldp	x29, x30, [sp], #64
  973af0:	d65f03c0 	ret
  973af4:	d2804100 	mov	x0, #0x208                 	// #520
  973af8:	17ffffe6 	b	973a90 <xlat_desc+0x80>

0000000000973afc <xlat_tables_map_region>:
  973afc:	a9b87bfd 	stp	x29, x30, [sp, #-128]!
  973b00:	910003fd 	mov	x29, sp
  973b04:	a9025bf5 	stp	x21, x22, [sp, #32]
  973b08:	12800115 	mov	w21, #0xfffffff7            	// #-9
  973b0c:	d2800036 	mov	x22, #0x1                   	// #1
  973b10:	a90363f7 	stp	x23, x24, [sp, #48]
  973b14:	1b157cb5 	mul	w21, w5, w21
  973b18:	2a0503f8 	mov	w24, w5
  973b1c:	a9046bf9 	stp	x25, x26, [sp, #64]
  973b20:	aa0003f9 	mov	x25, x0
  973b24:	11009eb5 	add	w21, w21, #0x27
  973b28:	a940dc20 	ldp	x0, x23, [x1, #8]
  973b2c:	9ad522d6 	lsl	x22, x22, x21
  973b30:	a90153f3 	stp	x19, x20, [sp, #16]
  973b34:	cb1603f3 	neg	x19, x22
  973b38:	a90573fb 	stp	x27, x28, [sp, #80]
  973b3c:	aa0103fb 	mov	x27, x1
  973b40:	8a000273 	and	x19, x19, x0
  973b44:	eb02001f 	cmp	x0, x2
  973b48:	9a828273 	csel	x19, x19, x2, hi	// hi = pmore
  973b4c:	8b170017 	add	x23, x0, x23
  973b50:	cb020274 	sub	x20, x19, x2
  973b54:	d10006e1 	sub	x1, x23, #0x1
  973b58:	110004a0 	add	w0, w5, #0x1
  973b5c:	a90607f3 	stp	x19, x1, [sp, #96]
  973b60:	9ad52694 	lsr	x20, x20, x21
  973b64:	2a1403f7 	mov	w23, w20
  973b68:	8b344c74 	add	x20, x3, w20, uxtw #3
  973b6c:	290e03e4 	stp	w4, w0, [sp, #112]
  973b70:	b94073e0 	ldr	w0, [sp, #112]
  973b74:	6b0002ff 	cmp	w23, w0
  973b78:	540003a2 	b.cs	973bec <xlat_tables_map_region+0xf0>  // b.hs, b.nlast
  973b7c:	a9401362 	ldp	x2, x4, [x27]
  973b80:	8b1302da 	add	x26, x22, x19
  973b84:	f9400b61 	ldr	x1, [x27, #16]
  973b88:	d100075c 	sub	x28, x26, #0x1
  973b8c:	f9400283 	ldr	x3, [x20]
  973b90:	f94033e5 	ldr	x5, [sp, #96]
  973b94:	8b010081 	add	x1, x4, x1
  973b98:	12000460 	and	w0, w3, #0x3
  973b9c:	d1000421 	sub	x1, x1, #0x1
  973ba0:	eb05009f 	cmp	x4, x5
  973ba4:	540007c8 	b.hi	973c9c <xlat_tables_map_region+0x1a0>  // b.pmore
  973ba8:	eb01039f 	cmp	x28, x1
  973bac:	54000788 	b.hi	973c9c <xlat_tables_map_region+0x1a0>  // b.pmore
  973bb0:	cb040042 	sub	x2, x2, x4
  973bb4:	8b130042 	add	x2, x2, x19
  973bb8:	71000f1f 	cmp	w24, #0x3
  973bbc:	540001c1 	b.ne	973bf4 <xlat_tables_map_region+0xf8>  // b.any
  973bc0:	71000c1f 	cmp	w0, #0x3
  973bc4:	54000961 	b.ne	973cf0 <xlat_tables_map_region+0x1f4>  // b.any
  973bc8:	f94033e0 	ldr	x0, [sp, #96]
  973bcc:	110006f7 	add	w23, w23, #0x1
  973bd0:	91002294 	add	x20, x20, #0x8
  973bd4:	aa1a03f3 	mov	x19, x26
  973bd8:	8b160000 	add	x0, x0, x22
  973bdc:	f90033e0 	str	x0, [sp, #96]
  973be0:	f94037e0 	ldr	x0, [sp, #104]
  973be4:	eb1a001f 	cmp	x0, x26
  973be8:	54fffc48 	b.hi	973b70 <xlat_tables_map_region+0x74>  // b.pmore
  973bec:	d1000673 	sub	x19, x19, #0x1
  973bf0:	14000023 	b	973c7c <xlat_tables_map_region+0x180>
  973bf4:	71000c1f 	cmp	w0, #0x3
  973bf8:	540005e0 	b.eq	973cb4 <xlat_tables_map_region+0x1b8>  // b.none
  973bfc:	35fffe60 	cbnz	w0, 973bc8 <xlat_tables_map_region+0xcc>
  973c00:	92800000 	mov	x0, #0xffffffffffffffff    	// #-1
  973c04:	9ad52000 	lsl	x0, x0, x21
  973c08:	ea20005f 	bics	xzr, x2, x0
  973c0c:	540000a1 	b.ne	973c20 <xlat_tables_map_region+0x124>  // b.any
  973c10:	34000098 	cbz	w24, 973c20 <xlat_tables_map_region+0x124>
  973c14:	f9401360 	ldr	x0, [x27, #32]
  973c18:	9ad52400 	lsr	x0, x0, x21
  973c1c:	b50006a0 	cbnz	x0, 973cf0 <xlat_tables_map_region+0x1f4>
  973c20:	b9402f20 	ldr	w0, [x25, #44]
  973c24:	f9401323 	ldr	x3, [x25, #32]
  973c28:	11000401 	add	w1, w0, #0x1
  973c2c:	b9002f21 	str	w1, [x25, #44]
  973c30:	93747c00 	sbfiz	x0, x0, #12, #32
  973c34:	ab000063 	adds	x3, x3, x0
  973c38:	54000220 	b.eq	973c7c <xlat_tables_map_region+0x180>  // b.none
  973c3c:	b2400460 	orr	x0, x3, #0x3
  973c40:	f9000280 	str	x0, [x20]
  973c44:	aa1303e2 	mov	x2, x19
  973c48:	11000705 	add	w5, w24, #0x1
  973c4c:	aa1b03e1 	mov	x1, x27
  973c50:	52804004 	mov	w4, #0x200                 	// #512
  973c54:	aa1903e0 	mov	x0, x25
  973c58:	f9003fe3 	str	x3, [sp, #120]
  973c5c:	97ffffa8 	bl	973afc <xlat_tables_map_region>
  973c60:	aa0003f3 	mov	x19, x0
  973c64:	f9403fe3 	ldr	x3, [sp, #120]
  973c68:	d2820001 	mov	x1, #0x1000                	// #4096
  973c6c:	aa0303e0 	mov	x0, x3
  973c70:	97ffff59 	bl	9739d4 <xlat_clean_dcache_range>
  973c74:	eb13039f 	cmp	x28, x19
  973c78:	54fffa80 	b.eq	973bc8 <xlat_tables_map_region+0xcc>  // b.none
  973c7c:	a9425bf5 	ldp	x21, x22, [sp, #32]
  973c80:	aa1303e0 	mov	x0, x19
  973c84:	a94153f3 	ldp	x19, x20, [sp, #16]
  973c88:	a94363f7 	ldp	x23, x24, [sp, #48]
  973c8c:	a9446bf9 	ldp	x25, x26, [sp, #64]
  973c90:	a94573fb 	ldp	x27, x28, [sp, #80]
  973c94:	a8c87bfd 	ldp	x29, x30, [sp], #128
  973c98:	d65f03c0 	ret
  973c9c:	eb1c009f 	cmp	x4, x28
  973ca0:	54000089 	b.ls	973cb0 <xlat_tables_map_region+0x1b4>  // b.plast
  973ca4:	f94033e2 	ldr	x2, [sp, #96]
  973ca8:	eb01005f 	cmp	x2, x1
  973cac:	54fff8e8 	b.hi	973bc8 <xlat_tables_map_region+0xcc>  // b.pmore
  973cb0:	34fffb80 	cbz	w0, 973c20 <xlat_tables_map_region+0x124>
  973cb4:	b94077e5 	ldr	w5, [sp, #116]
  973cb8:	92748c63 	and	x3, x3, #0xfffffffff000
  973cbc:	aa1303e2 	mov	x2, x19
  973cc0:	aa1b03e1 	mov	x1, x27
  973cc4:	52804004 	mov	w4, #0x200                 	// #512
  973cc8:	aa1903e0 	mov	x0, x25
  973ccc:	f9003fe3 	str	x3, [sp, #120]
  973cd0:	97ffff8b 	bl	973afc <xlat_tables_map_region>
  973cd4:	aa0003f3 	mov	x19, x0
  973cd8:	f9403fe3 	ldr	x3, [sp, #120]
  973cdc:	d2820001 	mov	x1, #0x1000                	// #4096
  973ce0:	aa0303e0 	mov	x0, x3
  973ce4:	97ffff3c 	bl	9739d4 <xlat_clean_dcache_range>
  973ce8:	eb1c027f 	cmp	x19, x28
  973cec:	17ffffe3 	b	973c78 <xlat_tables_map_region+0x17c>
  973cf0:	b9401b61 	ldr	w1, [x27, #24]
  973cf4:	2a1803e3 	mov	w3, w24
  973cf8:	aa1903e0 	mov	x0, x25
  973cfc:	97ffff45 	bl	973a10 <xlat_desc>
  973d00:	f9000280 	str	x0, [x20]
  973d04:	17ffffb1 	b	973bc8 <xlat_tables_map_region+0xcc>

0000000000973d08 <mmap_add_region_ctx>:
  973d08:	a9bc7bfd 	stp	x29, x30, [sp, #-64]!
  973d0c:	910003fd 	mov	x29, sp
  973d10:	f9400824 	ldr	x4, [x1, #16]
  973d14:	a90153f3 	stp	x19, x20, [sp, #16]
  973d18:	b9401809 	ldr	w9, [x0, #24]
  973d1c:	f9400802 	ldr	x2, [x0, #16]
  973d20:	aa0003f3 	mov	x19, x0
  973d24:	a9400025 	ldp	x5, x0, [x1]
  973d28:	a9025bf5 	stp	x21, x22, [sp, #32]
  973d2c:	f9001bf7 	str	x23, [sp, #48]
  973d30:	b40008e4 	cbz	x4, 973e4c <mmap_add_region_ctx+0x144>
  973d34:	aa0400a3 	orr	x3, x5, x4
  973d38:	aa0103f6 	mov	x22, x1
  973d3c:	aa000063 	orr	x3, x3, x0
  973d40:	f9401021 	ldr	x1, [x1, #32]
  973d44:	f2402c7f 	tst	x3, #0xfff
  973d48:	54000d41 	b.ne	973ef0 <mmap_add_region_ctx+0x1e8>  // b.any
  973d4c:	f148003f 	cmp	x1, #0x200, lsl #12
  973d50:	d2a80003 	mov	x3, #0x40000000            	// #1073741824
  973d54:	fa431024 	ccmp	x1, x3, #0x4, ne	// ne = any
  973d58:	54000060 	b.eq	973d64 <mmap_add_region_ctx+0x5c>  // b.none
  973d5c:	f140043f 	cmp	x1, #0x1, lsl #12
  973d60:	54000c81 	b.ne	973ef0 <mmap_add_region_ctx+0x1e8>  // b.any
  973d64:	8b0400b5 	add	x21, x5, x4
  973d68:	8b00008a 	add	x10, x4, x0
  973d6c:	d10006b5 	sub	x21, x21, #0x1
  973d70:	d1000554 	sub	x20, x10, #0x1
  973d74:	eb1500bf 	cmp	x5, x21
  973d78:	fa549002 	ccmp	x0, x20, #0x2, ls	// ls = plast
  973d7c:	54000ca8 	b.hi	973f10 <mmap_add_region_ctx+0x208>  // b.pmore
  973d80:	f9400661 	ldr	x1, [x19, #8]
  973d84:	eb01029f 	cmp	x20, x1
  973d88:	54000c48 	b.hi	973f10 <mmap_add_region_ctx+0x208>  // b.pmore
  973d8c:	f9400261 	ldr	x1, [x19]
  973d90:	eb0102bf 	cmp	x21, x1
  973d94:	54000be8 	b.hi	973f10 <mmap_add_region_ctx+0x208>  // b.pmore
  973d98:	52800501 	mov	w1, #0x28                  	// #40
  973d9c:	9b210929 	smaddl	x9, w9, w1, x2
  973da0:	f85e8121 	ldur	x1, [x9, #-24]
  973da4:	b5000ba1 	cbnz	x1, 973f18 <mmap_add_region_ctx+0x210>
  973da8:	aa0203e6 	mov	x6, x2
  973dac:	cb05000b 	sub	x11, x0, x5
  973db0:	f94008c3 	ldr	x3, [x6, #16]
  973db4:	b5000563 	cbnz	x3, 973e60 <mmap_add_region_ctx+0x158>
  973db8:	aa0203e1 	mov	x1, x2
  973dbc:	a9409423 	ldp	x3, x5, [x1, #8]
  973dc0:	aa0103e0 	mov	x0, x1
  973dc4:	9100a021 	add	x1, x1, #0x28
  973dc8:	8b0300a3 	add	x3, x5, x3
  973dcc:	d1000463 	sub	x3, x3, #0x1
  973dd0:	eb14007f 	cmp	x3, x20
  973dd4:	54000042 	b.cs	973ddc <mmap_add_region_ctx+0xd4>  // b.hs, b.nlast
  973dd8:	b5ffff25 	cbnz	x5, 973dbc <mmap_add_region_ctx+0xb4>
  973ddc:	a9408403 	ldp	x3, x1, [x0, #8]
  973de0:	aa0003f7 	mov	x23, x0
  973de4:	9100a000 	add	x0, x0, #0x28
  973de8:	8b030023 	add	x3, x1, x3
  973dec:	eb03015f 	cmp	x10, x3
  973df0:	54000081 	b.ne	973e00 <mmap_add_region_ctx+0xf8>  // b.any
  973df4:	b4000061 	cbz	x1, 973e00 <mmap_add_region_ctx+0xf8>
  973df8:	eb01009f 	cmp	x4, x1
  973dfc:	54ffff08 	b.hi	973ddc <mmap_add_region_ctx+0xd4>  // b.pmore
  973e00:	f9400841 	ldr	x1, [x2, #16]
  973e04:	b4000061 	cbz	x1, 973e10 <mmap_add_region_ctx+0x108>
  973e08:	eb09005f 	cmp	x2, x9
  973e0c:	540008a3 	b.cc	973f20 <mmap_add_region_ctx+0x218>  // b.lo, b.ul, b.last
  973e10:	cb170042 	sub	x2, x2, x23
  973e14:	aa1703e1 	mov	x1, x23
  973e18:	940012b7 	bl	9788f4 <memmove>
  973e1c:	aa1603e1 	mov	x1, x22
  973e20:	aa1703e0 	mov	x0, x23
  973e24:	d2800502 	mov	x2, #0x28                  	// #40
  973e28:	940012ab 	bl	9788d4 <memcpy>
  973e2c:	f9402260 	ldr	x0, [x19, #64]
  973e30:	eb15001f 	cmp	x0, x21
  973e34:	54000042 	b.cs	973e3c <mmap_add_region_ctx+0x134>  // b.hs, b.nlast
  973e38:	f9002275 	str	x21, [x19, #64]
  973e3c:	f9402660 	ldr	x0, [x19, #72]
  973e40:	eb14001f 	cmp	x0, x20
  973e44:	54000042 	b.cs	973e4c <mmap_add_region_ctx+0x144>  // b.hs, b.nlast
  973e48:	f9002674 	str	x20, [x19, #72]
  973e4c:	a94153f3 	ldp	x19, x20, [sp, #16]
  973e50:	a9425bf5 	ldp	x21, x22, [sp, #32]
  973e54:	f9401bf7 	ldr	x23, [sp, #48]
  973e58:	a8c47bfd 	ldp	x29, x30, [sp], #64
  973e5c:	d65f03c0 	ret
  973e60:	a94004c8 	ldp	x8, x1, [x6]
  973e64:	8b030027 	add	x7, x1, x3
  973e68:	d10004e7 	sub	x7, x7, #0x1
  973e6c:	eb01001f 	cmp	x0, x1
  973e70:	540001c3 	b.cc	973ea8 <mmap_add_region_ctx+0x1a0>  // b.lo, b.ul, b.last
  973e74:	eb07029f 	cmp	x20, x7
  973e78:	54000069 	b.ls	973e84 <mmap_add_region_ctx+0x17c>  // b.plast
  973e7c:	eb01001f 	cmp	x0, x1
  973e80:	54000181 	b.ne	973eb0 <mmap_add_region_ctx+0x1a8>  // b.any
  973e84:	cb080028 	sub	x8, x1, x8
  973e88:	eb0b011f 	cmp	x8, x11
  973e8c:	540000a1 	b.ne	973ea0 <mmap_add_region_ctx+0x198>  // b.any
  973e90:	eb01001f 	cmp	x0, x1
  973e94:	54000261 	b.ne	973ee0 <mmap_add_region_ctx+0x1d8>  // b.any
  973e98:	eb03009f 	cmp	x4, x3
  973e9c:	54000221 	b.ne	973ee0 <mmap_add_region_ctx+0x1d8>  // b.any
  973ea0:	12800001 	mov	w1, #0xffffffff            	// #-1
  973ea4:	14000014 	b	973ef4 <mmap_add_region_ctx+0x1ec>
  973ea8:	eb07029f 	cmp	x20, x7
  973eac:	54fffec2 	b.cs	973e84 <mmap_add_region_ctx+0x17c>  // b.hs, b.nlast
  973eb0:	eb0802bf 	cmp	x21, x8
  973eb4:	540003a3 	b.cc	973f28 <mmap_add_region_ctx+0x220>  // b.lo, b.ul, b.last
  973eb8:	8b080063 	add	x3, x3, x8
  973ebc:	d1000463 	sub	x3, x3, #0x1
  973ec0:	eb0300bf 	cmp	x5, x3
  973ec4:	1a9f97e3 	cset	w3, hi	// hi = pmore
  973ec8:	eb01029f 	cmp	x20, x1
  973ecc:	540000e3 	b.cc	973ee8 <mmap_add_region_ctx+0x1e0>  // b.lo, b.ul, b.last
  973ed0:	eb07001f 	cmp	x0, x7
  973ed4:	1a9f97e1 	cset	w1, hi	// hi = pmore
  973ed8:	6a01007f 	tst	w3, w1
  973edc:	54fffe20 	b.eq	973ea0 <mmap_add_region_ctx+0x198>  // b.none
  973ee0:	9100a0c6 	add	x6, x6, #0x28
  973ee4:	17ffffb3 	b	973db0 <mmap_add_region_ctx+0xa8>
  973ee8:	52800021 	mov	w1, #0x1                   	// #1
  973eec:	17fffffb 	b	973ed8 <mmap_add_region_ctx+0x1d0>
  973ef0:	128002a1 	mov	w1, #0xffffffea            	// #-22
  973ef4:	a94153f3 	ldp	x19, x20, [sp, #16]
  973ef8:	d0000020 	adrp	x0, 979000 <imx_mmap>
  973efc:	a9425bf5 	ldp	x21, x22, [sp, #32]
  973f00:	911fc400 	add	x0, x0, #0x7f1
  973f04:	f9401bf7 	ldr	x23, [sp, #48]
  973f08:	a8c47bfd 	ldp	x29, x30, [sp], #64
  973f0c:	17fff1d6 	b	970664 <tf_log>
  973f10:	12800421 	mov	w1, #0xffffffde            	// #-34
  973f14:	17fffff8 	b	973ef4 <mmap_add_region_ctx+0x1ec>
  973f18:	12800161 	mov	w1, #0xfffffff4            	// #-12
  973f1c:	17fffff6 	b	973ef4 <mmap_add_region_ctx+0x1ec>
  973f20:	9100a042 	add	x2, x2, #0x28
  973f24:	17ffffb7 	b	973e00 <mmap_add_region_ctx+0xf8>
  973f28:	eb01029f 	cmp	x20, x1
  973f2c:	54fffda3 	b.cc	973ee0 <mmap_add_region_ctx+0x1d8>  // b.lo, b.ul, b.last
  973f30:	52800023 	mov	w3, #0x1                   	// #1
  973f34:	17ffffe7 	b	973ed0 <mmap_add_region_ctx+0x1c8>

0000000000973f38 <mmap_add_ctx>:
  973f38:	a9be7bfd 	stp	x29, x30, [sp, #-32]!
  973f3c:	910003fd 	mov	x29, sp
  973f40:	a90153f3 	stp	x19, x20, [sp, #16]
  973f44:	aa0003f4 	mov	x20, x0
  973f48:	aa0103f3 	mov	x19, x1
  973f4c:	f9401260 	ldr	x0, [x19, #32]
  973f50:	b5000080 	cbnz	x0, 973f60 <mmap_add_ctx+0x28>
  973f54:	a94153f3 	ldp	x19, x20, [sp, #16]
  973f58:	a8c27bfd 	ldp	x29, x30, [sp], #32
  973f5c:	d65f03c0 	ret
  973f60:	aa1303e1 	mov	x1, x19
  973f64:	aa1403e0 	mov	x0, x20
  973f68:	9100a273 	add	x19, x19, #0x28
  973f6c:	97ffff67 	bl	973d08 <mmap_add_region_ctx>
  973f70:	17fffff7 	b	973f4c <mmap_add_ctx+0x14>

0000000000973f74 <init_xlat_tables_ctx>:
  973f74:	a9bd7bfd 	stp	x29, x30, [sp, #-48]!
  973f78:	910003fd 	mov	x29, sp
  973f7c:	a90153f3 	stp	x19, x20, [sp, #16]
  973f80:	aa0003f3 	mov	x19, x0
  973f84:	f9400814 	ldr	x20, [x0, #16]
  973f88:	f90013f5 	str	x21, [sp, #32]
  973f8c:	aa1403e0 	mov	x0, x20
  973f90:	94000039 	bl	974074 <xlat_mmap_print>
  973f94:	b9403a61 	ldr	w1, [x19, #56]
  973f98:	d2800000 	mov	x0, #0x0                   	// #0
  973f9c:	6b00003f 	cmp	w1, w0
  973fa0:	540001c8 	b.hi	973fd8 <init_xlat_tables_ctx+0x64>  // b.pmore
  973fa4:	b9402a63 	ldr	w3, [x19, #40]
  973fa8:	d2800000 	mov	x0, #0x0                   	// #0
  973fac:	6b00007f 	cmp	w3, w0
  973fb0:	540001cc 	b.gt	973fe8 <init_xlat_tables_ctx+0x74>
  973fb4:	f9400a80 	ldr	x0, [x20, #16]
  973fb8:	b50002a0 	cbnz	x0, 97400c <init_xlat_tables_ctx+0x98>
  973fbc:	52800020 	mov	w0, #0x1                   	// #1
  973fc0:	39015260 	strb	w0, [x19, #84]
  973fc4:	f94013f5 	ldr	x21, [sp, #32]
  973fc8:	aa1303e0 	mov	x0, x19
  973fcc:	a94153f3 	ldp	x19, x20, [sp, #16]
  973fd0:	a8c37bfd 	ldp	x29, x30, [sp], #48
  973fd4:	14000029 	b	974078 <xlat_tables_print>
  973fd8:	f9401a62 	ldr	x2, [x19, #48]
  973fdc:	f820785f 	str	xzr, [x2, x0, lsl #3]
  973fe0:	91000400 	add	x0, x0, #0x1
  973fe4:	17ffffee 	b	973f9c <init_xlat_tables_ctx+0x28>
  973fe8:	f9401262 	ldr	x2, [x19, #32]
  973fec:	d2800001 	mov	x1, #0x0                   	// #0
  973ff0:	8b003042 	add	x2, x2, x0, lsl #12
  973ff4:	f821785f 	str	xzr, [x2, x1, lsl #3]
  973ff8:	91000421 	add	x1, x1, #0x1
  973ffc:	f108003f 	cmp	x1, #0x200
  974000:	54ffffa1 	b.ne	973ff4 <init_xlat_tables_ctx+0x80>  // b.any
  974004:	91000400 	add	x0, x0, #0x1
  974008:	17ffffe9 	b	973fac <init_xlat_tables_ctx+0x38>
  97400c:	f9401a63 	ldr	x3, [x19, #48]
  974010:	aa1403e1 	mov	x1, x20
  974014:	b9403a64 	ldr	w4, [x19, #56]
  974018:	d2800002 	mov	x2, #0x0                   	// #0
  97401c:	b9405265 	ldr	w5, [x19, #80]
  974020:	aa1303e0 	mov	x0, x19
  974024:	97fffeb6 	bl	973afc <xlat_tables_map_region>
  974028:	aa0003f5 	mov	x21, x0
  97402c:	f9401a60 	ldr	x0, [x19, #48]
  974030:	b9403a61 	ldr	w1, [x19, #56]
  974034:	d37df021 	lsl	x1, x1, #3
  974038:	97fffe67 	bl	9739d4 <xlat_clean_dcache_range>
  97403c:	a9408e81 	ldp	x1, x3, [x20, #8]
  974040:	8b030020 	add	x0, x1, x3
  974044:	d1000400 	sub	x0, x0, #0x1
  974048:	eb15001f 	cmp	x0, x21
  97404c:	54000100 	b.eq	97406c <init_xlat_tables_ctx+0xf8>  // b.none
  974050:	f9400282 	ldr	x2, [x20]
  974054:	b0000020 	adrp	x0, 979000 <imx_mmap>
  974058:	b9401a84 	ldr	w4, [x20, #24]
  97405c:	91207000 	add	x0, x0, #0x81c
  974060:	97fff181 	bl	970664 <tf_log>
  974064:	97fff617 	bl	9718c0 <console_flush>
  974068:	94000f15 	bl	977cbc <el3_panic>
  97406c:	9100a294 	add	x20, x20, #0x28
  974070:	17ffffd1 	b	973fb4 <init_xlat_tables_ctx+0x40>

0000000000974074 <xlat_mmap_print>:
  974074:	d65f03c0 	ret

0000000000974078 <xlat_tables_print>:
  974078:	d65f03c0 	ret

000000000097407c <bl31_plat_runtime_setup>:
  97407c:	52800040 	mov	w0, #0x2                   	// #2
  974080:	17fff5d3 	b	9717cc <console_switch_state>

0000000000974084 <plat_get_soc_version>:
  974084:	12800000 	mov	w0, #0xffffffff            	// #-1
  974088:	d65f03c0 	ret

000000000097408c <plat_get_soc_revision>:
  97408c:	12800000 	mov	w0, #0xffffffff            	// #-1
  974090:	d65f03c0 	ret

0000000000974094 <plat_is_smccc_feature_available>:
  974094:	12800000 	mov	w0, #0xffffffff            	// #-1
  974098:	d65f03c0 	ret

000000000097409c <setup_page_tables>:
  97409c:	a9be7bfd 	stp	x29, x30, [sp, #-32]!
  9740a0:	910003fd 	mov	x29, sp
  9740a4:	f9000bf3 	str	x19, [sp, #16]
  9740a8:	aa0103f3 	mov	x19, x1
  9740ac:	97fffe25 	bl	973940 <mmap_add>
  9740b0:	aa1303e0 	mov	x0, x19
  9740b4:	97fffe23 	bl	973940 <mmap_add>
  9740b8:	f9400bf3 	ldr	x19, [sp, #16]
  9740bc:	a8c27bfd 	ldp	x29, x30, [sp], #32
  9740c0:	17fffe24 	b	973950 <init_xlat_tables>

00000000009740c4 <plat_ic_get_pending_interrupt_type>:
  9740c4:	a9bf7bfd 	stp	x29, x30, [sp, #-16]!
  9740c8:	910003fd 	mov	x29, sp
  9740cc:	97fff3f5 	bl	9710a0 <gicv3_get_pending_interrupt_type>
  9740d0:	510ff000 	sub	w0, w0, #0x3fc
  9740d4:	71000c1f 	cmp	w0, #0x3
  9740d8:	540000c8 	b.hi	9740f0 <plat_ic_get_pending_interrupt_type+0x2c>  // b.pmore
  9740dc:	b0000021 	adrp	x1, 979000 <imx_mmap>
  9740e0:	91245021 	add	x1, x1, #0x914
  9740e4:	38604820 	ldrb	w0, [x1, w0, uxtw]
  9740e8:	a8c17bfd 	ldp	x29, x30, [sp], #16
  9740ec:	d65f03c0 	ret
  9740f0:	52800020 	mov	w0, #0x1                   	// #1
  9740f4:	17fffffd 	b	9740e8 <plat_ic_get_pending_interrupt_type+0x24>

00000000009740f8 <plat_ic_acknowledge_interrupt>:
  9740f8:	d538c800 	mrs	x0, icc_iar0_el1
  9740fc:	12005c00 	and	w0, w0, #0xffffff
  974100:	d65f03c0 	ret

0000000000974104 <plat_ic_end_of_interrupt>:
  974104:	d5033a9f 	dsb	ishst
  974108:	2a0003e0 	mov	w0, w0
  97410c:	d518c820 	msr	icc_eoir0_el1, x0
  974110:	d65f03c0 	ret

0000000000974114 <plat_interrupt_type_to_line>:
  974114:	7100041f 	cmp	w0, #0x1
  974118:	540001e0 	b.eq	974154 <plat_interrupt_type_to_line+0x40>  // b.none
  97411c:	7100081f 	cmp	w0, #0x2
  974120:	540000c0 	b.eq	974138 <plat_interrupt_type_to_line+0x24>  // b.none
  974124:	35000100 	cbnz	w0, 974144 <plat_interrupt_type_to_line+0x30>
  974128:	7100003f 	cmp	w1, #0x0
  97412c:	1a9f07e0 	cset	w0, ne	// ne = any
  974130:	11000400 	add	w0, w0, #0x1
  974134:	d65f03c0 	ret
  974138:	7100003f 	cmp	w1, #0x0
  97413c:	1a9f17e0 	cset	w0, eq	// eq = none
  974140:	17fffffc 	b	974130 <plat_interrupt_type_to_line+0x1c>
  974144:	a9bf7bfd 	stp	x29, x30, [sp, #-16]!
  974148:	910003fd 	mov	x29, sp
  97414c:	97fff5dd 	bl	9718c0 <console_flush>
  974150:	94000edb 	bl	977cbc <el3_panic>
  974154:	52800040 	mov	w0, #0x2                   	// #2
  974158:	d65f03c0 	ret

000000000097415c <plat_ic_has_interrupt_type>:
  97415c:	7100081f 	cmp	w0, #0x2
  974160:	1a9f87e0 	cset	w0, ls	// ls = plast
  974164:	d65f03c0 	ret

0000000000974168 <plat_ic_raise_el3_sgi>:
  974168:	aa0103e2 	mov	x2, x1
  97416c:	52800041 	mov	w1, #0x2                   	// #2
  974170:	17fff54e 	b	9716a8 <gicv3_raise_sgi>

0000000000974174 <plat_log_get_prefix>:
  974174:	7100c81f 	cmp	w0, #0x32
  974178:	52800641 	mov	w1, #0x32                  	// #50
  97417c:	1a819000 	csel	w0, w0, w1, ls	// ls = plast
  974180:	52800141 	mov	w1, #0xa                   	// #10
  974184:	6b01001f 	cmp	w0, w1
  974188:	1a812000 	csel	w0, w0, w1, cs	// cs = hs, nlast
  97418c:	1ac10800 	udiv	w0, w0, w1
  974190:	f0000021 	adrp	x1, 97b000 <__RO_END__>
  974194:	9101c021 	add	x1, x1, #0x70
  974198:	51000400 	sub	w0, w0, #0x1
  97419c:	f8607820 	ldr	x0, [x1, x0, lsl #3]
  9741a0:	d65f03c0 	ret

00000000009741a4 <plat_get_target_pwr_state>:
  9741a4:	d2800003 	mov	x3, #0x0                   	// #0
  9741a8:	52800084 	mov	w4, #0x4                   	// #4
  9741ac:	38636820 	ldrb	w0, [x1, x3]
  9741b0:	91000463 	add	x3, x3, #0x1
  9741b4:	6b04001f 	cmp	w0, w4
  9741b8:	1a849000 	csel	w0, w0, w4, ls	// ls = plast
  9741bc:	12001c04 	and	w4, w0, #0xff
  9741c0:	6b03005f 	cmp	w2, w3
  9741c4:	54ffff41 	b.ne	9741ac <plat_get_target_pwr_state+0x8>  // b.any
  9741c8:	d65f03c0 	ret

00000000009741cc <plat_get_power_domain_tree_desc>:
  9741cc:	b0000020 	adrp	x0, 979000 <imx_mmap>
  9741d0:	91246000 	add	x0, x0, #0x918
  9741d4:	d65f03c0 	ret

00000000009741d8 <plat_core_pos_by_mpidr>:
  9741d8:	92409c00 	and	x0, x0, #0xffffffffff
  9741dc:	d29fffe1 	mov	x1, #0xffff                	// #65535
  9741e0:	9260dc00 	and	x0, x0, #0xffffffff00ffffff
  9741e4:	eb01001f 	cmp	x0, x1
  9741e8:	54000108 	b.hi	974208 <plat_core_pos_by_mpidr+0x30>  // b.pmore
  9741ec:	d348fc01 	lsr	x1, x0, #8
  9741f0:	12001c00 	and	w0, w0, #0xff
  9741f4:	f27f183f 	tst	x1, #0xfe
  9741f8:	7a440802 	ccmp	w0, #0x4, #0x2, eq	// eq = none
  9741fc:	0b010801 	add	w1, w0, w1, lsl #2
  974200:	5a9f9020 	csinv	w0, w1, wzr, ls	// ls = plast
  974204:	d65f03c0 	ret
  974208:	12800000 	mov	w0, #0xffffffff            	// #-1
  97420c:	17fffffe 	b	974204 <plat_core_pos_by_mpidr+0x2c>

0000000000974210 <imx_buildinfo_handler>:
  974210:	b50003e1 	cbnz	x1, 97428c <imx_buildinfo_handler+0x7c>
  974214:	a9be7bfd 	stp	x29, x30, [sp, #-32]!
  974218:	b0000020 	adrp	x0, 979000 <imx_mmap>
  97421c:	910003fd 	mov	x29, sp
  974220:	f9451800 	ldr	x0, [x0, #2608]
  974224:	f9000fff 	str	xzr, [sp, #24]
  974228:	528005a1 	mov	w1, #0x2d                  	// #45
  97422c:	94001332 	bl	978ef4 <strchr>
  974230:	aa0003e1 	mov	x1, x0
  974234:	b4000180 	cbz	x0, 974264 <imx_buildinfo_handler+0x54>
  974238:	39400422 	ldrb	w2, [x1, #1]
  97423c:	91000400 	add	x0, x0, #0x1
  974240:	71019c5f 	cmp	w2, #0x67
  974244:	54ffff21 	b.ne	974228 <imx_buildinfo_handler+0x18>  // b.any
  974248:	91000821 	add	x1, x1, #0x2
  97424c:	d28000e2 	mov	x2, #0x7                   	// #7
  974250:	910063e0 	add	x0, sp, #0x18
  974254:	940011a0 	bl	9788d4 <memcpy>
  974258:	f9400fe0 	ldr	x0, [sp, #24]
  97425c:	a8c27bfd 	ldp	x29, x30, [sp], #32
  974260:	d65f03c0 	ret
  974264:	b0000020 	adrp	x0, 979000 <imx_mmap>
  974268:	52800741 	mov	w1, #0x3a                  	// #58
  97426c:	f9451800 	ldr	x0, [x0, #2608]
  974270:	94001321 	bl	978ef4 <strchr>
  974274:	b4ffff20 	cbz	x0, 974258 <imx_buildinfo_handler+0x48>
  974278:	39400401 	ldrb	w1, [x0, #1]
  97427c:	34fffee1 	cbz	w1, 974258 <imx_buildinfo_handler+0x48>
  974280:	91000401 	add	x1, x0, #0x1
  974284:	d28000e2 	mov	x2, #0x7                   	// #7
  974288:	17fffff2 	b	974250 <imx_buildinfo_handler+0x40>
  97428c:	92800000 	mov	x0, #0xffffffffffffffff    	// #-1
  974290:	d65f03c0 	ret

0000000000974294 <imx_kernel_entry_handler>:
  974294:	b24077e0 	mov	x0, #0x3fffffff            	// #1073741823
  974298:	eb00003f 	cmp	x1, x0
  97429c:	540002a9 	b.ls	9742f0 <imx_kernel_entry_handler+0x5c>  // b.plast
  9742a0:	a9bf7bfd 	stp	x29, x30, [sp, #-16]!
  9742a4:	90000060 	adrp	x0, 980000 <tf_mmap+0x270>
  9742a8:	91014000 	add	x0, x0, #0x50
  9742ac:	910003fd 	mov	x29, sp
  9742b0:	12800422 	mov	w2, #0xffffffde            	// #-34
  9742b4:	f9000401 	str	x1, [x0, #8]
  9742b8:	52803a61 	mov	w1, #0x1d3                 	// #467
  9742bc:	b9001001 	str	w1, [x0, #16]
  9742c0:	b9400401 	ldr	w1, [x0, #4]
  9742c4:	a901fc1f 	stp	xzr, xzr, [x0, #24]
  9742c8:	0a020021 	and	w1, w1, w2
  9742cc:	32000021 	orr	w1, w1, #0x1
  9742d0:	b9000401 	str	w1, [x0, #4]
  9742d4:	f9001403 	str	x3, [x0, #40]
  9742d8:	97fff65e 	bl	971c50 <cm_init_my_context>
  9742dc:	52800020 	mov	w0, #0x1                   	// #1
  9742e0:	97fff6c1 	bl	971de4 <cm_prepare_el3_exit>
  9742e4:	52800000 	mov	w0, #0x0                   	// #0
  9742e8:	a8c17bfd 	ldp	x29, x30, [sp], #16
  9742ec:	d65f03c0 	ret
  9742f0:	12800000 	mov	w0, #0xffffffff            	// #-1
  9742f4:	d65f03c0 	ret

00000000009742f8 <imx_sip_setup>:
  9742f8:	52800000 	mov	w0, #0x0                   	// #0
  9742fc:	d65f03c0 	ret

0000000000974300 <imx_sip_handler>:
  974300:	a9be7bfd 	stp	x29, x30, [sp, #-32]!
  974304:	528000a5 	mov	w5, #0x5                   	// #5
  974308:	72b84005 	movk	w5, #0xc200, lsl #16
  97430c:	910003fd 	mov	x29, sp
  974310:	f9000bf3 	str	x19, [sp, #16]
  974314:	aa0603f3 	mov	x19, x6
  974318:	6b05001f 	cmp	w0, w5
  97431c:	54000460 	b.eq	9743a8 <imx_sip_handler+0xa8>  // b.none
  974320:	54000188 	b.hi	974350 <imx_sip_handler+0x50>  // b.pmore
  974324:	510008a6 	sub	w6, w5, #0x2
  974328:	6b06001f 	cmp	w0, w6
  97432c:	54000480 	b.eq	9743bc <imx_sip_handler+0xbc>  // b.none
  974330:	110004c6 	add	w6, w6, #0x1
  974334:	6b06001f 	cmp	w0, w6
  974338:	54000200 	b.eq	974378 <imx_sip_handler+0x78>  // b.none
  97433c:	510014a5 	sub	w5, w5, #0x5
  974340:	6b05001f 	cmp	w0, w5
  974344:	540002e0 	b.eq	9743a0 <imx_sip_handler+0xa0>  // b.none
  974348:	92800000 	mov	x0, #0xffffffffffffffff    	// #-1
  97434c:	14000009 	b	974370 <imx_sip_handler+0x70>
  974350:	110008a5 	add	w5, w5, #0x2
  974354:	6b05001f 	cmp	w0, w5
  974358:	540002e0 	b.eq	9743b4 <imx_sip_handler+0xb4>  // b.none
  97435c:	1103d8a5 	add	w5, w5, #0xf6
  974360:	6b05001f 	cmp	w0, w5
  974364:	54ffff21 	b.ne	974348 <imx_sip_handler+0x48>  // b.any
  974368:	97ffffcb 	bl	974294 <imx_kernel_entry_handler>
  97436c:	93407c00 	sxtw	x0, w0
  974370:	f9000260 	str	x0, [x19]
  974374:	14000007 	b	974390 <imx_sip_handler+0x90>
  974378:	aa0303e4 	mov	x4, x3
  97437c:	aa0203e3 	mov	x3, x2
  974380:	aa0103e2 	mov	x2, x1
  974384:	aa1303e1 	mov	x1, x19
  974388:	940002b9 	bl	974e6c <dram_dvfs_handler>
  97438c:	93407c13 	sxtw	x19, w0
  974390:	aa1303e0 	mov	x0, x19
  974394:	f9400bf3 	ldr	x19, [sp, #16]
  974398:	a8c27bfd 	ldp	x29, x30, [sp], #32
  97439c:	d65f03c0 	ret
  9743a0:	94000699 	bl	975e04 <imx_gpc_handler>
  9743a4:	17fffff2 	b	97436c <imx_sip_handler+0x6c>
  9743a8:	aa0603e4 	mov	x4, x6
  9743ac:	940006a3 	bl	975e38 <imx_src_handler>
  9743b0:	17ffffef 	b	97436c <imx_sip_handler+0x6c>
  9743b4:	94000ae7 	bl	976f50 <imx_hab_handler>
  9743b8:	17ffffed 	b	97436c <imx_sip_handler+0x6c>
  9743bc:	97ffff95 	bl	974210 <imx_buildinfo_handler>
  9743c0:	17ffffec 	b	974370 <imx_sip_handler+0x70>

00000000009743c4 <plat_imx_mpidr_to_core_pos>:
  9743c4:	17ffff85 	b	9741d8 <plat_core_pos_by_mpidr>

00000000009743c8 <plat_gic_driver_init>:
  9743c8:	f0000020 	adrp	x0, 97b000 <__RO_END__>
  9743cc:	91026000 	add	x0, x0, #0x98
  9743d0:	17fff2a2 	b	970e58 <gicv3_driver_init>

00000000009743d4 <plat_gic_init>:
  9743d4:	d2800281 	mov	x1, #0x14                  	// #20
  9743d8:	a9bf7bfd 	stp	x29, x30, [sp, #-16]!
  9743dc:	f2a71101 	movk	x1, #0x3888, lsl #16
  9743e0:	910003fd 	mov	x29, sp
  9743e4:	b9400020 	ldr	w0, [x1]
  9743e8:	36f800a0 	tbz	w0, #31, 9743fc <plat_gic_init+0x28>
  9743ec:	121f7800 	and	w0, w0, #0xfffffffe
  9743f0:	b9000020 	str	w0, [x1]
  9743f4:	b9400020 	ldr	w0, [x1]
  9743f8:	37ffffe0 	tbnz	w0, #31, 9743f4 <plat_gic_init+0x20>
  9743fc:	97fff2b4 	bl	970ecc <gicv3_distif_init>
  974400:	940010c2 	bl	978708 <plat_my_core_pos>
  974404:	97fff2cf 	bl	970f40 <gicv3_rdistif_init>
  974408:	940010c0 	bl	978708 <plat_my_core_pos>
  97440c:	a8c17bfd 	ldp	x29, x30, [sp], #16
  974410:	17fff2f0 	b	970fd0 <gicv3_cpuif_enable>

0000000000974414 <plat_gic_cpuif_enable>:
  974414:	a9bf7bfd 	stp	x29, x30, [sp, #-16]!
  974418:	910003fd 	mov	x29, sp
  97441c:	940010bb 	bl	978708 <plat_my_core_pos>
  974420:	a8c17bfd 	ldp	x29, x30, [sp], #16
  974424:	17fff2eb 	b	970fd0 <gicv3_cpuif_enable>

0000000000974428 <plat_gic_cpuif_disable>:
  974428:	a9bf7bfd 	stp	x29, x30, [sp, #-16]!
  97442c:	910003fd 	mov	x29, sp
  974430:	940010b6 	bl	978708 <plat_my_core_pos>
  974434:	a8c17bfd 	ldp	x29, x30, [sp], #16
  974438:	17fff30a 	b	971060 <gicv3_cpuif_disable>

000000000097443c <plat_gic_pcpu_init>:
  97443c:	a9bf7bfd 	stp	x29, x30, [sp, #-16]!
  974440:	910003fd 	mov	x29, sp
  974444:	940010b1 	bl	978708 <plat_my_core_pos>
  974448:	a8c17bfd 	ldp	x29, x30, [sp], #16
  97444c:	17fff2bd 	b	970f40 <gicv3_rdistif_init>

0000000000974450 <plat_gic_save>:
  974450:	a9bd7bfd 	stp	x29, x30, [sp, #-48]!
  974454:	910003fd 	mov	x29, sp
  974458:	a90153f3 	stp	x19, x20, [sp, #16]
  97445c:	aa0103f4 	mov	x20, x1
  974460:	d2800013 	mov	x19, #0x0                   	// #0
  974464:	f90013f5 	str	x21, [sp, #32]
  974468:	d2800b15 	mov	x21, #0x58                  	// #88
  97446c:	9b155261 	madd	x1, x19, x21, x20
  974470:	2a1303e0 	mov	w0, w19
  974474:	91000673 	add	x19, x19, #0x1
  974478:	97fff30d 	bl	9710ac <gicv3_rdistif_save>
  97447c:	f100127f 	cmp	x19, #0x4
  974480:	54ffff61 	b.ne	97446c <plat_gic_save+0x1c>  // b.any
  974484:	f94013f5 	ldr	x21, [sp, #32]
  974488:	91058280 	add	x0, x20, #0x160
  97448c:	a94153f3 	ldp	x19, x20, [sp, #16]
  974490:	a8c37bfd 	ldp	x29, x30, [sp], #48
  974494:	17fff384 	b	9712a4 <gicv3_distif_save>

0000000000974498 <plat_gic_restore>:
  974498:	a9bd7bfd 	stp	x29, x30, [sp, #-48]!
  97449c:	91058020 	add	x0, x1, #0x160
  9744a0:	910003fd 	mov	x29, sp
  9744a4:	a90153f3 	stp	x19, x20, [sp, #16]
  9744a8:	d2800013 	mov	x19, #0x0                   	// #0
  9744ac:	aa0103f4 	mov	x20, x1
  9744b0:	f90013f5 	str	x21, [sp, #32]
  9744b4:	d2800b15 	mov	x21, #0x58                  	// #88
  9744b8:	97fff3f8 	bl	971498 <gicv3_distif_init_restore>
  9744bc:	d503201f 	nop
  9744c0:	9b155261 	madd	x1, x19, x21, x20
  9744c4:	2a1303e0 	mov	w0, w19
  9744c8:	91000673 	add	x19, x19, #0x1
  9744cc:	97fff32f 	bl	971188 <gicv3_rdistif_init_restore>
  9744d0:	f100127f 	cmp	x19, #0x4
  9744d4:	54ffff41 	b.ne	9744bc <plat_gic_restore+0x24>  // b.any
  9744d8:	a94153f3 	ldp	x19, x20, [sp, #16]
  9744dc:	f94013f5 	ldr	x21, [sp, #32]
  9744e0:	a8c37bfd 	ldp	x29, x30, [sp], #48
  9744e4:	d65f03c0 	ret

00000000009744e8 <ddr_pll_bypass_100mts>:
  9744e8:	d2940102 	mov	x2, #0xa008                	// #40968
  9744ec:	52a0e0e1 	mov	w1, #0x7070000             	// #117899264
  9744f0:	f2a60702 	movk	x2, #0x3038, lsl #16
  9744f4:	aa0203e0 	mov	x0, x2
  9744f8:	52a04003 	mov	w3, #0x2000000             	// #33554432
  9744fc:	b81fc401 	str	w1, [x0], #-4
  974500:	b81fc043 	stur	w3, [x2, #-4]
  974504:	b9008401 	str	w1, [x0, #132]
  974508:	d1200000 	sub	x0, x0, #0x800
  97450c:	52a04021 	mov	w1, #0x2010000             	// #33619968
  974510:	b9088001 	str	w1, [x0, #2176]
  974514:	52a02001 	mov	w1, #0x1000000             	// #16777216
  974518:	b9000001 	str	w1, [x0]
  97451c:	d65f03c0 	ret

0000000000974520 <ddr_pll_bypass_400mts>:
  974520:	d2940103 	mov	x3, #0xa008                	// #40968
  974524:	52a0e0e2 	mov	w2, #0x7070000             	// #117899264
  974528:	f2a60703 	movk	x3, #0x3038, lsl #16
  97452c:	aa0303e0 	mov	x0, x3
  974530:	52a02021 	mov	w1, #0x1010000             	// #16842752
  974534:	b81fc402 	str	w2, [x0], #-4
  974538:	b81fc061 	stur	w1, [x3, #-4]
  97453c:	51404021 	sub	w1, w1, #0x10, lsl #12
  974540:	b9008402 	str	w2, [x0, #132]
  974544:	d1200000 	sub	x0, x0, #0x800
  974548:	52a06022 	mov	w2, #0x3010000             	// #50397184
  97454c:	b9088002 	str	w2, [x0, #2176]
  974550:	b9000001 	str	w1, [x0]
  974554:	d65f03c0 	ret

0000000000974558 <ddr_pll_unbypass>:
  974558:	d2930100 	mov	x0, #0x9808                	// #38920
  97455c:	52a02001 	mov	w1, #0x1000000             	// #16777216
  974560:	f2a60700 	movk	x0, #0x3038, lsl #16
  974564:	52a0e0e2 	mov	w2, #0x7070000             	// #117899264
  974568:	b9000001 	str	w1, [x0]
  97456c:	91220001 	add	x1, x0, #0x880
  974570:	b9088002 	str	w2, [x0, #2176]
  974574:	52a08080 	mov	w0, #0x4040000             	// #67371008
  974578:	b81fc020 	stur	w0, [x1, #-4]
  97457c:	d65f03c0 	ret

0000000000974580 <dram_pll_init>:
  974580:	d2800a01 	mov	x1, #0x50                  	// #80
  974584:	f2a606c1 	movk	x1, #0x3036, lsl #16
  974588:	b9400022 	ldr	w2, [x1]
  97458c:	32100042 	orr	w2, w2, #0x10000
  974590:	b9000022 	str	w2, [x1]
  974594:	b9400022 	ldr	w2, [x1]
  974598:	12167842 	and	w2, w2, #0xfffffdff
  97459c:	b9000022 	str	w2, [x1]
  9745a0:	7125801f 	cmp	w0, #0x960
  9745a4:	540004a0 	b.eq	974638 <dram_pll_init+0xb8>  // b.none
  9745a8:	54000248 	b.hi	9745f0 <dram_pll_init+0x70>  // b.pmore
  9745ac:	7110a81f 	cmp	w0, #0x42a
  9745b0:	54000500 	b.eq	974650 <dram_pll_init+0xd0>  // b.none
  9745b4:	7119001f 	cmp	w0, #0x640
  9745b8:	54000460 	b.eq	974644 <dram_pll_init+0xc4>  // b.none
  9745bc:	710a6c1f 	cmp	w0, #0x29b
  9745c0:	540004e0 	b.eq	97465c <dram_pll_init+0xdc>  // b.none
  9745c4:	b9400020 	ldr	w0, [x1]
  9745c8:	32170000 	orr	w0, w0, #0x200
  9745cc:	b9000020 	str	w0, [x1]
  9745d0:	d2800a00 	mov	x0, #0x50                  	// #80
  9745d4:	f2a606c0 	movk	x0, #0x3036, lsl #16
  9745d8:	b9400001 	ldr	w1, [x0]
