
/home/mx3g/linux/mpu/manual-build/sources/imx-atf/build-optee/imx8mp/release/bl31/bl31.elf:     file format elf64-littleaarch64
/home/mx3g/linux/mpu/manual-build/sources/imx-atf/build-optee/imx8mp/release/bl31/bl31.elf
architecture: aarch64, flags 0x00000112:
EXEC_P, HAS_SYMS, D_PAGED
start address 0x0000000000970000

Program Header:
    LOAD off    0x0000000000001000 vaddr 0x0000000000970000 paddr 0x0000000000970000 align 2**12
         filesz 0x000000000000bca8 memsz 0x000000000001c000 flags rwx
 DYNAMIC off    0x000000000000c2b0 vaddr 0x000000000097b2b0 paddr 0x000000000097b2b0 align 2**3
         filesz 0x00000000000000b0 memsz 0x00000000000000b0 flags rw-
   STACK off    0x0000000000000000 vaddr 0x0000000000000000 paddr 0x0000000000000000 align 2**4
         filesz 0x0000000000000000 memsz 0x0000000000000000 flags rw-

Dynamic Section:
  DEBUG                0x0000000000000000
  RELA                 0x000000000097b378
  RELASZ               0x0000000000000930
  RELAENT              0x0000000000000018
  FLAGS_1              0x0000000008000000
  RELACOUNT            0x0000000000000062
private flags = 0x0:

Sections:
Idx Name          Size      VMA               LMA               File off  Algn
  0 .ro           0000b000  0000000000970000  0000000000970000  00001000  2**11
                  CONTENTS, ALLOC, LOAD, CODE
  1 .data         000002ae  000000000097b000  000000000097b000  0000c000  2**3
                  CONTENTS, ALLOC, LOAD, DATA
  2 .dynamic      000000b0  000000000097b2b0  000000000097b2b0  0000c2b0  2**3
                  CONTENTS, ALLOC, LOAD, DATA
  3 .got.plt      00000018  000000000097b360  000000000097b360  0000c360  2**3
                  CONTENTS, ALLOC, LOAD, DATA
  4 .rela.dyn     00000930  000000000097b378  000000000097b378  0000c378  2**3
                  CONTENTS, ALLOC, LOAD, READONLY, DATA
  5 .stacks       00002c00  000000000097bcc0  000000000097bcc0  0000cca8  2**6
                  ALLOC
  6 .bss          00004300  000000000097e900  000000000097e900  0000cca8  2**7
                  ALLOC
  7 .xlat_table   00008000  0000000000983000  0000000000983000  0000cca8  2**12
                  ALLOC
  8 .coherent_ram 00001000  000000000098b000  000000000098b000  0000cca8  2**12
                  ALLOC
  9 .comment      0000002b  0000000000000000  0000000000000000  0000cca8  2**0
                  CONTENTS, READONLY
 10 .debug_frame  00000cd8  0000000000000000  0000000000000000  0000ccd8  2**3
                  CONTENTS, READONLY, DEBUGGING, OCTETS
SYMBOL TABLE:
0000000000970000 l    d  .ro	0000000000000000 .ro
000000000097b000 l    d  .data	0000000000000000 .data
000000000097b2b0 l    d  .dynamic	0000000000000000 .dynamic
000000000097b360 l    d  .got.plt	0000000000000000 .got.plt
000000000097b378 l    d  .rela.dyn	0000000000000000 .rela.dyn
000000000097bcc0 l    d  .stacks	0000000000000000 .stacks
000000000097e900 l    d  .bss	0000000000000000 .bss
0000000000983000 l    d  .xlat_table	0000000000000000 .xlat_table
000000000098b000 l    d  .coherent_ram	0000000000000000 .coherent_ram
0000000000000000 l    d  .comment	0000000000000000 .comment
0000000000000000 l    d  .debug_frame	0000000000000000 .debug_frame
0000000000000000 l    df *ABS*	0000000000000000 bl31_entrypoint.o
000000000097002c l       .ro	0000000000000000 do_cold_boot
000000000097002c l       .ro	0000000000000000 pie_fixup
0000000000970098 l       .ro	0000000000000000 do_primary_cold_boot
0000000000970140 l       .ro	0000000000000000 stm
0000000000000000 l    df *ABS*	0000000000000000 bl31_context_mgmt.c
0000000000000000 l    df *ABS*	0000000000000000 bl31_main.c
000000000097fc80 l     O .bss	0000000000000008 bl32_init
000000000097b220 l     O .data	0000000000000004 next_image_type
000000000097b000 l     O .data	0000000000000010 psci_args.0
0000000000000000 l    df *ABS*	0000000000000000 bl31_traps.c
0000000000000000 l    df *ABS*	0000000000000000 interrupt_mgmt.c
0000000000970344 l     F .ro	0000000000000084 set_scr_el3_from_rm
000000000097fc88 l     O .bss	0000000000000060 intr_type_descs
0000000000000000 l    df *ABS*	0000000000000000 bl_common.c
0000000000000000 l    df *ABS*	0000000000000000 runtime_svc.c
0000000000000000 l    df *ABS*	0000000000000000 tf_log.c
000000000097b224 l     O .data	0000000000000004 max_log_level
0000000000000000 l    df *ABS*	0000000000000000 arm_gicv3_common.c
0000000000000000 l    df *ABS*	0000000000000000 gic-x00.c
0000000000000000 l    df *ABS*	0000000000000000 gicdv3_helpers.c
0000000000000000 l    df *ABS*	0000000000000000 gicrv3_helpers.c
0000000000000000 l    df *ABS*	0000000000000000 gicv3_helpers.c
0000000000000000 l    df *ABS*	0000000000000000 gicv3_main.c
0000000000970e48 l     F .ro	000000000000000c gicd_wait_for_pending_write
0000000000970e48 l     F .ro	000000000000000c gicr_wait_for_upstream_pending_write
0000000000970e54 l     F .ro	000000000000000c gicr_wait_for_pending_write
0000000000000000 l    df *ABS*	0000000000000000 tzc380.c
0000000000000000 l    df *ABS*	0000000000000000 multi_console.c
000000000097b2ac l     O .data	0000000000000001 console_state
0000000000000000 l    df *ABS*	0000000000000000 delay_timer.c
000000000097fd08 l     O .bss	0000000000000008 timer_ops
0000000000000000 l    df *ABS*	0000000000000000 generic_delay_timer.c
00000000009719a4 l     F .ro	000000000000000c get_timer_value
000000000097fd10 l     O .bss	0000000000000010 ops
0000000000000000 l    df *ABS*	0000000000000000 errata_report.c
0000000000000000 l    df *ABS*	0000000000000000 context_mgmt.c
0000000000971a18 l     F .ro	000000000000001c read_feat_mpam_version
0000000000982b68 l     O .bss	0000000000000001 has_secure_perworld_init
0000000000000000 l    df *ABS*	0000000000000000 mpam.c
0000000000000000 l    df *ABS*	0000000000000000 pmuv3.c
0000000000000000 l    df *ABS*	0000000000000000 spe.c
0000000000971ea0 l     F .ro	0000000000000024 spe_drain_buffers_hook
0000000000000000 l    df *ABS*	0000000000000000 sve.c
0000000000000000 l    df *ABS*	0000000000000000 bakery_lock_coherent.c
0000000000000000 l    df *ABS*	0000000000000000 psci_common.c
0000000000972008 l     F .ro	0000000000000034 psci_set_req_local_pwr_state
0000000000982b69 l     O .bss	0000000000000008 psci_req_local_pwr_states
0000000000000000 l    df *ABS*	0000000000000000 psci_main.c
00000000009727d0 l     F .ro	000000000000001c is_valid_mpidr
0000000000000000 l    df *ABS*	0000000000000000 psci_mem_protect.c
0000000000000000 l    df *ABS*	0000000000000000 psci_off.c
0000000000000000 l    df *ABS*	0000000000000000 psci_on.c
0000000000000000 l    df *ABS*	0000000000000000 psci_setup.c
000000000097ea00 l     O .bss	0000000000000900 psci_ns_context
0000000000000000 l    df *ABS*	0000000000000000 psci_suspend.c
0000000000000000 l    df *ABS*	0000000000000000 psci_system_off.c
0000000000000000 l    df *ABS*	0000000000000000 xlat_tables_arch.c
0000000000000000 l    df *ABS*	0000000000000000 xlat_tables_context.c
0000000000982b80 l     O .bss	0000000000000080 tf_base_xlat_table
000000000097fda8 l     O .bss	00000000000002a8 tf_mmap
000000000097b010 l     O .data	0000000000000060 tf_xlat_ctx
0000000000983000 l     O .xlat_table	0000000000008000 tf_xlat_tables
0000000000000000 l    df *ABS*	0000000000000000 xlat_tables_core.c
0000000000973a1c l     F .ro	0000000000000040 xlat_clean_dcache_range
0000000000973b48 l     F .ro	0000000000000220 xlat_tables_map_region
0000000000000000 l    df *ABS*	0000000000000000 xlat_tables_utils.c
0000000000000000 l    df *ABS*	0000000000000000 plat_common.c
0000000000000000 l    df *ABS*	0000000000000000 plat_bl_common.c
0000000000000000 l    df *ABS*	0000000000000000 plat_gicv3.c
0000000000979b3f l     O .ro	0000000000000004 CSWTCH.13
0000000000000000 l    df *ABS*	0000000000000000 plat_log_common.c
000000000097b070 l     O .data	0000000000000028 plat_prefix_str
0000000000000000 l    df *ABS*	0000000000000000 plat_psci_common.c
0000000000000000 l    df *ABS*	0000000000000000 imx8_topology.c
0000000000000000 l    df *ABS*	0000000000000000 imx_sip_handler.c
0000000000980050 l     O .bss	0000000000000058 bl33_image_ep_info.0
0000000000000000 l    df *ABS*	0000000000000000 imx_sip_svc.c
0000000000974360 l     F .ro	0000000000000008 imx_sip_setup
0000000000974368 l     F .ro	00000000000000f0 imx_sip_handler
0000000000979c08 l     O .ro	0000000000000020 __svc_desc_imx_sip_svc
0000000000000000 l    df *ABS*	0000000000000000 plat_imx8_gic.c
0000000000974458 l     F .ro	0000000000000004 plat_imx_mpidr_to_core_pos
00000000009795a4 l     O .ro	0000000000000004 g01s_interrupt_props
0000000000000000 l    df *ABS*	0000000000000000 clock.c
0000000000000000 l    df *ABS*	0000000000000000 ddr4_dvfs.c
0000000000000000 l    df *ABS*	0000000000000000 dram.c
0000000000974adc l     F .ro	0000000000000088 waiting_dvfs
0000000000974b64 l     F .ro	00000000000000a0 lpddr4_mr_read.constprop.0
0000000000982adc l     O .bss	0000000000000004 wfe_done
000000000097b2ad l     O .data	0000000000000001 wait_ddrc_hwffc_done
00000000009795ac l     O .ro	0000000000000030 fsp_init_reg
0000000000000000 l    df *ABS*	0000000000000000 dram_retention.c
0000000000000000 l    df *ABS*	0000000000000000 lpddr4_dvfs.c
0000000000975540 l     F .ro	0000000000000040 lpddr4_mr_write.constprop.0
0000000000000000 l    df *ABS*	0000000000000000 gpc_common.c
00000000009795dc l     O .ro	0000000000000010 gpc_imr_offset
0000000000000000 l    df *ABS*	0000000000000000 imx8m_caam.c
0000000000000000 l    df *ABS*	0000000000000000 imx8m_csu.c
0000000000000000 l    df *ABS*	0000000000000000 imx8m_psci_common.c
0000000000000000 l    df *ABS*	0000000000000000 gpc.c
0000000000982ae0 l     O .bss	0000000000000004 pu_domain_status
000000000097b0c8 l     O .data	0000000000000050 aipstz5
000000000097b27c l     O .data	0000000000000024 hsiomix_clk
00000000009795f0 l     O .ro	0000000000000120 noc_setting
0000000000979710 l     O .ro	0000000000000190 pu_domains
0000000000000000 l    df *ABS*	0000000000000000 imx8mp_bl31_setup.c
00000000009829f0 l     O .bss	0000000000000058 bl32_image_ep_info
0000000000982a48 l     O .bss	0000000000000058 bl33_image_ep_info
0000000000982aa0 l     O .bss	0000000000000028 console.0
00000000009791f0 l     O .ro	00000000000000c8 aipstz
00000000009798a0 l     O .ro	0000000000000018 csu_cfg
00000000009792b8 l     O .ro	00000000000001e0 imx_mmap
00000000009798b8 l     O .ro	0000000000000064 rdc
0000000000000000 l    df *ABS*	0000000000000000 imx8mp_psci.c
000000000097b118 l     O .data	00000000000000b0 imx_plat_psci_ops
0000000000000000 l    df *ABS*	0000000000000000 imx_aipstz.c
0000000000000000 l    df *ABS*	0000000000000000 imx_hab.c
0000000000000000 l    df *ABS*	0000000000000000 imx_rdc.c
0000000000000000 l    df *ABS*	0000000000000000 arm_arch_svc_setup.c
00000000009773c0 l     F .ro	000000000000013c arm_arch_svc_smc_handler
0000000000979c28 l     O .ro	0000000000000020 __svc_desc_arm_arch_svc
0000000000000000 l    df *ABS*	0000000000000000 opteed_common.c
0000000000000000 l    df *ABS*	0000000000000000 opteed_main.c
00000000009775fc l     F .ro	0000000000000074 opteed_sel1_interrupt_handler
0000000000977670 l     F .ro	00000000000001f8 opteed_smc_handler
0000000000977868 l     F .ro	000000000000007c opteed_setup
00000000009778e4 l     F .ro	0000000000000048 opteed_init
0000000000979c48 l     O .ro	0000000000000020 __svc_desc_opteed_std
0000000000979c68 l     O .ro	0000000000000020 __svc_desc_opteed_fast
0000000000000000 l    df *ABS*	0000000000000000 opteed_pm.c
000000000097792c l     F .ro	0000000000000004 opteed_cpu_on_handler
0000000000977930 l     F .ro	0000000000000008 opteed_cpu_migrate_info
00000000009779d8 l     F .ro	0000000000000068 opteed_system_reset
0000000000977a40 l     F .ro	0000000000000068 opteed_system_off
0000000000977aa8 l     F .ro	0000000000000098 opteed_cpu_suspend_finish_handler
0000000000977b40 l     F .ro	0000000000000094 opteed_cpu_suspend_handler
0000000000977bd4 l     F .ro	0000000000000088 opteed_cpu_off_handler
0000000000000000 l    df *ABS*	0000000000000000 std_svc_setup.c
0000000000977c5c l     F .ro	00000000000000b8 std_svc_smc_handler
0000000000977d14 l     F .ro	0000000000000024 std_svc_setup
0000000000979c88 l     O .ro	0000000000000020 __svc_desc_std_svc
0000000000000000 l    df *ABS*	0000000000000000 crash_reporting.o
0000000000000000 l    df *ABS*	0000000000000000 runtime_exceptions.o
0000000000977ea8 l     F .ro	0000000000000080 reflect_pending_async_ea_to_lower_el
0000000000977d3c l       .ro	0000000000000000 smc_handler32
0000000000977d40 l       .ro	0000000000000000 sync_handler64
0000000000977e70 l     F .ro	0000000000000038 imp_def_el3_handler
0000000000977e1c l     F .ro	0000000000000054 handle_interrupt_exception
0000000000977d3c l     F .ro	00000000000000e0 sync_exception_handler
0000000000977e04 l       .ro	0000000000000000 smc_prohibited
0000000000977dc8 l       .ro	0000000000000000 sysreg_handler64
0000000000977df8 l       .ro	0000000000000000 smc_unknown
0000000000977e6c l       .ro	0000000000000000 interrupt_exit
0000000000977e94 l       .ro	0000000000000000 el3_handler_exit
0000000000977ec8 l       .ro	0000000000000000 check_loop_ctr
0000000000977edc l       .ro	0000000000000000 skip_loop_ctr
0000000000977f10 l       .ro	0000000000000000 skip_smc_check
0000000000977f0c l       .ro	0000000000000000 subtract_elr_el3
0000000000000000 l    df *ABS*	0000000000000000 debug.o
0000000000979bed l       .ro	0000000000000000 panic_msg
0000000000977f7c l       .ro	0000000000000000 panic_common
0000000000977fa4 l       .ro	0000000000000000 _panic_handler
0000000000000000 l    df *ABS*	0000000000000000 cache_helpers.o
0000000000977fe0 l       .ro	0000000000000000 exit_loop_civac
0000000000977fcc l       .ro	0000000000000000 loop_civac
0000000000978018 l       .ro	0000000000000000 exit_loop_cvac
0000000000978004 l       .ro	0000000000000000 loop_cvac
0000000000978050 l       .ro	0000000000000000 exit_loop_ivac
000000000097803c l       .ro	0000000000000000 loop_ivac
0000000000978054 l     F .ro	000000000000009c do_dcsw_op
00000000009780ec l       .ro	0000000000000000 exit
00000000009780f0 l       .ro	0000000000000000 dcsw_loop_table
0000000000978070 l       .ro	0000000000000000 loop1
00000000009780d4 l       .ro	0000000000000000 level_done
00000000009780f0 l       .ro	0000000000000000 loop2_isw
00000000009780f4 l       .ro	0000000000000000 loop3_isw
0000000000978110 l       .ro	0000000000000000 loop2_cisw
0000000000978114 l       .ro	0000000000000000 loop3_cisw
0000000000978130 l       .ro	0000000000000000 loop2_csw
0000000000978134 l       .ro	0000000000000000 loop3_csw
0000000000000000 l    df *ABS*	0000000000000000 misc_helpers.o
000000000097818c l     F .ro	00000000000000e8 zeromem_dczva
0000000000000000 l    df *ABS*	0000000000000000 cortex_a53.o
000000000097830c l     F .ro	0000000000000014 cortex_a53_disable_dcache
0000000000978320 l     F .ro	0000000000000018 cortex_a53_disable_smp
0000000000978338 l     F .ro	0000000000000008 check_erratum_cortex_a53_819472
0000000000979498 l       .ro	0000000000000000 cortex_a53_errata_list_start
0000000000978340 l     F .ro	0000000000000008 check_erratum_cortex_a53_824069
0000000000978348 l     F .ro	0000000000000008 check_erratum_cortex_a53_826319
0000000000978350 l     F .ro	0000000000000008 check_erratum_cortex_a53_827319
0000000000978358 l     F .ro	0000000000000024 check_erratum_cortex_a53_835769
0000000000978374 l       .ro	0000000000000000 errata_not_applies
0000000000978378 l       .ro	0000000000000000 exit_check_errata_835769
000000000097837c l     F .ro	0000000000000008 check_erratum_cortex_a53_836870
0000000000978384 l     F .ro	0000000000000024 check_erratum_cortex_a53_843419
00000000009783a4 l       .ro	0000000000000000 exit_check_errata_843419
00000000009783a8 l     F .ro	0000000000000020 erratum_cortex_a53_855873_wa
00000000009783c8 l     F .ro	0000000000000008 check_erratum_cortex_a53_855873
00000000009783c4 l       .ro	0000000000000000 erratum_cortex_a53_855873_skip
00000000009783d0 l     F .ro	0000000000000008 check_erratum_cortex_a53_1530924
00000000009783d8 l     F .ro	0000000000000058 cortex_a53_reset_func
0000000000979570 l       .ro	0000000000000000 cortex_a53_errata_list_end
00000000009783f4 l       .ro	0000000000000000 errata_begin
000000000097841c l       .ro	0000000000000000 errata_end
0000000000978430 l     F .ro	0000000000000018 cortex_a53_core_pwr_dwn
0000000000978448 l     F .ro	0000000000000024 cortex_a53_cluster_pwr_dwn
0000000000000000 l    df *ABS*	0000000000000000 cpu_helpers.o
000000000097850c l       .ro	0000000000000000 search_def_ptr
0000000000000000 l    df *ABS*	0000000000000000 context.o
00000000009787bc l       .ro	0000000000000000 realm_state
00000000009787c0 l       .ro	0000000000000000 end
00000000009787f0 l       .ro	0000000000000000 sve_not_enabled
0000000000978818 l       .ro	0000000000000000 no_mpam
0000000000000000 l    df *ABS*	0000000000000000 cpu_data.o
0000000000000000 l    df *ABS*	0000000000000000 spinlock.o
0000000000978880 l       .ro	0000000000000000 l1
0000000000978884 l       .ro	0000000000000000 l2
0000000000000000 l    df *ABS*	0000000000000000 psci_helpers.o
0000000000000000 l    df *ABS*	0000000000000000 enable_mmu.o
0000000000000000 l    df *ABS*	0000000000000000 platform_helpers.o
0000000000000000 l    df *ABS*	0000000000000000 platform_mp_stack.o
000000000097bcc0 l       .stacks	0000000000000000 platform_normal_stacks
0000000000000006 l       *ABS*	0000000000000000 TZ_COUNT
0000000000000000 l    df *ABS*	0000000000000000 imx8_helpers.o
000000000097b218 l       .data	0000000000000000 mailbox_base
0000000000978a00 l       .ro	0000000000000000 A72
0000000000000000 l    df *ABS*	0000000000000000 imx_uart_console.o
0000000000978a8c l       .ro	0000000000000000 register_fail
0000000000978af8 l       .ro	0000000000000000 putc_error
0000000000978b10 l       .ro	0000000000000000 flush_exit
0000000000000000 l    df *ABS*	0000000000000000 opteed_helpers.o
0000000000000000 l    df *ABS*	0000000000000000 memcmp.c
0000000000000000 l    df *ABS*	0000000000000000 memcpy.c
0000000000000000 l    df *ABS*	0000000000000000 memmove.c
0000000000000000 l    df *ABS*	0000000000000000 memset.c
0000000000000000 l    df *ABS*	0000000000000000 printf.c
0000000000978c64 l     F .ro	00000000000000e8 unsigned_num_print.part.0
0000000000000000 l    df *ABS*	0000000000000000 strchr.c
0000000000000000 l    df *ABS*	0000000000000000 strlen.c
0000000000000000 l    df *ABS*	0000000000000000 <stdin>
0000000000000000 l    df *ABS*	0000000000000000 
000000000097b2b0 l     O *ABS*	0000000000000000 _DYNAMIC
0000000000979cf8 l     O *ABS*	0000000000000000 _GLOBAL_OFFSET_TABLE_
000000000097096c g     F .ro	0000000000000014 gicd_read_nsacr
00000000009718b4 g     F .ro	0000000000000028 putchar
0000000000970b50 g     F .ro	000000000000001c gicv3_get_spi_limit
0000000000971dec g     F .ro	0000000000000054 cm_prepare_el3_exit
0000000000970e30 g     F .ro	0000000000000018 gicv3_get_component_prodid_rev
0000000000971800 g     F .ro	0000000000000018 console_set_scope
00000000009740f8  w    F .ro	0000000000000008 plat_is_smccc_feature_available
0000000000976c38 g     F .ro	0000000000000058 imx_noc_wrapper_pre_suspend
0000000000982b80 g       .bss	0000000000000000 __PMF_TIMESTAMP_START__
000000000097b1c8 g     O .data	0000000000000008 g_hab_rvt_api
0000000000974128  w    F .ro	0000000000000034 plat_ic_get_pending_interrupt_type
00000000009708c0 g     F .ro	0000000000000014 gicd_write_igrpmodr
0000000000971cf8 g     F .ro	0000000000000070 cm_el1_sysregs_context_restore
0000000000978ac8 g     F .ro	0000000000000038 console_imx_uart_putc
0000000000972ae8 g     F .ro	0000000000000028 psci_migrate_info_up_cpu
000000000098c000 g       .coherent_ram	0000000000000000 __BL31_END__
000000000097fcf0 g     O .bss	0000000000000010 tzc380
00000000009717c0 g     F .ro	0000000000000034 console_register
0000000000972850 g     F .ro	0000000000000104 psci_cpu_suspend
000000000098c000 g       .coherent_ram	0000000000000000 __COHERENT_RAM_END__
000000000097846c g     F .ro	0000000000000020 reset_handler
000000000097a600 g     F .ro	0000000000000000 sync_exception_aarch32
0000000000978184 g     F .ro	0000000000000008 zeromem
0000000000979982 g     O .ro	000000000000002a version_string
0000000000977f70 g     F .ro	0000000000000008 asm_print_newline
0000000000979e20 g       .ro	0000000000000000 __pubsub_psci_suspend_pwrdown_finish_end
0000000000972590 g     F .ro	00000000000000f4 psci_validate_entry_point
0000000000973f9c g     F .ro	000000000000003c mmap_add_ctx
0000000000970538 g     F .ro	0000000000000004 print_entry_point_info
00000000009701a8 g     F .ro	0000000000000014 cm_get_context
000000000097fd90 g     O .bss	0000000000000018 mmu_cfg_params
00000000009740dc g     F .ro	0000000000000004 xlat_tables_print
0000000000972538 g     F .ro	0000000000000058 psci_release_pwr_domain_locks
000000000097423c g     F .ro	000000000000003c plat_core_pos_by_mpidr
000000000097203c g     F .ro	0000000000000028 psci_validate_power_state
000000000097b000 g       .ro	0000000000000000 __RW_START__
0000000000978274 g     F .ro	0000000000000098 fixup_gdt_reloc
00000000009736a8 g     F .ro	00000000000000a8 psci_cpu_suspend_finish
0000000000983000 g       .xlat_table	0000000000000000 __XLAT_TABLE_START__
000000000097b098 g     O .data	0000000000000030 arm_gic_data
0000000000977174 g     F .ro	0000000000000028 bl31_plat_get_next_image_ep_info
0000000000978164 g     F .ro	0000000000000010 dcsw_op_level1
0000000000975fb0 g     F .ro	000000000000001c imx_set_rbc_count
0000000000970770 g     F .ro	000000000000001c gicv3_check_erratas_applies
0000000000978bb4 g     F .ro	0000000000000034 memmove
0000000000982ae8 g     O .bss	0000000000000080 rt_svc_descs_indices
0000000000970930 g     F .ro	0000000000000014 gicd_write_isenabler
00000000009771a8 g     F .ro	0000000000000030 plat_setup_psci_ops
000000000097a200 g     F .ro	0000000000000000 sync_exception_sp_elx
0000000000970958 g     F .ro	0000000000000014 gicd_write_ispendr
000000000097390c g     F .ro	000000000000007c setup_mmu_cfg
0000000000971e40 g     F .ro	0000000000000008 cm_prepare_el3_exit_ns
000000000097a000 g     F .ro	0000000000000000 sync_exception_sp_el0
0000000000978a48 g     F .ro	0000000000000048 console_imx_uart_register
0000000000978910 g     F .ro	000000000000000c psci_power_down_wfi
0000000000974534 g     F .ro	0000000000000050 plat_gic_restore
0000000000971068 g     F .ro	0000000000000040 gicv3_cpuif_disable
00000000009788dc g     F .ro	0000000000000034 psci_do_pwrup_cache_maintenance
00000000009729e0 g     F .ro	0000000000000060 psci_affinity_info
0000000000970330 g     F .ro	000000000000000c bl31_register_bl32_init
00000000009741d8  w    F .ro	0000000000000030 plat_log_get_prefix
0000000000972a40 g     F .ro	0000000000000090 psci_migrate
00000000009741c0 g     F .ro	000000000000000c plat_ic_has_interrupt_type
0000000000974620 g     F .ro	0000000000000120 dram_pll_init
0000000000970ae4 g     F .ro	000000000000006c gicv3_rdistif_base_addrs_probe
0000000000979964 g     O .ro	000000000000001e build_message
000000000097b228 g     O .data	0000000000000004 dev_fsp
000000000097654c  w    F .ro	00000000000000e8 imx_domain_suspend
0000000000978798 g     F .ro	00000000000000b4 el3_exit
0000000000973190 g     F .ro	0000000000000340 psci_setup
00000000009701bc g     F .ro	0000000000000014 cm_set_context
0000000000973998 g     F .ro	000000000000003c init_xlat_tables
0000000000974100 g     F .ro	0000000000000028 setup_page_tables
00000000009740e0  w    F .ro	0000000000000008 bl31_plat_runtime_setup
000000000097b000 g       .data	0000000000000000 __DATA_START__
000000000098b000 g     O .coherent_ram	0000000000000020 psci_locks
0000000000978974  w    F .ro	0000000000000004 plat_disable_acp
0000000000975a48 g     F .ro	0000000000000018 imx_is_m4_enabled
0000000000972498 g     F .ro	0000000000000034 psci_find_target_suspend_lvl
00000000009738ec g     F .ro	0000000000000014 xlat_arch_regime_get_xn_desc
000000000097082c g     F .ro	000000000000001c gicd_set_isenabler
0000000000973170 g     F .ro	0000000000000020 psci_arch_setup
0000000000978548 g     F .ro	0000000000000020 check_wa_cve_2017_5715
0000000000976494 g     F .ro	0000000000000014 imx_pwr_domain_on_finish
0000000000973790 g     F .ro	0000000000000040 psci_system_reset
0000000000970848 g     F .ro	0000000000000014 gicd_set_ipriorityr
0000000000978b94 g     F .ro	0000000000000020 memcpy
0000000000971e60 g     F .ro	0000000000000040 pmuv3_init_el3
0000000000972954 g     F .ro	0000000000000084 psci_system_suspend
000000000097a380 g     F .ro	0000000000000000 serror_sp_elx
0000000000971c28 g     F .ro	0000000000000030 cm_init_context_by_index
0000000000975348 g     F .ro	00000000000001f8 dram_exit_retention
0000000000970ed4 g     F .ro	0000000000000074 gicv3_distif_init
0000000000975580 g     F .ro	00000000000004a4 lpddr4_swffc
0000000000976254 g     F .ro	00000000000000a4 imx8m_caam_init
000000000097a080 g     F .ro	0000000000000000 irq_sp_el0
000000000097818c g     F .ro	00000000000000e8 zero_normalmem
0000000000972254 g     F .ro	0000000000000048 psci_get_parent_pwr_domain_nodes
0000000000970e60 g     F .ro	0000000000000074 gicv3_driver_init
0000000000982ad8 g     O .bss	0000000000000004 dfs_lock
0000000000979e20 g     O .ro	0000000000000008 __cb_func_spe_drain_buffers_hookcm_entering_secure_world
0000000000978b00 g     F .ro	0000000000000014 console_imx_uart_flush
0000000000977938 g     F .ro	00000000000000a0 opteed_cpu_on_finish_handler
0000000000973750 g     F .ro	0000000000000040 psci_system_off
0000000000978a44 g     F .ro	0000000000000004 platform_mem_init
000000000097b22c g     O .data	0000000000000050 pll
0000000000979e28 g       .ro	0000000000000000 __pubsub_cm_exited_secure_world_end
0000000000973988 g     F .ro	0000000000000010 mmap_add
0000000000970148 g     F .ro	0000000000000060 bl31_warm_entrypoint
0000000000974cdc g     F .ro	000000000000022c dram_info_init
000000000097719c g     F .ro	000000000000000c plat_get_syscnt_freq2
0000000000978978  w    F .ro	0000000000000008 plat_panic_handler
0000000000978a20 g     F .ro	000000000000000c imx_mailbox_init
0000000000979c08 g       .ro	0000000000000000 __RT_SVC_DESCS_START__
000000000097670c  w    F .ro	0000000000000014 imx_get_sys_suspend_power_state
0000000000971ee0 g     F .ro	0000000000000020 sve_enable_per_world
000000000097e8c0 g       .stacks	0000000000000000 __STACKS_END__
0000000000970ac8 g     F .ro	000000000000001c gicv3_rdistif_mark_core_asleep
0000000000979e20 g       .ro	0000000000000000 __pubsub_psci_suspend_pwrdown_start_end
0000000000978568 g     F .ro	0000000000000020 check_smccc_arch_wa3_applies
0000000000977fe4 g     F .ro	0000000000000038 clean_dcache_range
000000000097848c g     F .ro	0000000000000024 prepare_cpu_pwr_dwn
0000000000975a24 g     F .ro	0000000000000024 imx_m4_lpa_active
00000000009774fc g     F .ro	00000000000000a8 opteed_init_optee_ep_state
0000000000978748 g     F .ro	0000000000000050 restore_gp_pmcr_pauth_regs
0000000000970768 g     F .ro	0000000000000004 gicv3_distif_post_restore
0000000000972684 g     F .ro	00000000000000dc psci_warmboot_entrypoint
0000000000971f00 g     F .ro	0000000000000018 sve_disable_per_world
0000000000970a90 g     F .ro	0000000000000038 gicv3_rdistif_mark_core_awake
0000000000979e28 g       .ro	0000000000000000 __pubsub_cm_exited_normal_world_start
00000000009789a4  w    F .ro	0000000000000010 plat_set_my_stack
00000000009701fc g     F .ro	0000000000000030 cm_set_context_by_index
0000000000979ca8 g       .ro	0000000000000000 __RT_SVC_DESCS_END__
0000000000974178  w    F .ro	0000000000000048 plat_interrupt_type_to_line
0000000000971c88 g     F .ro	0000000000000070 cm_el1_sysregs_context_save
0000000000977f40 g     F .ro	0000000000000030 asm_print_hex
000000000097706c g     F .ro	00000000000000b0 bl31_plat_arch_setup
00000000009702c0 g     F .ro	0000000000000070 bl31_main
000000000097fd40 g     O .bss	0000000000000040 psci_cpu_pd_nodes
00000000009727cc g     F .ro	0000000000000004 psci_pwrdown_cpu
0000000000977f28 g     F .ro	0000000000000018 asm_print_str
0000000000975b0c  w    F .ro	00000000000000e0 imx_set_cpu_pwr_on
0000000000975eb8  w    F .ro	0000000000000094 imx_noc_slot_config
00000000009775d4 g     F .ro	0000000000000028 opteed_synchronous_sp_exit
0000000000978980  w    F .ro	0000000000000004 bl31_plat_enable_mmu
00000000009771d8 g     F .ro	0000000000000048 imx_aipstz_init
0000000000971a34 g     F .ro	0000000000000004 cm_init
00000000009767a8 g     F .ro	0000000000000490 imx_gpc_pm_domain_enable
0000000000978a3c g     F .ro	0000000000000008 plat_crash_console_flush
000000000097a000 g       .ro	0000000000000000 runtime_exceptions
0000000000976050  w    F .ro	0000000000000034 imx_gpc_handler
00000000009800a8 g     O .bss	0000000000000020 rdistif_base_addrs
0000000000970980 g     F .ro	0000000000000014 gicd_write_nsacr
0000000000971d68 g     F .ro	0000000000000024 cm_set_elr_el3
0000000000970994 g     F .ro	0000000000000014 gicr_write_ipriorityr
0000000000979e28 g       .ro	0000000000000000 __pubsub_cm_exited_secure_world_start
00000000009727a4 g     F .ro	0000000000000024 psci_spd_migrate_info
0000000000976758 g     F .ro	000000000000001c imx_system_off
0000000000978860 g     F .ro	0000000000000018 _cpu_data_by_index
0000000000977220 g     F .ro	0000000000000108 imx_hab_handler
00000000009727c8 g     F .ro	0000000000000004 psci_print_power_domain_map
000000000097a800 g       .ro	0000000000000000 __RO_END_UNALIGNED__
0000000000970000 g       .ro	0000000000000000 RAM_REGION_START
0000000000974208 g     F .ro	0000000000000028 plat_get_target_pwr_state
0000000000971818 g     F .ro	000000000000009c console_putc
0000000000978a2c g     F .ro	0000000000000004 plat_secondary_cold_boot_setup
0000000000970a58 g     F .ro	0000000000000038 gicr_set_icfgr
000000000097b1d0 g     O .data	0000000000000048 opteed_pm
00000000009712d0 g     F .ro	00000000000001f4 gicv3_distif_save
0000000000970870 g     F .ro	0000000000000014 gicd_write_icfgr
0000000000978984  w    F .ro	0000000000000004 plat_handle_el3_ea
0000000000975fcc g     F .ro	0000000000000018 imx_clear_rbc_count
00000000009762f8 g     F .ro	0000000000000150 imx_csu_init
0000000000972078 g     F .ro	0000000000000070 psci_is_last_on_cpu
0000000000978a30 g     F .ro	0000000000000008 plat_crash_console_init
000000000097a680 g     F .ro	0000000000000000 irq_aarch32
0000000000976c90 g     F .ro	00000000000000b0 imx_noc_wrapper_post_resume
0000000000977fac g     F .ro	0000000000000038 flush_dcache_range
0000000000978b14 g     F .ro	0000000000000028 opteed_enter_sp
0000000000971998 g     F .ro	000000000000000c timer_init
0000000000976f14 g     F .ro	0000000000000158 bl31_early_platform_setup2
0000000000979ca8 g       .ro	0000000000000000 __PMF_SVC_DESCS_END__
000000000097bca8 g       .rela.dyn	0000000000000000 __RELA_END__
0000000000976084  w    F .ro	00000000000001d0 imx_src_handler
000000000097b378 g       .rela.dyn	0000000000000000 __RELA_START__
000000000098c000 g       .coherent_ram	0000000000000000 RAM_REGION_END
00000000009711ac g     F .ro	0000000000000124 gicv3_rdistif_init_restore
000000000097a180 g     F .ro	0000000000000000 serror_sp_el0
0000000000978d4c g     F .ro	0000000000000460 vprintf
0000000000976520 g     F .ro	000000000000002c imx_cpu_standby
00000000009748ec g     F .ro	00000000000000d8 sw_pstate
00000000009703f8 g     F .ro	0000000000000098 set_routing_model
00000000009738e0 g     F .ro	000000000000000c is_dcache_enabled
0000000000977d38 g     F .ro	0000000000000004 report_unhandled_exception
00000000009745c0 g     F .ro	000000000000003c ddr_pll_bypass_400mts
0000000000973094 g     F .ro	00000000000000dc psci_cpu_on_finish
0000000000978150 g     F .ro	0000000000000014 dcsw_op_all
00000000009729d8 g     F .ro	0000000000000008 psci_cpu_off
00000000009789dc g     F .ro	0000000000000038 plat_reset_handler
000000000097891c g     F .ro	0000000000000058 enable_mmu_direct_el3
0000000000975a60 g     F .ro	000000000000002c imx_set_cpu_secure_entry
0000000000970f48 g     F .ro	0000000000000090 gicv3_rdistif_init
0000000000979e28 g       .ro	0000000000000000 __pubsub_cm_entering_normal_world_end
00000000009784d0 g     F .ro	0000000000000040 get_cpu_ops_ptr
0000000000970000 g     F .ro	0000000000000138 bl31_entrypoint
00000000009701d0 g     F .ro	000000000000002c cm_get_context_by_index
00000000009709a8 g     F .ro	0000000000000018 gicr_set_ipriorityr
0000000000971c58 g     F .ro	0000000000000030 cm_init_my_context
000000000097a580 g     F .ro	0000000000000000 serror_aarch64
000000000097415c  w    F .ro	000000000000000c plat_ic_acknowledge_interrupt
00000000009709c0 g     F .ro	0000000000000028 gicr_clr_igroupr
000000000097884c g     F .ro	0000000000000014 init_cpu_data_ptr
0000000000973900 g     F .ro	000000000000000c xlat_arch_current_el
0000000000970c04 g     F .ro	00000000000000f0 gicv3_secure_spis_config_props
000000000097085c g     F .ro	0000000000000014 gicd_read_icfgr
0000000000973880 g     F .ro	0000000000000014 xlat_arch_get_pas
00000000009708d4 g     F .ro	0000000000000010 gicd_read_ipriorityr
0000000000972dd8 g     F .ro	0000000000000158 psci_do_cpu_off
00000000009764a8  w    F .ro	0000000000000024 imx_pwr_domain_off
0000000000982ad4 g     O .bss	0000000000000004 psci_caps
000000000097033c g     F .ro	0000000000000008 handle_sysreg_trap
0000000000971a38 g     F .ro	00000000000001a8 cm_setup_context
0000000000970000 g       .ro	0000000000000000 __BL31_START__
000000000097a280 g     F .ro	0000000000000000 irq_sp_elx
0000000000982b80 g       .bss	0000000000000000 __PMF_PERCPU_TIMESTAMP_END__
000000000097a100 g     F .ro	0000000000000000 fiq_sp_el0
000000000097b2ae g       .data	0000000000000000 __DATA_END__
0000000000976d40 g     F .ro	00000000000001d4 imx_gpc_init
0000000000977f44 g       .ro	0000000000000000 asm_print_hex_bits
0000000000975bec  w    F .ro	00000000000000d0 imx_set_cpu_lpm
0000000000982b80 g       .bss	0000000000000000 __BASE_XLAT_TABLE_START__
00000000009707e4 g     F .ro	0000000000000024 gicd_set_igrpmodr
0000000000979ca8 g       .ro	0000000000000000 __CPU_OPS_START__
0000000000971930 g     F .ro	0000000000000068 udelay
0000000000973894 g     F .ro	000000000000004c tcr_physical_addr_size_bits
0000000000970cf4 g     F .ro	0000000000000070 gicv3_ppi_sgi_config_defaults
000000000097801c g     F .ro	0000000000000038 inv_dcache_range
0000000000974870 g     F .ro	000000000000007c dram_cfg_all_mr
000000000097b2a0 g     O .data	000000000000000c pd_init_on
0000000000977328 g     F .ro	0000000000000098 imx_rdc_init
000000000097645c g     F .ro	0000000000000038 imx_pwr_domain_on
0000000000972bdc g     F .ro	0000000000000150 psci_smc_handler
00000000009719d0 g     F .ro	0000000000000044 generic_delay_timer_init
00000000009734d0 g     F .ro	00000000000001d8 psci_cpu_suspend_start
00000000009720e8 g     F .ro	0000000000000058 psci_init_req_local_pwr_states
0000000000979e28 g       .ro	0000000000000000 __pubsub_cm_entering_secure_world_end
0000000000976634  w    F .ro	00000000000000d8 imx_domain_suspend_finish
00000000009719b0 g     F .ro	0000000000000020 generic_delay_timer_init_args
00000000009721d0 g     F .ro	0000000000000084 psci_set_target_local_pwr_states
0000000000978b60 g     F .ro	0000000000000034 memcmp
0000000000978510 g     F .ro	0000000000000010 cpu_get_rev_var
0000000000972f30 g     F .ro	0000000000000164 psci_cpu_on_start
000000000097244c g     F .ro	000000000000004c psci_find_max_off_lvl
0000000000973a5c g     F .ro	00000000000000ec xlat_desc
00000000009789b4 g     F .ro	0000000000000014 plat_is_my_cpu_primary
000000000097078c g     F .ro	0000000000000034 gicd_set_icfgr
000000000098b028 g     O .coherent_ram	0000000000000040 psci_non_cpu_pd_nodes
0000000000974740 g     F .ro	0000000000000028 dram_clock_switch
0000000000977f78 g     F .ro	0000000000000004 elx_panic
0000000000982c00 g       .bss	0000000000000000 __BSS_END__
0000000000979cf8 g       .ro	0000000000000000 __CPU_OPS_END__
00000000009788a0 g     F .ro	000000000000003c psci_do_pwrdown_cache_maintenance
0000000000974468 g     F .ro	0000000000000040 plat_gic_init
0000000000978a14 g     F .ro	000000000000000c plat_get_my_entrypoint
00000000009708ac g     F .ro	0000000000000014 gicd_read_igrpmodr
0000000000971dcc g     F .ro	0000000000000020 cm_set_next_eret_context
0000000000979e20 g       .ro	0000000000000000 __pubsub_cm_entering_secure_world_start
000000000097091c g     F .ro	0000000000000014 gicd_read_isenabler
00000000009727ec g     F .ro	0000000000000064 psci_cpu_on
000000000097024c g     F .ro	0000000000000074 bl31_prepare_next_image_entry
000000000098b000 g       .coherent_ram	0000000000000000 __COHERENT_RAM_START__
0000000000971c00 g     F .ro	0000000000000028 manage_extensions_nonsecure_per_world
0000000000976720 g     F .ro	0000000000000038 imx_system_reset
0000000000971738 g     F .ro	000000000000002c tzc380_init
0000000000982ad0 g     O .bss	0000000000000004 psci_plat_core_count
0000000000972b70 g     F .ro	000000000000006c psci_features
0000000000979e20 g       .ro	0000000000000000 __GOT_END__
0000000000978be8 g     F .ro	000000000000007c memset
0000000000979ca8 g       .ro	0000000000000000 __PARSER_LIB_DESCS_END__
0000000000972140 g     F .ro	0000000000000090 psci_get_target_local_pwr_states
00000000009764cc  w    F .ro	0000000000000054 imx_validate_power_state
0000000000971d8c g     F .ro	0000000000000040 cm_write_scr_el3_bit
0000000000979e28 g       .ro	0000000000000000 __pubsub_cm_exited_normal_world_end
0000000000982ac8 g     O .bss	0000000000000008 optee_vector_table
000000000097fd80 g     O .bss	0000000000000008 psci_plat_pm_ops
00000000009740f0  w    F .ro	0000000000000008 plat_get_soc_revision
0000000000970238 g     F .ro	0000000000000014 bl31_setup
0000000000979e20 g       .ro	0000000000000000 __pubsub_psci_suspend_pwrdown_start_start
0000000000974168  w    F .ro	0000000000000010 plat_ic_end_of_interrupt
0000000000979cf8 g       .ro	0000000000000000 __GOT_START__
0000000000970a10 g     F .ro	0000000000000028 gicr_clr_igrpmodr
000000000097022c g     F .ro	000000000000000c get_arm_std_svc_args
0000000000979e28 g       .ro	0000000000000000 __pubsub_cm_entering_normal_world_start
0000000000000000 g       *ABS*	0000000000000000 __PERCPU_TIMESTAMP_SIZE__
0000000000971f18 g     F .ro	00000000000000bc bakery_lock_get
0000000000975dd8  w    F .ro	00000000000000e0 imx_set_sys_wakeup
0000000000971764 g     F .ro	0000000000000030 tzc380_configure_region
0000000000972d2c g     F .ro	0000000000000060 psci_mem_protect
0000000000979ca8 g       .ro	0000000000000000 __FCONF_POPULATOR_END__
0000000000971fd4 g     F .ro	0000000000000034 bakery_lock_release
00000000009704f8 g     F .ro	0000000000000040 get_interrupt_type_handler
0000000000974230 g     F .ro	000000000000000c plat_get_power_domain_tree_desc
00000000009708e4 g     F .ro	0000000000000010 gicd_write_ipriorityr
00000000009749c4 g     F .ro	0000000000000118 ddr4_swffc
0000000000974584 g     F .ro	000000000000003c ddr_pll_bypass_100mts
0000000000971be0 g     F .ro	0000000000000020 cm_manage_extensions_el3
0000000000980170 g     O .bss	0000000000002880 imx_gicv3_ctx
0000000000972b10 g     F .ro	0000000000000060 psci_node_hw_state
0000000000978588 g     F .ro	00000000000000ac el1_sysregs_context_save
0000000000982c00 g       .bss	0000000000000000 __BASE_XLAT_TABLE_END__
0000000000976448 g     F .ro	0000000000000014 imx_validate_ns_entrypoint
0000000000970908 g     F .ro	0000000000000014 gicd_write_isactiver
0000000000978174 g     F .ro	0000000000000010 dcsw_op_level2
00000000009784b0 g     F .ro	0000000000000020 init_cpu_ops
0000000000974f08 g     F .ro	00000000000000d0 dram_dvfs_get_freq_info
00000000009718dc g     F .ro	0000000000000054 console_flush
000000000097a300 g     F .ro	0000000000000000 fiq_sp_elx
000000000097b000 g       .ro	0000000000000000 __RO_END__
000000000097a400 g     F .ro	0000000000000000 sync_exception_aarch64
000000000098b020 g     O .coherent_ram	0000000000000008 gpc_lock
000000000097a500 g     F .ro	0000000000000000 fiq_aarch64
0000000000975140 g     F .ro	000000000000008c rank_setting_update
0000000000970884 g     F .ro	0000000000000014 gicd_read_igroupr
00000000009717f4 g     F .ro	000000000000000c console_switch_state
0000000000975fe4  w    F .ro	000000000000006c imx_anamix_override
0000000000971a14 g     F .ro	0000000000000004 print_errata_status
0000000000978898 g     F .ro	0000000000000008 spin_unlock
00000000009786e0 g     F .ro	0000000000000068 prepare_el3_entry
000000000097e900 g       .bss	0000000000000000 __BSS_START__
0000000000970000 g       .ro	0000000000000000 __RO_START__
00000000009742fc g     F .ro	0000000000000064 imx_kernel_entry_handler
0000000000973d68 g     F .ro	0000000000000234 mmap_add_region_ctx
0000000000979ca8 g       .ro	0000000000000000 __PMF_SVC_DESCS_START__
0000000000982ae4 g     O .bss	0000000000000004 opteed_rw
0000000000978a38 g     F .ro	0000000000000004 plat_crash_console_putc
000000000097e900 g     O .bss	0000000000000100 percpu_data
0000000000975a8c  w    F .ro	0000000000000080 imx_set_cpu_pwr_off
0000000000972760 g     F .ro	0000000000000044 psci_register_spd_pm_hook
0000000000978534 g     F .ro	0000000000000014 cpu_rev_var_hs
000000000097076c g     F .ro	0000000000000004 gicv3_rdistif_on
0000000000978878 g     F .ro	0000000000000020 spin_lock
0000000000971794 g     F .ro	000000000000002c console_is_registered
00000000009710a8 g     F .ro	000000000000000c gicv3_get_pending_interrupt_type
0000000000978b3c g     F .ro	0000000000000024 opteed_exit_sp
0000000000970a38 g     F .ro	0000000000000020 gicr_set_isenabler
00000000009751cc g     F .ro	000000000000017c dram_enter_retention
000000000097fd20 g     O .bss	0000000000000020 per_world_context
00000000009744e4 g     F .ro	0000000000000050 plat_gic_save
0000000000972064 g     F .ro	0000000000000014 psci_query_sys_suspend_pwrstate
0000000000979b75 g     O .ro	0000000000000004 imx_power_domain_tree_desc
00000000009744d0 g     F .ro	0000000000000014 plat_gic_pcpu_init
0000000000970668 g     F .ro	0000000000000094 tf_log
00000000009709e8 g     F .ro	0000000000000028 gicr_set_igrpmodr
0000000000979e20 g       .ro	0000000000000000 __pubsub_psci_cpu_on_finish_start
0000000000979ca8 g       .ro	0000000000000000 __FCONF_POPULATOR_START__
0000000000020000 g       *ABS*	0000000000000000 RAM_REGION_LENGTH
0000000000978520 g     F .ro	0000000000000014 cpu_rev_var_ls
00000000009703c8 g     F .ro	0000000000000030 get_scr_el3_from_routing_model
0000000000974768 g     F .ro	0000000000000108 ddr4_mr_write
000000000098c000 g       .coherent_ram	0000000000000000 __RW_END__
0000000000971e48 g     F .ro	0000000000000014 mpam_enable
000000000098b068 g       .coherent_ram	0000000000000000 __COHERENT_RAM_END_UNALIGNED__
000000000097711c g     F .ro	0000000000000058 bl31_platform_setup
000000000097bcc0 g       .stacks	0000000000000000 __STACKS_START__
000000000097f300 g     O .bss	0000000000000980 opteed_sp_context
00000000009714c4 g     F .ro	0000000000000210 gicv3_distif_init_restore
0000000000972328 g     F .ro	0000000000000124 psci_do_state_coordination
00000000009737d0 g     F .ro	00000000000000b0 psci_system_reset2
0000000000971ec4 g     F .ro	000000000000001c spe_init_el3
00000000009739d4 g     F .ro	0000000000000048 enable_mmu_el3
000000000097a780 g     F .ro	0000000000000000 serror_aarch32
0000000000971e5c g     F .ro	0000000000000004 pmuv3_enable
0000000000982b80 g       .bss	0000000000000000 __PMF_TIMESTAMP_END__
00000000009716d4 g     F .ro	0000000000000064 gicv3_raise_sgi
00000000009775a4 g     F .ro	0000000000000030 opteed_synchronous_sp_entry
0000000000976774 g     F .ro	0000000000000034 imx_pwr_domain_pwr_down_wfi
0000000000973fd8 g     F .ro	0000000000000100 init_xlat_tables_ctx
0000000000978a90 g     F .ro	0000000000000038 console_imx_uart_init
00000000009706fc g     F .ro	0000000000000030 arm_gicv3_distif_pre_save
0000000000979e20 g       .ro	0000000000000000 __pubsub_psci_suspend_pwrdown_finish_start
0000000000970b6c g     F .ro	0000000000000098 gicv3_spis_config_defaults
0000000000975f4c g     F .ro	0000000000000064 imx_set_sys_lpm
0000000000970808 g     F .ro	0000000000000024 gicd_clr_igrpmodr
000000000098b000 g       .xlat_table	0000000000000000 __XLAT_TABLE_END__
00000000009789c8 g     F .ro	0000000000000014 plat_my_core_pos
0000000000970d64 g     F .ro	00000000000000cc gicv3_secure_ppi_sgi_config_props
000000000097053c g     F .ro	000000000000012c runtime_svc_init
0000000000970944 g     F .ro	0000000000000014 gicd_read_ispendr
00000000009791d0 g     F .ro	000000000000001c strlen
000000000097a480 g     F .ro	0000000000000000 irq_aarch64
0000000000972ad0 g     F .ro	0000000000000018 psci_migrate_info_type
00000000009740e8  w    F .ro	0000000000000008 plat_get_soc_version
00000000009800c8 g     O .bss	00000000000000a8 dram_info
0000000000970764 g     F .ro	0000000000000004 gicv3_distif_pre_save
00000000009741cc  w    F .ro	000000000000000c plat_ic_raise_el3_sgi
0000000000974c3c g     F .ro	00000000000000a0 dram_phy_init
0000000000972d8c g     F .ro	000000000000004c psci_mem_chk_range
0000000000977f7c g     F .ro	0000000000000030 el3_panic
00000000009744bc g     F .ro	0000000000000014 plat_gic_cpuif_disable
00000000009707c0 g     F .ro	0000000000000024 gicd_clr_igroupr
0000000000970490 g     F .ro	0000000000000068 register_interrupt_type_handler
00000000009791ac g     F .ro	0000000000000024 strchr
000000000097fce8 g     O .bss	0000000000000008 gicv3_driver_data
00000000009740d8 g     F .ro	0000000000000004 xlat_mmap_print
0000000000975cbc  w    F .ro	000000000000011c imx_set_cluster_powerdown
00000000009724cc g     F .ro	000000000000006c psci_acquire_pwr_domain_locks
0000000000974c04 g     F .ro	0000000000000038 dram_umctl2_init
0000000000974fd8 g     F .ro	0000000000000168 dram_dvfs_handler
0000000000979e20 g       .ro	0000000000000000 __pubsub_psci_cpu_on_finish_end
0000000000978634 g     F .ro	00000000000000ac el1_sysregs_context_restore
000000000097fd00 g     O .bss	0000000000000008 console_list
000000000097229c g     F .ro	000000000000008c psci_set_pwr_domains_to_run
0000000000970fd8 g     F .ro	0000000000000090 gicv3_cpuif_enable
000000000097072c g     F .ro	0000000000000038 arm_gicv3_distif_post_restore
0000000000970898 g     F .ro	0000000000000014 gicd_write_igroupr
0000000000977d38 g       .ro	0000000000000000 report_unhandled_interrupt
0000000000974278 g     F .ro	0000000000000084 imx_buildinfo_handler
00000000009745fc g     F .ro	0000000000000024 ddr_pll_unbypass
000000000097a700 g     F .ro	0000000000000000 fiq_aarch32
0000000000978988  w    F .ro	000000000000001c plat_get_my_stack
00000000009708f4 g     F .ro	0000000000000014 gicd_read_isactiver
00000000009710b4 g     F .ro	00000000000000f8 gicv3_rdistif_save
0000000000979ca8 g       .ro	0000000000000000 __PARSER_LIB_DESCS_START__
000000000097fd88 g     O .bss	0000000000000008 psci_spd_pm
000000000097445c g     F .ro	000000000000000c plat_gic_driver_init
00000000009744a8 g     F .ro	0000000000000014 plat_gic_cpuif_enable



Disassembly of section .ro:

0000000000970000 <bl31_entrypoint>:
  970000:	aa0003f4 	mov	x20, x0
  970004:	aa0103f5 	mov	x21, x1
  970008:	aa0203f6 	mov	x22, x2
  97000c:	aa0303f7 	mov	x23, x3
  970010:	d2810600 	mov	x0, #0x830                 	// #2096
  970014:	f2a618a0 	movk	x0, #0x30c5, lsl #16
  970018:	d51e1000 	msr	sctlr_el3, x0
  97001c:	d5033fdf 	isb
  970020:	9400227d 	bl	978a14 <plat_get_my_entrypoint>
  970024:	b4000040 	cbz	x0, 97002c <do_cold_boot>
  970028:	d61f0000 	br	x0

000000000097002c <do_cold_boot>:
  97002c:	58000860 	ldr	x0, 970138 <do_primary_cold_boot+0xa0>
  970030:	9274cc00 	and	x0, x0, #0xfffffffffffff000
  970034:	d2a00041 	mov	x1, #0x20000               	// #131072
  970038:	8b000021 	add	x1, x1, x0
  97003c:	9400208e 	bl	978274 <fixup_gdt_reloc>
  970040:	1004fe00 	adr	x0, 97a000 <sync_exception_sp_el0>
  970044:	d51ec000 	msr	vbar_el3, x0
  970048:	d5033fdf 	isb
  97004c:	94002108 	bl	97846c <reset_handler>
  970050:	d2820141 	mov	x1, #0x100a                	// #4106
  970054:	d53e1000 	mrs	x0, sctlr_el3
  970058:	aa010000 	orr	x0, x0, x1
  97005c:	d51e1000 	msr	sctlr_el3, x0
  970060:	d5033fdf 	isb
  970064:	940021fa 	bl	97884c <init_cpu_data_ptr>
  970068:	d2804700 	mov	x0, #0x238                 	// #568
  97006c:	d51e1100 	msr	scr_el3, x0
  970070:	d2900000 	mov	x0, #0x8000                	// #32768
  970074:	f2a20020 	movk	x0, #0x1001, lsl #16
  970078:	d51e1320 	msr	mdcr_el3, x0
  97007c:	d50344ff 	msr	daifclr, #0x4
  970080:	d2a80200 	mov	x0, #0x40100000            	// #1074790400
  970084:	d51e1140 	msr	cptr_el3, x0
  970088:	9400224b 	bl	9789b4 <plat_is_my_cpu_primary>
  97008c:	35000060 	cbnz	w0, 970098 <do_primary_cold_boot>
  970090:	94002267 	bl	978a2c <plat_secondary_cold_boot_setup>
  970094:	94001fba 	bl	977f7c <el3_panic>

0000000000970098 <do_primary_cold_boot>:
  970098:	9400226b 	bl	978a44 <platform_mem_init>
  97009c:	90000000 	adrp	x0, 970000 <bl31_entrypoint>
  9700a0:	91000000 	add	x0, x0, #0x0
  9700a4:	900000e1 	adrp	x1, 98c000 <RAM_REGION_END>
  9700a8:	91000021 	add	x1, x1, #0x0
  9700ac:	cb000021 	sub	x1, x1, x0
  9700b0:	94001fdb 	bl	97801c <inv_dcache_range>
  9700b4:	d0000060 	adrp	x0, 97e000 <__STACKS_START__+0x2340>
  9700b8:	91240000 	add	x0, x0, #0x900
  9700bc:	d0000081 	adrp	x1, 982000 <imx_gicv3_ctx+0x1e90>
  9700c0:	91300021 	add	x1, x1, #0xc00
  9700c4:	cb000021 	sub	x1, x1, x0
  9700c8:	9400202f 	bl	978184 <zeromem>
  9700cc:	f00000c0 	adrp	x0, 98b000 <psci_locks>
  9700d0:	91000000 	add	x0, x0, #0x0
  9700d4:	f00000c1 	adrp	x1, 98b000 <psci_locks>
  9700d8:	9101a021 	add	x1, x1, #0x68
  9700dc:	cb000021 	sub	x1, x1, x0
  9700e0:	94002029 	bl	978184 <zeromem>
  9700e4:	d50040bf 	msr	spsel, #0x0
  9700e8:	9400222f 	bl	9789a4 <plat_set_my_stack>
  9700ec:	aa1403e0 	mov	x0, x20
  9700f0:	aa1503e1 	mov	x1, x21
  9700f4:	aa1603e2 	mov	x2, x22
  9700f8:	aa1703e3 	mov	x3, x23
  9700fc:	9400004f 	bl	970238 <bl31_setup>
  970100:	94000070 	bl	9702c0 <bl31_main>
  970104:	f0000040 	adrp	x0, 97b000 <__RO_END__>
  970108:	91000000 	add	x0, x0, #0x0
  97010c:	f0000041 	adrp	x1, 97b000 <__RO_END__>
  970110:	910ab821 	add	x1, x1, #0x2ae
  970114:	cb000021 	sub	x1, x1, x0
  970118:	94001fb3 	bl	977fe4 <clean_dcache_range>
  97011c:	d0000060 	adrp	x0, 97e000 <__STACKS_START__+0x2340>
  970120:	91240000 	add	x0, x0, #0x900
  970124:	d0000081 	adrp	x1, 982000 <imx_gicv3_ctx+0x1e90>
  970128:	91300021 	add	x1, x1, #0xc00
  97012c:	cb000021 	sub	x1, x1, x0
  970130:	94001fad 	bl	977fe4 <clean_dcache_range>
  970134:	14002199 	b	978798 <el3_exit>
  970138:	0097002c 	.word	0x0097002c
  97013c:	00000000 	.word	0x00000000

0000000000970140 <stm>:
  970140:	5d1b0020 	.word	0x5d1b0020
  970144:	00000000 	.word	0x00000000

0000000000970148 <bl31_warm_entrypoint>:
  970148:	1004f5c0 	adr	x0, 97a000 <sync_exception_sp_el0>
  97014c:	d51ec000 	msr	vbar_el3, x0
  970150:	d5033fdf 	isb
  970154:	940020c6 	bl	97846c <reset_handler>
  970158:	d2820141 	mov	x1, #0x100a                	// #4106
  97015c:	d53e1000 	mrs	x0, sctlr_el3
  970160:	aa010000 	orr	x0, x0, x1
  970164:	d51e1000 	msr	sctlr_el3, x0
  970168:	d5033fdf 	isb
  97016c:	940021b8 	bl	97884c <init_cpu_data_ptr>
  970170:	d2804700 	mov	x0, #0x238                 	// #568
  970174:	d51e1100 	msr	scr_el3, x0
  970178:	d2900000 	mov	x0, #0x8000                	// #32768
  97017c:	f2a20020 	movk	x0, #0x1001, lsl #16
  970180:	d51e1320 	msr	mdcr_el3, x0
  970184:	d50344ff 	msr	daifclr, #0x4
  970188:	d2a80200 	mov	x0, #0x40100000            	// #1074790400
  97018c:	d51e1140 	msr	cptr_el3, x0
  970190:	d50040bf 	msr	spsel, #0x0
  970194:	94002204 	bl	9789a4 <plat_set_my_stack>
  970198:	d2800020 	mov	x0, #0x1                   	// #1
  97019c:	940021f9 	bl	978980 <bl31_plat_enable_mmu>
  9701a0:	94000939 	bl	972684 <psci_warmboot_entrypoint>
  9701a4:	1400217d 	b	978798 <el3_exit>

00000000009701a8 <cm_get_context>:
  9701a8:	d53ed041 	mrs	x1, tpidr_el3
  9701ac:	7100001f 	cmp	w0, #0x0
  9701b0:	9a9f07e0 	cset	x0, ne  // ne = any
  9701b4:	f8607820 	ldr	x0, [x1, x0, lsl #3]
  9701b8:	d65f03c0 	ret

00000000009701bc <cm_set_context>:
  9701bc:	d53ed042 	mrs	x2, tpidr_el3
  9701c0:	7100003f 	cmp	w1, #0x0
  9701c4:	9a9f07e1 	cset	x1, ne  // ne = any
  9701c8:	f8217840 	str	x0, [x2, x1, lsl #3]
  9701cc:	d65f03c0 	ret

00000000009701d0 <cm_get_context_by_index>:
  9701d0:	a9be7bfd 	stp	x29, x30, [sp, #-32]!
  9701d4:	910003fd 	mov	x29, sp
  9701d8:	f9000bf3 	str	x19, [sp, #16]
  9701dc:	2a0103f3 	mov	w19, w1
  9701e0:	940021a0 	bl	978860 <_cpu_data_by_index>
  9701e4:	7100027f 	cmp	w19, #0x0
  9701e8:	9a9f07e1 	cset	x1, ne  // ne = any
  9701ec:	f9400bf3 	ldr	x19, [sp, #16]
  9701f0:	a8c27bfd 	ldp	x29, x30, [sp], #32
  9701f4:	f8617800 	ldr	x0, [x0, x1, lsl #3]
  9701f8:	d65f03c0 	ret

00000000009701fc <cm_set_context_by_index>:
  9701fc:	a9be7bfd 	stp	x29, x30, [sp, #-32]!
  970200:	910003fd 	mov	x29, sp
  970204:	a90153f3 	stp	x19, x20, [sp, #16]
  970208:	aa0103f3 	mov	x19, x1
  97020c:	2a0203f4 	mov	w20, w2
  970210:	94002194 	bl	978860 <_cpu_data_by_index>
  970214:	7100029f 	cmp	w20, #0x0
  970218:	9a9f07e1 	cset	x1, ne  // ne = any
  97021c:	f8217813 	str	x19, [x0, x1, lsl #3]
  970220:	a94153f3 	ldp	x19, x20, [sp, #16]
  970224:	a8c27bfd 	ldp	x29, x30, [sp], #32
  970228:	d65f03c0 	ret

000000000097022c <get_arm_std_svc_args>:
  97022c:	f0000040 	adrp	x0, 97b000 <__RO_END__>
  970230:	91000000 	add	x0, x0, #0x0
  970234:	d65f03c0 	ret

0000000000970238 <bl31_setup>:
  970238:	a9bf7bfd 	stp	x29, x30, [sp, #-16]!
  97023c:	910003fd 	mov	x29, sp
  970240:	94001b35 	bl	976f14 <bl31_early_platform_setup2>
  970244:	a8c17bfd 	ldp	x29, x30, [sp], #16
  970248:	14001b89 	b	97706c <bl31_plat_arch_setup>

000000000097024c <bl31_prepare_next_image_entry>:
  97024c:	a9be7bfd 	stp	x29, x30, [sp, #-32]!
  970250:	d5380400 	mrs	x0, id_aa64pfr0_el1
  970254:	910003fd 	mov	x29, sp
  970258:	d3441c00 	ubfx	x0, x0, #4, #4
  97025c:	a90153f3 	stp	x19, x20, [sp, #16]
  970260:	f100041f 	cmp	x0, #0x1
  970264:	540000c1 	b.ne	97027c <bl31_prepare_next_image_entry+0x30>  // b.any
  970268:	b0000040 	adrp	x0, 979000 <vprintf+0x2b4>
  97026c:	9126b000 	add	x0, x0, #0x9ac
  970270:	940000fe 	bl	970668 <tf_log>
  970274:	9400059a 	bl	9718dc <console_flush>
  970278:	94001f41 	bl	977f7c <el3_panic>
  97027c:	f0000040 	adrp	x0, 97b000 <__RO_END__>
  970280:	b9422013 	ldr	w19, [x0, #544]
  970284:	2a1303e0 	mov	w0, w19
  970288:	94001bbb 	bl	977174 <bl31_plat_get_next_image_ep_info>
  97028c:	aa0003f4 	mov	x20, x0
  970290:	940000aa 	bl	970538 <print_entry_point_info>
  970294:	aa1403e0 	mov	x0, x20
  970298:	94000670 	bl	971c58 <cm_init_my_context>
  97029c:	7100067f 	cmp	w19, #0x1
  9702a0:	54000081 	b.ne	9702b0 <bl31_prepare_next_image_entry+0x64>  // b.any
  9702a4:	a94153f3 	ldp	x19, x20, [sp, #16]
  9702a8:	a8c27bfd 	ldp	x29, x30, [sp], #32
  9702ac:	140006e5 	b	971e40 <cm_prepare_el3_exit_ns>
  9702b0:	2a1303e0 	mov	w0, w19
  9702b4:	a94153f3 	ldp	x19, x20, [sp, #16]
  9702b8:	a8c27bfd 	ldp	x29, x30, [sp], #32
  9702bc:	140006cc 	b	971dec <cm_prepare_el3_exit>

00000000009702c0 <bl31_main>:
  9702c0:	a9be7bfd 	stp	x29, x30, [sp, #-32]!
  9702c4:	910003fd 	mov	x29, sp
  9702c8:	a90153f3 	stp	x19, x20, [sp, #16]
  9702cc:	b0000054 	adrp	x20, 979000 <vprintf+0x2b4>
  9702d0:	94000644 	bl	971be0 <cm_manage_extensions_el3>
  9702d4:	9400064b 	bl	971c00 <manage_extensions_nonsecure_per_world>
  9702d8:	b0000053 	adrp	x19, 979000 <vprintf+0x2b4>
  9702dc:	f9468681 	ldr	x1, [x20, #3336]
  9702e0:	9127f273 	add	x19, x19, #0x9fc
  9702e4:	aa1303e0 	mov	x0, x19
  9702e8:	940000e0 	bl	970668 <tf_log>
  9702ec:	f9468e81 	ldr	x1, [x20, #3352]
  9702f0:	aa1303e0 	mov	x0, x19
  9702f4:	f0000073 	adrp	x19, 97f000 <psci_ns_context+0x600>
  9702f8:	940000dc 	bl	970668 <tf_log>
  9702fc:	94001b88 	bl	97711c <bl31_platform_setup>
  970300:	940005cd 	bl	971a34 <cm_init>
  970304:	9400008e 	bl	97053c <runtime_svc_init>
  970308:	f9464260 	ldr	x0, [x19, #3200]
  97030c:	b4000080 	cbz	x0, 97031c <bl31_main+0x5c>
  970310:	94000573 	bl	9718dc <console_flush>
  970314:	f9464260 	ldr	x0, [x19, #3200]
  970318:	d63f0000 	blr	x0
  97031c:	97ffffcc 	bl	97024c <bl31_prepare_next_image_entry>
  970320:	9400056f 	bl	9718dc <console_flush>
  970324:	a94153f3 	ldp	x19, x20, [sp, #16]
  970328:	a8c27bfd 	ldp	x29, x30, [sp], #32
  97032c:	14000f6d 	b	9740e0 <bl31_plat_runtime_setup>

0000000000970330 <bl31_register_bl32_init>:
  970330:	f0000061 	adrp	x1, 97f000 <psci_ns_context+0x600>
  970334:	f9064020 	str	x0, [x1, #3200]
  970338:	d65f03c0 	ret

000000000097033c <handle_sysreg_trap>:
  97033c:	12800000 	mov	w0, #0xffffffff            	// #-1
  970340:	d65f03c0 	ret

0000000000970344 <set_scr_el3_from_rm>:
  970344:	a9bd7bfd 	stp	x29, x30, [sp, #-48]!
  970348:	1ac22421 	lsr	w1, w1, w2
  97034c:	910003fd 	mov	x29, sp
  970350:	a90153f3 	stp	x19, x20, [sp, #16]
  970354:	2a0003f3 	mov	w19, w0
  970358:	2a0203f4 	mov	w20, w2
  97035c:	d37e7e73 	ubfiz	x19, x19, #2, #32
  970360:	a9025bf5 	stp	x21, x22, [sp, #32]
  970364:	8b344273 	add	x19, x19, w20, uxtw
  970368:	12000035 	and	w21, w1, #0x1
  97036c:	2a0203e1 	mov	w1, w2
  970370:	94000f82 	bl	974178 <plat_interrupt_type_to_line>
  970374:	2a0003f6 	mov	w22, w0
  970378:	f0000060 	adrp	x0, 97f000 <psci_ns_context+0x600>
  97037c:	91322000 	add	x0, x0, #0xc88
  970380:	8b130c13 	add	x19, x0, x19, lsl #3
  970384:	2a1503e0 	mov	w0, w21
  970388:	9ad62000 	lsl	x0, x0, x22
  97038c:	f9000660 	str	x0, [x19, #8]
  970390:	2a1403e0 	mov	w0, w20
  970394:	97ffff85 	bl	9701a8 <cm_get_context>
  970398:	b4000100 	cbz	x0, 9703b8 <set_scr_el3_from_rm+0x74>
  97039c:	2a1503e2 	mov	w2, w21
  9703a0:	2a1603e1 	mov	w1, w22
  9703a4:	2a1403e0 	mov	w0, w20
  9703a8:	a94153f3 	ldp	x19, x20, [sp, #16]
  9703ac:	a9425bf5 	ldp	x21, x22, [sp, #32]
  9703b0:	a8c37bfd 	ldp	x29, x30, [sp], #48
  9703b4:	14000676 	b	971d8c <cm_write_scr_el3_bit>
  9703b8:	a94153f3 	ldp	x19, x20, [sp, #16]
  9703bc:	a9425bf5 	ldp	x21, x22, [sp, #32]
  9703c0:	a8c37bfd 	ldp	x29, x30, [sp], #48
  9703c4:	d65f03c0 	ret

00000000009703c8 <get_scr_el3_from_routing_model>:
  9703c8:	2a0003e1 	mov	w1, w0
  9703cc:	f0000062 	adrp	x2, 97f000 <psci_ns_context+0x600>
  9703d0:	91322042 	add	x2, x2, #0xc88
  9703d4:	8b010c40 	add	x0, x2, x1, lsl #3
  9703d8:	8b010c43 	add	x3, x2, x1, lsl #3
  9703dc:	8b010c41 	add	x1, x2, x1, lsl #3
  9703e0:	f9400463 	ldr	x3, [x3, #8]
  9703e4:	f9402400 	ldr	x0, [x0, #72]
  9703e8:	f9401421 	ldr	x1, [x1, #40]
  9703ec:	aa030000 	orr	x0, x0, x3
  9703f0:	aa010000 	orr	x0, x0, x1
  9703f4:	d65f03c0 	ret

00000000009703f8 <set_routing_model>:
  9703f8:	a9be7bfd 	stp	x29, x30, [sp, #-32]!
  9703fc:	910003fd 	mov	x29, sp
  970400:	a90153f3 	stp	x19, x20, [sp, #16]
  970404:	2a0003f3 	mov	w19, w0
  970408:	2a0103f4 	mov	w20, w1
  97040c:	94000f6d 	bl	9741c0 <plat_ic_has_interrupt_type>
  970410:	72001c1f 	tst	w0, #0xff
  970414:	54000340 	b.eq	97047c <set_routing_model+0x84>  // b.none
  970418:	12000680 	and	w0, w20, #0x3
  97041c:	350002b3 	cbnz	w19, 970470 <set_routing_model+0x78>
  970420:	51000800 	sub	w0, w0, #0x2
  970424:	7100041f 	cmp	w0, #0x1
  970428:	540002a8 	b.hi	97047c <set_routing_model+0x84>  // b.pmore
  97042c:	d37b7e61 	ubfiz	x1, x19, #5, #32
  970430:	f0000060 	adrp	x0, 97f000 <psci_ns_context+0x600>
  970434:	91322000 	add	x0, x0, #0xc88
  970438:	52800002 	mov	w2, #0x0                   	// #0
  97043c:	8b010000 	add	x0, x0, x1
  970440:	2a1403e1 	mov	w1, w20
  970444:	b9001814 	str	w20, [x0, #24]
  970448:	2a1303e0 	mov	w0, w19
  97044c:	97ffffbe 	bl	970344 <set_scr_el3_from_rm>
  970450:	2a1303e0 	mov	w0, w19
  970454:	2a1403e1 	mov	w1, w20
  970458:	52800022 	mov	w2, #0x1                   	// #1
  97045c:	97ffffba 	bl	970344 <set_scr_el3_from_rm>
  970460:	52800000 	mov	w0, #0x0                   	// #0
  970464:	a94153f3 	ldp	x19, x20, [sp, #16]
  970468:	a8c27bfd 	ldp	x29, x30, [sp], #32
  97046c:	d65f03c0 	ret
  970470:	71000a7f 	cmp	w19, #0x2
  970474:	54000081 	b.ne	970484 <set_routing_model+0x8c>  // b.any
  970478:	360ffdb4 	tbz	w20, #1, 97042c <set_routing_model+0x34>
  97047c:	128002a0 	mov	w0, #0xffffffea            	// #-22
  970480:	17fffff9 	b	970464 <set_routing_model+0x6c>
  970484:	7100067f 	cmp	w19, #0x1
  970488:	54fffcc0 	b.eq	970420 <set_routing_model+0x28>  // b.none
  97048c:	17fffffc 	b	97047c <set_routing_model+0x84>

0000000000970490 <register_interrupt_type_handler>:
  970490:	a9bd7bfd 	stp	x29, x30, [sp, #-48]!
  970494:	910003fd 	mov	x29, sp
  970498:	a90153f3 	stp	x19, x20, [sp, #16]
  97049c:	f90013f5 	str	x21, [sp, #32]
  9704a0:	aa0103f5 	mov	x21, x1
  9704a4:	b4000221 	cbz	x1, 9704e8 <register_interrupt_type_handler+0x58>
  9704a8:	2a0203e1 	mov	w1, w2
  9704ac:	721e745f 	tst	w2, #0xfffffffc
  9704b0:	540001c1 	b.ne	9704e8 <register_interrupt_type_handler+0x58>  // b.any
  9704b4:	2a0003f3 	mov	w19, w0
  9704b8:	f0000074 	adrp	x20, 97f000 <psci_ns_context+0x600>
  9704bc:	91322294 	add	x20, x20, #0xc88
  9704c0:	d37b7e73 	ubfiz	x19, x19, #5, #32
  9704c4:	f8736a82 	ldr	x2, [x20, x19]
  9704c8:	b5000142 	cbnz	x2, 9704f0 <register_interrupt_type_handler+0x60>
  9704cc:	97ffffcb 	bl	9703f8 <set_routing_model>
  9704d0:	35000040 	cbnz	w0, 9704d8 <register_interrupt_type_handler+0x48>
  9704d4:	f8336a95 	str	x21, [x20, x19]
  9704d8:	a94153f3 	ldp	x19, x20, [sp, #16]
  9704dc:	f94013f5 	ldr	x21, [sp, #32]
  9704e0:	a8c37bfd 	ldp	x29, x30, [sp], #48
  9704e4:	d65f03c0 	ret
  9704e8:	128002a0 	mov	w0, #0xffffffea            	// #-22
  9704ec:	17fffffb 	b	9704d8 <register_interrupt_type_handler+0x48>
  9704f0:	12800480 	mov	w0, #0xffffffdb            	// #-37
  9704f4:	17fffff9 	b	9704d8 <register_interrupt_type_handler+0x48>

00000000009704f8 <get_interrupt_type_handler>:
  9704f8:	a9be7bfd 	stp	x29, x30, [sp, #-32]!
  9704fc:	910003fd 	mov	x29, sp
  970500:	f9000bf3 	str	x19, [sp, #16]
  970504:	2a0003f3 	mov	w19, w0
  970508:	94000f2e 	bl	9741c0 <plat_ic_has_interrupt_type>
  97050c:	72001c1f 	tst	w0, #0xff
  970510:	54000100 	b.eq	970530 <get_interrupt_type_handler+0x38>  // b.none
  970514:	d37b7e73 	ubfiz	x19, x19, #5, #32
  970518:	f0000060 	adrp	x0, 97f000 <psci_ns_context+0x600>
  97051c:	91322000 	add	x0, x0, #0xc88
  970520:	f8736800 	ldr	x0, [x0, x19]
  970524:	f9400bf3 	ldr	x19, [sp, #16]
  970528:	a8c27bfd 	ldp	x29, x30, [sp], #32
  97052c:	d65f03c0 	ret
  970530:	d2800000 	mov	x0, #0x0                   	// #0
  970534:	17fffffc 	b	970524 <get_interrupt_type_handler+0x2c>

0000000000970538 <print_entry_point_info>:
  970538:	d65f03c0 	ret

000000000097053c <runtime_svc_init>:
  97053c:	a9bb7bfd 	stp	x29, x30, [sp, #-80]!
  970540:	b0000041 	adrp	x1, 979000 <vprintf+0x2b4>
  970544:	910003fd 	mov	x29, sp
  970548:	a90153f3 	stp	x19, x20, [sp, #16]
  97054c:	f9469434 	ldr	x20, [x1, #3368]
  970550:	a9025bf5 	stp	x21, x22, [sp, #32]
  970554:	f946a021 	ldr	x1, [x1, #3392]
  970558:	a90363f7 	stp	x23, x24, [sp, #48]
  97055c:	cb140037 	sub	x23, x1, x20
  970560:	f90023f9 	str	x25, [sp, #64]
  970564:	f1007eff 	cmp	x23, #0x1f
  970568:	540001a9 	b.ls	97059c <runtime_svc_init+0x60>  // b.plast
  97056c:	b0000056 	adrp	x22, 979000 <vprintf+0x2b4>
  970570:	d345fef7 	lsr	x23, x23, #5
  970574:	9128bed6 	add	x22, x22, #0xa2f
  970578:	52800018 	mov	w24, #0x0                   	// #0
  97057c:	d0000095 	adrp	x21, 982000 <imx_gicv3_ctx+0x1e90>
  970580:	912ba2b5 	add	x21, x21, #0xae8
  970584:	aa1503e0 	mov	x0, x21
  970588:	d2801002 	mov	x2, #0x80                  	// #128
  97058c:	12800001 	mov	w1, #0xffffffff            	// #-1
  970590:	94002196 	bl	978be8 <memset>
  970594:	eb3802ff 	cmp	x23, w24, uxtb
  970598:	540000e8 	b.hi	9705b4 <runtime_svc_init+0x78>  // b.pmore
  97059c:	a94153f3 	ldp	x19, x20, [sp, #16]
  9705a0:	a9425bf5 	ldp	x21, x22, [sp, #32]
  9705a4:	a94363f7 	ldp	x23, x24, [sp, #48]
  9705a8:	f94023f9 	ldr	x25, [sp, #64]
  9705ac:	a8c57bfd 	ldp	x29, x30, [sp], #80
  9705b0:	d65f03c0 	ret
  9705b4:	d37b1f19 	ubfiz	x25, x24, #5, #8
  9705b8:	8b190293 	add	x19, x20, x25
  9705bc:	38796a81 	ldrb	w1, [x20, x25]
  9705c0:	39400660 	ldrb	w0, [x19, #1]
  9705c4:	6b00003f 	cmp	w1, w0
  9705c8:	54000148 	b.hi	9705f0 <runtime_svc_init+0xb4>  // b.pmore
  9705cc:	7100fc1f 	cmp	w0, #0x3f
  9705d0:	54000108 	b.hi	9705f0 <runtime_svc_init+0xb4>  // b.pmore
  9705d4:	39400a60 	ldrb	w0, [x19, #2]
  9705d8:	7100041f 	cmp	w0, #0x1
  9705dc:	540000a8 	b.hi	9705f0 <runtime_svc_init+0xb4>  // b.pmore
  9705e0:	f9400a60 	ldr	x0, [x19, #16]
  9705e4:	b5000120 	cbnz	x0, 970608 <runtime_svc_init+0xcc>
  9705e8:	f9400e60 	ldr	x0, [x19, #24]
  9705ec:	b50001e0 	cbnz	x0, 970628 <runtime_svc_init+0xec>
  9705f0:	aa1303e1 	mov	x1, x19
  9705f4:	b0000040 	adrp	x0, 979000 <vprintf+0x2b4>
  9705f8:	91281c00 	add	x0, x0, #0xa07
  9705fc:	9400001b 	bl	970668 <tf_log>
  970600:	940004b7 	bl	9718dc <console_flush>
  970604:	94001e5e 	bl	977f7c <el3_panic>
  970608:	d63f0000 	blr	x0
  97060c:	340000e0 	cbz	w0, 970628 <runtime_svc_init+0xec>
  970610:	f9400661 	ldr	x1, [x19, #8]
  970614:	aa1603e0 	mov	x0, x22
  970618:	94000014 	bl	970668 <tf_log>
  97061c:	11000718 	add	w24, w24, #0x1
  970620:	12001f18 	and	w24, w24, #0xff
  970624:	17ffffdc 	b	970594 <runtime_svc_init+0x58>
  970628:	39400a63 	ldrb	w3, [x19, #2]
  97062c:	38796a82 	ldrb	w2, [x20, x25]
  970630:	39400661 	ldrb	w1, [x19, #1]
  970634:	531a0063 	ubfiz	w3, w3, #6, #1
  970638:	12001442 	and	w2, w2, #0x3f
  97063c:	2a030040 	orr	w0, w2, w3
  970640:	12001421 	and	w1, w1, #0x3f
  970644:	2a0003e2 	mov	w2, w0
  970648:	2a030021 	orr	w1, w1, w3
  97064c:	8b0002a0 	add	x0, x21, x0
  970650:	6b01005f 	cmp	w2, w1
  970654:	54fffe48 	b.hi	97061c <runtime_svc_init+0xe0>  // b.pmore
  970658:	11000442 	add	w2, w2, #0x1
  97065c:	38001418 	strb	w24, [x0], #1
  970660:	12001c42 	and	w2, w2, #0xff
  970664:	17fffffb 	b	970650 <runtime_svc_init+0x114>

0000000000970668 <tf_log>:
  970668:	a9b67bfd 	stp	x29, x30, [sp, #-160]!
  97066c:	910003fd 	mov	x29, sp
  970670:	a90153f3 	stp	x19, x20, [sp, #16]
  970674:	aa0003f4 	mov	x20, x0
  970678:	a9068be1 	stp	x1, x2, [sp, #104]
  97067c:	f0000041 	adrp	x1, 97b000 <__RO_END__>
  970680:	a90793e3 	stp	x3, x4, [sp, #120]
  970684:	b9422421 	ldr	w1, [x1, #548]
  970688:	a9089be5 	stp	x5, x6, [sp, #136]
  97068c:	f9004fe7 	str	x7, [sp, #152]
  970690:	39400000 	ldrb	w0, [x0]
  970694:	6b00003f 	cmp	w1, w0
  970698:	54000263 	b.cc	9706e4 <tf_log+0x7c>  // b.lo, b.ul, b.last
  97069c:	94000ecf 	bl	9741d8 <plat_log_get_prefix>
  9706a0:	aa0003f3 	mov	x19, x0
  9706a4:	39400260 	ldrb	w0, [x19]
  9706a8:	35000240 	cbnz	w0, 9706f0 <tf_log+0x88>
  9706ac:	910283e0 	add	x0, sp, #0xa0
  9706b0:	a90403e0 	stp	x0, x0, [sp, #64]
  9706b4:	910183e0 	add	x0, sp, #0x60
  9706b8:	f9002be0 	str	x0, [sp, #80]
  9706bc:	128006e0 	mov	w0, #0xffffffc8            	// #-56
  9706c0:	b9005be0 	str	w0, [sp, #88]
  9706c4:	b9005fff 	str	wzr, [sp, #92]
  9706c8:	a94407e0 	ldp	x0, x1, [sp, #64]
  9706cc:	a90207e0 	stp	x0, x1, [sp, #32]
  9706d0:	a94507e0 	ldp	x0, x1, [sp, #80]
  9706d4:	a90307e0 	stp	x0, x1, [sp, #48]
  9706d8:	910083e1 	add	x1, sp, #0x20
  9706dc:	91000680 	add	x0, x20, #0x1
  9706e0:	9400219b 	bl	978d4c <vprintf>
  9706e4:	a94153f3 	ldp	x19, x20, [sp, #16]
  9706e8:	a8ca7bfd 	ldp	x29, x30, [sp], #160
  9706ec:	d65f03c0 	ret
  9706f0:	91000673 	add	x19, x19, #0x1
  9706f4:	94000470 	bl	9718b4 <putchar>
  9706f8:	17ffffeb 	b	9706a4 <tf_log+0x3c>

00000000009706fc <arm_gicv3_distif_pre_save>:
  9706fc:	b0000041 	adrp	x1, 979000 <vprintf+0x2b4>
  970700:	f9470421 	ldr	x1, [x1, #3592]
  970704:	f9400021 	ldr	x1, [x1]
  970708:	f9401021 	ldr	x1, [x1, #32]
  97070c:	f8605820 	ldr	x0, [x1, w0, uxtw #3]
  970710:	91005002 	add	x2, x0, #0x14
  970714:	b9401401 	ldr	w1, [x0, #20]
  970718:	32000021 	orr	w1, w1, #0x1
  97071c:	b9001401 	str	w1, [x0, #20]
  970720:	b9400040 	ldr	w0, [x2]
  970724:	36ffffe0 	tbz	w0, #31, 970720 <arm_gicv3_distif_pre_save+0x24>
  970728:	d65f03c0 	ret

000000000097072c <arm_gicv3_distif_post_restore>:
  97072c:	b0000041 	adrp	x1, 979000 <vprintf+0x2b4>
  970730:	f9470421 	ldr	x1, [x1, #3592]
  970734:	f9400021 	ldr	x1, [x1]
  970738:	f9401021 	ldr	x1, [x1, #32]
  97073c:	f8605820 	ldr	x0, [x1, w0, uxtw #3]
  970740:	91005002 	add	x2, x0, #0x14
  970744:	b9401401 	ldr	w1, [x0, #20]
  970748:	360000c1 	tbz	w1, #0, 970760 <arm_gicv3_distif_post_restore+0x34>
  97074c:	b9401401 	ldr	w1, [x0, #20]
  970750:	121f7821 	and	w1, w1, #0xfffffffe
  970754:	b9001401 	str	w1, [x0, #20]
  970758:	b9400040 	ldr	w0, [x2]
  97075c:	37ffffe0 	tbnz	w0, #31, 970758 <arm_gicv3_distif_post_restore+0x2c>
  970760:	d65f03c0 	ret

0000000000970764 <gicv3_distif_pre_save>:
  970764:	17ffffe6 	b	9706fc <arm_gicv3_distif_pre_save>

0000000000970768 <gicv3_distif_post_restore>:
  970768:	17fffff1 	b	97072c <arm_gicv3_distif_post_restore>

000000000097076c <gicv3_rdistif_on>:
  97076c:	d65f03c0 	ret

0000000000970770 <gicv3_check_erratas_applies>:
  970770:	a9be7bfd 	stp	x29, x30, [sp, #-32]!
  970774:	910003fd 	mov	x29, sp
  970778:	91006fe2 	add	x2, sp, #0x1b
  97077c:	910073e1 	add	x1, sp, #0x1c
  970780:	940001ac 	bl	970e30 <gicv3_get_component_prodid_rev>
  970784:	a8c27bfd 	ldp	x29, x30, [sp], #32
  970788:	d65f03c0 	ret

000000000097078c <gicd_set_icfgr>:
  97078c:	531f0c24 	ubfiz	w4, w1, #1, #4
  970790:	53047c21 	lsr	w1, w1, #4
  970794:	91300000 	add	x0, x0, #0xc00
  970798:	12000442 	and	w2, w2, #0x3
  97079c:	d37ef421 	lsl	x1, x1, #2
  9707a0:	52800063 	mov	w3, #0x3                   	// #3
  9707a4:	1ac42063 	lsl	w3, w3, w4
  9707a8:	1ac42042 	lsl	w2, w2, w4
  9707ac:	b8606825 	ldr	w5, [x1, x0]
  9707b0:	0a2300a3 	bic	w3, w5, w3
  9707b4:	2a020063 	orr	w3, w3, w2
  9707b8:	b8206823 	str	w3, [x1, x0]
  9707bc:	d65f03c0 	ret

00000000009707c0 <gicd_clr_igroupr>:
  9707c0:	53057c23 	lsr	w3, w1, #5
  9707c4:	91020000 	add	x0, x0, #0x80
  9707c8:	52800022 	mov	w2, #0x1                   	// #1
  9707cc:	d37ef463 	lsl	x3, x3, #2
  9707d0:	1ac12041 	lsl	w1, w2, w1
  9707d4:	b8606864 	ldr	w4, [x3, x0]
  9707d8:	0a210081 	bic	w1, w4, w1
  9707dc:	b8206861 	str	w1, [x3, x0]
  9707e0:	d65f03c0 	ret

00000000009707e4 <gicd_set_igrpmodr>:
  9707e4:	53057c23 	lsr	w3, w1, #5
  9707e8:	91340000 	add	x0, x0, #0xd00
  9707ec:	52800022 	mov	w2, #0x1                   	// #1
  9707f0:	d37ef463 	lsl	x3, x3, #2
  9707f4:	1ac12041 	lsl	w1, w2, w1
  9707f8:	b8606864 	ldr	w4, [x3, x0]
  9707fc:	2a040021 	orr	w1, w1, w4
  970800:	b8206861 	str	w1, [x3, x0]
  970804:	d65f03c0 	ret

0000000000970808 <gicd_clr_igrpmodr>:
  970808:	53057c23 	lsr	w3, w1, #5
  97080c:	91340000 	add	x0, x0, #0xd00
  970810:	52800022 	mov	w2, #0x1                   	// #1
  970814:	d37ef463 	lsl	x3, x3, #2
  970818:	1ac12041 	lsl	w1, w2, w1
  97081c:	b8606864 	ldr	w4, [x3, x0]
  970820:	0a210081 	bic	w1, w4, w1
  970824:	b8206861 	str	w1, [x3, x0]
  970828:	d65f03c0 	ret

000000000097082c <gicd_set_isenabler>:
  97082c:	52800022 	mov	w2, #0x1                   	// #1
  970830:	91040000 	add	x0, x0, #0x100
  970834:	1ac12042 	lsl	w2, w2, w1
  970838:	53057c21 	lsr	w1, w1, #5
  97083c:	d37ef421 	lsl	x1, x1, #2
  970840:	b8206822 	str	w2, [x1, x0]
  970844:	d65f03c0 	ret

0000000000970848 <gicd_set_ipriorityr>:
  970848:	91100000 	add	x0, x0, #0x400
  97084c:	2a0103e1 	mov	w1, w1
  970850:	12001c42 	and	w2, w2, #0xff
  970854:	38216802 	strb	w2, [x0, x1]
  970858:	d65f03c0 	ret

000000000097085c <gicd_read_icfgr>:
  97085c:	53047c21 	lsr	w1, w1, #4
  970860:	91300000 	add	x0, x0, #0xc00
  970864:	d37ef421 	lsl	x1, x1, #2
  970868:	b8606820 	ldr	w0, [x1, x0]
  97086c:	d65f03c0 	ret

0000000000970870 <gicd_write_icfgr>:
  970870:	53047c21 	lsr	w1, w1, #4
  970874:	91300000 	add	x0, x0, #0xc00
  970878:	d37ef421 	lsl	x1, x1, #2
  97087c:	b8206822 	str	w2, [x1, x0]
  970880:	d65f03c0 	ret

0000000000970884 <gicd_read_igroupr>:
  970884:	53057c21 	lsr	w1, w1, #5
  970888:	91020000 	add	x0, x0, #0x80
  97088c:	d37ef421 	lsl	x1, x1, #2
  970890:	b8606820 	ldr	w0, [x1, x0]
  970894:	d65f03c0 	ret

0000000000970898 <gicd_write_igroupr>:
  970898:	53057c21 	lsr	w1, w1, #5
  97089c:	91020000 	add	x0, x0, #0x80
  9708a0:	d37ef421 	lsl	x1, x1, #2
  9708a4:	b8206822 	str	w2, [x1, x0]
  9708a8:	d65f03c0 	ret

00000000009708ac <gicd_read_igrpmodr>:
  9708ac:	53057c21 	lsr	w1, w1, #5
  9708b0:	91340000 	add	x0, x0, #0xd00
  9708b4:	d37ef421 	lsl	x1, x1, #2
  9708b8:	b8606820 	ldr	w0, [x1, x0]
  9708bc:	d65f03c0 	ret

00000000009708c0 <gicd_write_igrpmodr>:
  9708c0:	53057c21 	lsr	w1, w1, #5
  9708c4:	91340000 	add	x0, x0, #0xd00
  9708c8:	d37ef421 	lsl	x1, x1, #2
  9708cc:	b8206822 	str	w2, [x1, x0]
  9708d0:	d65f03c0 	ret

00000000009708d4 <gicd_read_ipriorityr>:
  9708d4:	927e7421 	and	x1, x1, #0xfffffffc
  9708d8:	91100000 	add	x0, x0, #0x400
  9708dc:	b8606820 	ldr	w0, [x1, x0]
  9708e0:	d65f03c0 	ret

00000000009708e4 <gicd_write_ipriorityr>:
  9708e4:	927e7421 	and	x1, x1, #0xfffffffc
  9708e8:	91100000 	add	x0, x0, #0x400
  9708ec:	b8206822 	str	w2, [x1, x0]
  9708f0:	d65f03c0 	ret

00000000009708f4 <gicd_read_isactiver>:
  9708f4:	53057c21 	lsr	w1, w1, #5
  9708f8:	910c0000 	add	x0, x0, #0x300
  9708fc:	d37ef421 	lsl	x1, x1, #2
  970900:	b8606820 	ldr	w0, [x1, x0]
  970904:	d65f03c0 	ret

0000000000970908 <gicd_write_isactiver>:
  970908:	53057c21 	lsr	w1, w1, #5
  97090c:	910c0000 	add	x0, x0, #0x300
  970910:	d37ef421 	lsl	x1, x1, #2
  970914:	b8206822 	str	w2, [x1, x0]
  970918:	d65f03c0 	ret

000000000097091c <gicd_read_isenabler>:
  97091c:	53057c21 	lsr	w1, w1, #5
  970920:	91040000 	add	x0, x0, #0x100
  970924:	d37ef421 	lsl	x1, x1, #2
  970928:	b8606820 	ldr	w0, [x1, x0]
  97092c:	d65f03c0 	ret

0000000000970930 <gicd_write_isenabler>:
  970930:	53057c21 	lsr	w1, w1, #5
  970934:	91040000 	add	x0, x0, #0x100
  970938:	d37ef421 	lsl	x1, x1, #2
  97093c:	b8206822 	str	w2, [x1, x0]
  970940:	d65f03c0 	ret

0000000000970944 <gicd_read_ispendr>:
  970944:	53057c21 	lsr	w1, w1, #5
  970948:	91080000 	add	x0, x0, #0x200
  97094c:	d37ef421 	lsl	x1, x1, #2
  970950:	b8606820 	ldr	w0, [x1, x0]
  970954:	d65f03c0 	ret

0000000000970958 <gicd_write_ispendr>:
  970958:	53057c21 	lsr	w1, w1, #5
  97095c:	91080000 	add	x0, x0, #0x200
  970960:	d37ef421 	lsl	x1, x1, #2
  970964:	b8206822 	str	w2, [x1, x0]
  970968:	d65f03c0 	ret

000000000097096c <gicd_read_nsacr>:
  97096c:	53047c21 	lsr	w1, w1, #4
  970970:	91380000 	add	x0, x0, #0xe00
  970974:	d37ef421 	lsl	x1, x1, #2
  970978:	b8606820 	ldr	w0, [x1, x0]
  97097c:	d65f03c0 	ret

0000000000970980 <gicd_write_nsacr>:
  970980:	53047c21 	lsr	w1, w1, #4
  970984:	91380000 	add	x0, x0, #0xe00
  970988:	d37ef421 	lsl	x1, x1, #2
  97098c:	b8206822 	str	w2, [x1, x0]
  970990:	d65f03c0 	ret

0000000000970994 <gicr_write_ipriorityr>:
  970994:	91404000 	add	x0, x0, #0x10, lsl #12
  970998:	927e7421 	and	x1, x1, #0xfffffffc
  97099c:	91100000 	add	x0, x0, #0x400
  9709a0:	b8206822 	str	w2, [x1, x0]
  9709a4:	d65f03c0 	ret

00000000009709a8 <gicr_set_ipriorityr>:
  9709a8:	91404000 	add	x0, x0, #0x10, lsl #12
  9709ac:	2a0103e1 	mov	w1, w1
  9709b0:	91100000 	add	x0, x0, #0x400
  9709b4:	12001c42 	and	w2, w2, #0xff
  9709b8:	38216802 	strb	w2, [x0, x1]
  9709bc:	d65f03c0 	ret

00000000009709c0 <gicr_clr_igroupr>:
  9709c0:	53057c23 	lsr	w3, w1, #5
  9709c4:	91404000 	add	x0, x0, #0x10, lsl #12
  9709c8:	91020000 	add	x0, x0, #0x80
  9709cc:	52800022 	mov	w2, #0x1                   	// #1
  9709d0:	d37ef463 	lsl	x3, x3, #2
  9709d4:	1ac12041 	lsl	w1, w2, w1
  9709d8:	b8606864 	ldr	w4, [x3, x0]
  9709dc:	0a210081 	bic	w1, w4, w1
  9709e0:	b8206861 	str	w1, [x3, x0]
  9709e4:	d65f03c0 	ret

00000000009709e8 <gicr_set_igrpmodr>:
  9709e8:	53057c23 	lsr	w3, w1, #5
  9709ec:	91404000 	add	x0, x0, #0x10, lsl #12
  9709f0:	91340000 	add	x0, x0, #0xd00
  9709f4:	52800022 	mov	w2, #0x1                   	// #1
  9709f8:	d37ef463 	lsl	x3, x3, #2
  9709fc:	1ac12041 	lsl	w1, w2, w1
  970a00:	b8606864 	ldr	w4, [x3, x0]
  970a04:	2a040021 	orr	w1, w1, w4
  970a08:	b8206861 	str	w1, [x3, x0]
  970a0c:	d65f03c0 	ret

0000000000970a10 <gicr_clr_igrpmodr>:
  970a10:	53057c23 	lsr	w3, w1, #5
  970a14:	91404000 	add	x0, x0, #0x10, lsl #12
  970a18:	91340000 	add	x0, x0, #0xd00
  970a1c:	52800022 	mov	w2, #0x1                   	// #1
  970a20:	d37ef463 	lsl	x3, x3, #2
  970a24:	1ac12041 	lsl	w1, w2, w1
  970a28:	b8606864 	ldr	w4, [x3, x0]
  970a2c:	0a210081 	bic	w1, w4, w1
  970a30:	b8206861 	str	w1, [x3, x0]
  970a34:	d65f03c0 	ret

0000000000970a38 <gicr_set_isenabler>:
  970a38:	52800022 	mov	w2, #0x1                   	// #1
  970a3c:	91404000 	add	x0, x0, #0x10, lsl #12
  970a40:	1ac12042 	lsl	w2, w2, w1
  970a44:	53057c21 	lsr	w1, w1, #5
  970a48:	91040000 	add	x0, x0, #0x100
  970a4c:	d37ef421 	lsl	x1, x1, #2
  970a50:	b8206822 	str	w2, [x1, x0]
  970a54:	d65f03c0 	ret

0000000000970a58 <gicr_set_icfgr>:
  970a58:	531f0c24 	ubfiz	w4, w1, #1, #4
  970a5c:	53047c21 	lsr	w1, w1, #4
  970a60:	91404000 	add	x0, x0, #0x10, lsl #12
  970a64:	12000442 	and	w2, w2, #0x3
  970a68:	d37ef421 	lsl	x1, x1, #2
  970a6c:	91300000 	add	x0, x0, #0xc00
  970a70:	52800063 	mov	w3, #0x3                   	// #3
  970a74:	1ac42042 	lsl	w2, w2, w4
  970a78:	1ac42063 	lsl	w3, w3, w4
  970a7c:	b8606825 	ldr	w5, [x1, x0]
  970a80:	0a2300a3 	bic	w3, w5, w3
  970a84:	2a020063 	orr	w3, w3, w2
  970a88:	b8206823 	str	w3, [x1, x0]
  970a8c:	d65f03c0 	ret

0000000000970a90 <gicv3_rdistif_mark_core_awake>:
  970a90:	b9401401 	ldr	w1, [x0, #20]
  970a94:	91005002 	add	x2, x0, #0x14
  970a98:	36f800c1 	tbz	w1, #31, 970ab0 <gicv3_rdistif_mark_core_awake+0x20>
  970a9c:	b9401401 	ldr	w1, [x0, #20]
  970aa0:	121f7821 	and	w1, w1, #0xfffffffe
  970aa4:	b9001401 	str	w1, [x0, #20]
  970aa8:	b9400041 	ldr	w1, [x2]
  970aac:	37ffffe1 	tbnz	w1, #31, 970aa8 <gicv3_rdistif_mark_core_awake+0x18>
  970ab0:	b9401401 	ldr	w1, [x0, #20]
  970ab4:	121e7821 	and	w1, w1, #0xfffffffd
  970ab8:	b9001401 	str	w1, [x0, #20]
  970abc:	b9400040 	ldr	w0, [x2]
  970ac0:	3717ffe0 	tbnz	w0, #2, 970abc <gicv3_rdistif_mark_core_awake+0x2c>
  970ac4:	d65f03c0 	ret

0000000000970ac8 <gicv3_rdistif_mark_core_asleep>:
  970ac8:	b9401401 	ldr	w1, [x0, #20]
  970acc:	91005002 	add	x2, x0, #0x14
  970ad0:	321f0021 	orr	w1, w1, #0x2
  970ad4:	b9001401 	str	w1, [x0, #20]
  970ad8:	b9400040 	ldr	w0, [x2]
  970adc:	3617ffe0 	tbz	w0, #2, 970ad8 <gicv3_rdistif_mark_core_asleep+0x10>
  970ae0:	d65f03c0 	ret

0000000000970ae4 <gicv3_rdistif_base_addrs_probe>:
  970ae4:	a9bc7bfd 	stp	x29, x30, [sp, #-64]!
  970ae8:	910003fd 	mov	x29, sp
  970aec:	a90153f3 	stp	x19, x20, [sp, #16]
  970af0:	aa0203f3 	mov	x19, x2
  970af4:	a9025bf5 	stp	x21, x22, [sp, #32]
  970af8:	aa0003f6 	mov	x22, x0
  970afc:	aa0303f5 	mov	x21, x3
  970b00:	f9001bf7 	str	x23, [sp, #48]
  970b04:	2a0103f7 	mov	w23, w1
  970b08:	f9400674 	ldr	x20, [x19, #8]
  970b0c:	b40001f5 	cbz	x21, 970b48 <gicv3_rdistif_base_addrs_probe+0x64>
  970b10:	d360de81 	ubfx	x1, x20, #32, #24
  970b14:	d378fe80 	lsr	x0, x20, #56
  970b18:	aa008020 	orr	x0, x1, x0, lsl #32
  970b1c:	d63f02a0 	blr	x21
  970b20:	6b17001f 	cmp	w0, w23
  970b24:	54000042 	b.cs	970b2c <gicv3_rdistif_base_addrs_probe+0x48>  // b.hs, b.nlast
  970b28:	f8205ad3 	str	x19, [x22, w0, uxtw #3]
  970b2c:	91408273 	add	x19, x19, #0x20, lsl #12
  970b30:	3627fed4 	tbz	w20, #4, 970b08 <gicv3_rdistif_base_addrs_probe+0x24>
  970b34:	a94153f3 	ldp	x19, x20, [sp, #16]
  970b38:	a9425bf5 	ldp	x21, x22, [sp, #32]
  970b3c:	f9401bf7 	ldr	x23, [sp, #48]
  970b40:	a8c47bfd 	ldp	x29, x30, [sp], #64
  970b44:	d65f03c0 	ret
  970b48:	53085e80 	ubfx	w0, w20, #8, #16
  970b4c:	17fffff5 	b	970b20 <gicv3_rdistif_base_addrs_probe+0x3c>

0000000000970b50 <gicv3_get_spi_limit>:
  970b50:	b9400400 	ldr	w0, [x0, #4]
  970b54:	52807f81 	mov	w1, #0x3fc                 	// #1020
  970b58:	531b1000 	ubfiz	w0, w0, #5, #5
  970b5c:	11008000 	add	w0, w0, #0x20
  970b60:	710ff01f 	cmp	w0, #0x3fc
  970b64:	1a819000 	csel	w0, w0, w1, ls  // ls = plast
  970b68:	d65f03c0 	ret

0000000000970b6c <gicv3_spis_config_defaults>:
  970b6c:	a9bd7bfd 	stp	x29, x30, [sp, #-48]!
  970b70:	910003fd 	mov	x29, sp
  970b74:	a90153f3 	stp	x19, x20, [sp, #16]
  970b78:	aa0003f4 	mov	x20, x0
  970b7c:	f90013f5 	str	x21, [sp, #32]
  970b80:	97fffff4 	bl	970b50 <gicv3_get_spi_limit>
  970b84:	2a0003f3 	mov	w19, w0
  970b88:	52800415 	mov	w21, #0x20                  	// #32
  970b8c:	6b1302bf 	cmp	w21, w19
  970b90:	54000163 	b.cc	970bbc <gicv3_spis_config_defaults+0x50>  // b.lo, b.ul, b.last
  970b94:	52800415 	mov	w21, #0x20                  	// #32
  970b98:	6b1302bf 	cmp	w21, w19
  970b9c:	540001c3 	b.cc	970bd4 <gicv3_spis_config_defaults+0x68>  // b.lo, b.ul, b.last
  970ba0:	52800415 	mov	w21, #0x20                  	// #32
  970ba4:	6b1302bf 	cmp	w21, w19
  970ba8:	54000223 	b.cc	970bec <gicv3_spis_config_defaults+0x80>  // b.lo, b.ul, b.last
  970bac:	a94153f3 	ldp	x19, x20, [sp, #16]
  970bb0:	f94013f5 	ldr	x21, [sp, #32]
  970bb4:	a8c37bfd 	ldp	x29, x30, [sp], #48
  970bb8:	d65f03c0 	ret
  970bbc:	2a1503e1 	mov	w1, w21
  970bc0:	aa1403e0 	mov	x0, x20
  970bc4:	12800002 	mov	w2, #0xffffffff            	// #-1
  970bc8:	110082b5 	add	w21, w21, #0x20
  970bcc:	97ffff33 	bl	970898 <gicd_write_igroupr>
  970bd0:	17ffffef 	b	970b8c <gicv3_spis_config_defaults+0x20>
  970bd4:	2a1503e1 	mov	w1, w21
  970bd8:	aa1403e0 	mov	x0, x20
  970bdc:	3201c3e2 	mov	w2, #0x80808080            	// #-2139062144
  970be0:	110012b5 	add	w21, w21, #0x4
  970be4:	97ffff40 	bl	9708e4 <gicd_write_ipriorityr>
  970be8:	17ffffec 	b	970b98 <gicv3_spis_config_defaults+0x2c>
  970bec:	2a1503e1 	mov	w1, w21
  970bf0:	aa1403e0 	mov	x0, x20
  970bf4:	52800002 	mov	w2, #0x0                   	// #0
  970bf8:	110042b5 	add	w21, w21, #0x10
  970bfc:	97ffff1d 	bl	970870 <gicd_write_icfgr>
  970c00:	17ffffe9 	b	970ba4 <gicv3_spis_config_defaults+0x38>

0000000000970c04 <gicv3_secure_spis_config_props>:
  970c04:	a9bb7bfd 	stp	x29, x30, [sp, #-80]!
  970c08:	910003fd 	mov	x29, sp
  970c0c:	a90153f3 	stp	x19, x20, [sp, #16]
  970c10:	aa0103f3 	mov	x19, x1
  970c14:	a9025bf5 	stp	x21, x22, [sp, #32]
  970c18:	aa0003f5 	mov	x21, x0
  970c1c:	52800016 	mov	w22, #0x0                   	// #0
  970c20:	a90363f7 	stp	x23, x24, [sp, #48]
  970c24:	8b224837 	add	x23, x1, w2, uxtw #2
  970c28:	a9046bf9 	stp	x25, x26, [sp, #64]
  970c2c:	b2405ff9 	mov	x25, #0xffffff              	// #16777215
  970c30:	9140181a 	add	x26, x0, #0x6, lsl #12
  970c34:	f2c01ff9 	movk	x25, #0xff, lsl #32
  970c38:	eb17027f 	cmp	x19, x23
  970c3c:	54000101 	b.ne	970c5c <gicv3_secure_spis_config_props+0x58>  // b.any
  970c40:	2a1603e0 	mov	w0, w22
  970c44:	a94153f3 	ldp	x19, x20, [sp, #16]
  970c48:	a9425bf5 	ldp	x21, x22, [sp, #32]
  970c4c:	a94363f7 	ldp	x23, x24, [sp, #48]
  970c50:	a9446bf9 	ldp	x25, x26, [sp, #64]
  970c54:	a8c57bfd 	ldp	x29, x30, [sp], #80
  970c58:	d65f03c0 	ret
  970c5c:	b9400274 	ldr	w20, [x19]
  970c60:	d3403298 	ubfx	x24, x20, #0, #13
  970c64:	12003294 	and	w20, w20, #0x1fff
  970c68:	51008280 	sub	w0, w20, #0x20
  970c6c:	710f6c1f 	cmp	w0, #0x3db
  970c70:	54000388 	b.hi	970ce0 <gicv3_secure_spis_config_props+0xdc>  // b.pmore
  970c74:	2a1403e1 	mov	w1, w20
  970c78:	aa1503e0 	mov	x0, x21
  970c7c:	97fffed1 	bl	9707c0 <gicd_clr_igroupr>
  970c80:	b9400260 	ldr	w0, [x19]
  970c84:	2a1403e1 	mov	w1, w20
  970c88:	720b041f 	tst	w0, #0x600000
  970c8c:	aa1503e0 	mov	x0, x21
  970c90:	540002c1 	b.ne	970ce8 <gicv3_secure_spis_config_props+0xe4>  // b.any
  970c94:	321e02d6 	orr	w22, w22, #0x4
  970c98:	97fffed3 	bl	9707e4 <gicd_set_igrpmodr>
  970c9c:	b9400262 	ldr	w2, [x19]
  970ca0:	2a1403e1 	mov	w1, w20
  970ca4:	aa1503e0 	mov	x0, x21
  970ca8:	d3576042 	ubfx	x2, x2, #23, #2
  970cac:	97fffeb8 	bl	97078c <gicd_set_icfgr>
  970cb0:	b9400262 	ldr	w2, [x19]
  970cb4:	2a1403e1 	mov	w1, w20
  970cb8:	aa1503e0 	mov	x0, x21
  970cbc:	d34d5042 	ubfx	x2, x2, #13, #8
  970cc0:	97fffee2 	bl	970848 <gicd_set_ipriorityr>
  970cc4:	d53800a0 	mrs	x0, mpidr_el1
  970cc8:	d37d3318 	ubfiz	x24, x24, #3, #13
  970ccc:	8a190000 	and	x0, x0, x25
  970cd0:	2a1403e1 	mov	w1, w20
  970cd4:	f8386b40 	str	x0, [x26, x24]
  970cd8:	aa1503e0 	mov	x0, x21
  970cdc:	97fffed4 	bl	97082c <gicd_set_isenabler>
  970ce0:	91001273 	add	x19, x19, #0x4
  970ce4:	17ffffd5 	b	970c38 <gicv3_secure_spis_config_props+0x34>
  970ce8:	320002d6 	orr	w22, w22, #0x1
  970cec:	97fffec7 	bl	970808 <gicd_clr_igrpmodr>
  970cf0:	17ffffeb 	b	970c9c <gicv3_secure_spis_config_props+0x98>

0000000000970cf4 <gicv3_ppi_sgi_config_defaults>:
  970cf4:	a9be7bfd 	stp	x29, x30, [sp, #-32]!
  970cf8:	12800001 	mov	w1, #0xffffffff            	// #-1
  970cfc:	910003fd 	mov	x29, sp
  970d00:	a90153f3 	stp	x19, x20, [sp, #16]
  970d04:	aa0003f3 	mov	x19, x0
  970d08:	d2803000 	mov	x0, #0x180                 	// #384
  970d0c:	f2a00020 	movk	x0, #0x1, lsl #16
  970d10:	b8206a61 	str	w1, [x19, x0]
  970d14:	b9400260 	ldr	w0, [x19]
  970d18:	121d0014 	and	w20, w0, #0x8
  970d1c:	371fffc0 	tbnz	w0, #3, 970d14 <gicv3_ppi_sgi_config_defaults+0x20>
  970d20:	d2801000 	mov	x0, #0x80                  	// #128
  970d24:	12800001 	mov	w1, #0xffffffff            	// #-1
  970d28:	f2a00020 	movk	x0, #0x1, lsl #16
  970d2c:	b8206a61 	str	w1, [x19, x0]
  970d30:	2a1403e1 	mov	w1, w20
  970d34:	aa1303e0 	mov	x0, x19
  970d38:	3201c3e2 	mov	w2, #0x80808080            	// #-2139062144
  970d3c:	11001294 	add	w20, w20, #0x4
  970d40:	97ffff15 	bl	970994 <gicr_write_ipriorityr>
  970d44:	7100829f 	cmp	w20, #0x20
  970d48:	54ffff41 	b.ne	970d30 <gicv3_ppi_sgi_config_defaults+0x3c>  // b.any
  970d4c:	d2818080 	mov	x0, #0xc04                 	// #3076
  970d50:	f2a00020 	movk	x0, #0x1, lsl #16
  970d54:	b8206a7f 	str	wzr, [x19, x0]
  970d58:	a94153f3 	ldp	x19, x20, [sp, #16]
  970d5c:	a8c27bfd 	ldp	x29, x30, [sp], #32
  970d60:	d65f03c0 	ret

0000000000970d64 <gicv3_secure_ppi_sgi_config_props>:
  970d64:	a9bc7bfd 	stp	x29, x30, [sp, #-64]!
  970d68:	910003fd 	mov	x29, sp
  970d6c:	a90153f3 	stp	x19, x20, [sp, #16]
  970d70:	aa0103f3 	mov	x19, x1
  970d74:	a9025bf5 	stp	x21, x22, [sp, #32]
  970d78:	aa0003f5 	mov	x21, x0
  970d7c:	52800016 	mov	w22, #0x0                   	// #0
  970d80:	f9001bf7 	str	x23, [sp, #48]
  970d84:	8b224837 	add	x23, x1, w2, uxtw #2
  970d88:	eb17027f 	cmp	x19, x23
  970d8c:	540000e1 	b.ne	970da8 <gicv3_secure_ppi_sgi_config_props+0x44>  // b.any
  970d90:	2a1603e0 	mov	w0, w22
  970d94:	a94153f3 	ldp	x19, x20, [sp, #16]
  970d98:	a9425bf5 	ldp	x21, x22, [sp, #32]
  970d9c:	f9401bf7 	ldr	x23, [sp, #48]
  970da0:	a8c47bfd 	ldp	x29, x30, [sp], #64
  970da4:	d65f03c0 	ret
  970da8:	b9400274 	ldr	w20, [x19]
  970dac:	12003294 	and	w20, w20, #0x1fff
  970db0:	71007e9f 	cmp	w20, #0x1f
  970db4:	54000348 	b.hi	970e1c <gicv3_secure_ppi_sgi_config_props+0xb8>  // b.pmore
  970db8:	2a1403e1 	mov	w1, w20
  970dbc:	aa1503e0 	mov	x0, x21
  970dc0:	97ffff00 	bl	9709c0 <gicr_clr_igroupr>
  970dc4:	b9400260 	ldr	w0, [x19]
  970dc8:	2a1403e1 	mov	w1, w20
  970dcc:	720b041f 	tst	w0, #0x600000
  970dd0:	aa1503e0 	mov	x0, x21
  970dd4:	54000281 	b.ne	970e24 <gicv3_secure_ppi_sgi_config_props+0xc0>  // b.any
  970dd8:	321e02d6 	orr	w22, w22, #0x4
  970ddc:	97ffff03 	bl	9709e8 <gicr_set_igrpmodr>
  970de0:	b9400262 	ldr	w2, [x19]
  970de4:	2a1403e1 	mov	w1, w20
  970de8:	aa1503e0 	mov	x0, x21
  970dec:	d34d5042 	ubfx	x2, x2, #13, #8
  970df0:	97fffeee 	bl	9709a8 <gicr_set_ipriorityr>
  970df4:	71003e9f 	cmp	w20, #0xf
  970df8:	540000c9 	b.ls	970e10 <gicv3_secure_ppi_sgi_config_props+0xac>  // b.plast
  970dfc:	b9400262 	ldr	w2, [x19]
  970e00:	2a1403e1 	mov	w1, w20
  970e04:	aa1503e0 	mov	x0, x21
  970e08:	d3576042 	ubfx	x2, x2, #23, #2
  970e0c:	97ffff13 	bl	970a58 <gicr_set_icfgr>
  970e10:	2a1403e1 	mov	w1, w20
  970e14:	aa1503e0 	mov	x0, x21
  970e18:	97ffff08 	bl	970a38 <gicr_set_isenabler>
  970e1c:	91001273 	add	x19, x19, #0x4
  970e20:	17ffffda 	b	970d88 <gicv3_secure_ppi_sgi_config_props+0x24>
  970e24:	320002d6 	orr	w22, w22, #0x1
  970e28:	97fffefa 	bl	970a10 <gicr_clr_igrpmodr>
  970e2c:	17ffffed 	b	970de0 <gicv3_secure_ppi_sgi_config_props+0x7c>

0000000000970e30 <gicv3_get_component_prodid_rev>:
  970e30:	b9400800 	ldr	w0, [x0, #8]
  970e34:	53187c03 	lsr	w3, w0, #24
  970e38:	b9000023 	str	w3, [x1]
  970e3c:	d34c4c00 	ubfx	x0, x0, #12, #8
  970e40:	39000040 	strb	w0, [x2]
  970e44:	d65f03c0 	ret

0000000000970e48 <gicd_wait_for_pending_write>:
  970e48:	b9400001 	ldr	w1, [x0]
  970e4c:	37ffffe1 	tbnz	w1, #31, 970e48 <gicd_wait_for_pending_write>
  970e50:	d65f03c0 	ret

0000000000970e54 <gicr_wait_for_pending_write>:
  970e54:	b9400001 	ldr	w1, [x0]
  970e58:	371fffe1 	tbnz	w1, #3, 970e54 <gicr_wait_for_pending_write>
  970e5c:	d65f03c0 	ret

0000000000970e60 <gicv3_driver_init>:
  970e60:	a9be7bfd 	stp	x29, x30, [sp, #-32]!
  970e64:	d29ffd01 	mov	x1, #0xffe8                	// #65512
  970e68:	910003fd 	mov	x29, sp
  970e6c:	a90153f3 	stp	x19, x20, [sp, #16]
  970e70:	aa0003f3 	mov	x19, x0
  970e74:	f9400000 	ldr	x0, [x0]
  970e78:	f9400662 	ldr	x2, [x19, #8]
  970e7c:	b8616801 	ldr	w1, [x0, x1]
  970e80:	b9400000 	ldr	w0, [x0]
  970e84:	b4000102 	cbz	x2, 970ea4 <gicv3_driver_init+0x44>
  970e88:	a9420e60 	ldp	x0, x3, [x19, #32]
  970e8c:	b9401e61 	ldr	w1, [x19, #28]
  970e90:	97ffff15 	bl	970ae4 <gicv3_rdistif_base_addrs_probe>
  970e94:	f9401260 	ldr	x0, [x19, #32]
  970e98:	b9401e61 	ldr	w1, [x19, #28]
  970e9c:	d37df021 	lsl	x1, x1, #3
  970ea0:	94001c43 	bl	977fac <flush_dcache_range>
  970ea4:	f0000074 	adrp	x20, 97f000 <psci_ns_context+0x600>
  970ea8:	d2800101 	mov	x1, #0x8                   	// #8
  970eac:	9133a280 	add	x0, x20, #0xce8
  970eb0:	f9067693 	str	x19, [x20, #3304]
  970eb4:	94001c3e 	bl	977fac <flush_dcache_range>
  970eb8:	f9467680 	ldr	x0, [x20, #3304]
  970ebc:	d2800601 	mov	x1, #0x30                  	// #48
  970ec0:	94001c3b 	bl	977fac <flush_dcache_range>
  970ec4:	f9400260 	ldr	x0, [x19]
  970ec8:	a94153f3 	ldp	x19, x20, [sp, #16]
  970ecc:	a8c27bfd 	ldp	x29, x30, [sp], #32
  970ed0:	17fffe28 	b	970770 <gicv3_check_erratas_applies>

0000000000970ed4 <gicv3_distif_init>:
  970ed4:	a9be7bfd 	stp	x29, x30, [sp, #-32]!
  970ed8:	910003fd 	mov	x29, sp
  970edc:	f9000bf3 	str	x19, [sp, #16]
  970ee0:	f0000073 	adrp	x19, 97f000 <psci_ns_context+0x600>
  970ee4:	f9467660 	ldr	x0, [x19, #3304]
  970ee8:	f9400000 	ldr	x0, [x0]
  970eec:	b9400001 	ldr	w1, [x0]
  970ef0:	121d7021 	and	w1, w1, #0xfffffff8
  970ef4:	b9000001 	str	w1, [x0]
  970ef8:	97ffffd4 	bl	970e48 <gicd_wait_for_pending_write>
  970efc:	b9400001 	ldr	w1, [x0]
  970f00:	321c0421 	orr	w1, w1, #0x30
  970f04:	b9000001 	str	w1, [x0]
  970f08:	97ffffd0 	bl	970e48 <gicd_wait_for_pending_write>
  970f0c:	97ffff18 	bl	970b6c <gicv3_spis_config_defaults>
  970f10:	f9467660 	ldr	x0, [x19, #3304]
  970f14:	b9401802 	ldr	w2, [x0, #24]
  970f18:	f9400801 	ldr	x1, [x0, #16]
  970f1c:	f9400000 	ldr	x0, [x0]
  970f20:	97ffff39 	bl	970c04 <gicv3_secure_spis_config_props>
  970f24:	f9467661 	ldr	x1, [x19, #3304]
  970f28:	f9400bf3 	ldr	x19, [sp, #16]
  970f2c:	f9400021 	ldr	x1, [x1]
  970f30:	b9400022 	ldr	w2, [x1]
  970f34:	2a020000 	orr	w0, w0, w2
  970f38:	b9000020 	str	w0, [x1]
  970f3c:	aa0103e0 	mov	x0, x1
  970f40:	a8c27bfd 	ldp	x29, x30, [sp], #32
  970f44:	17ffffc1 	b	970e48 <gicd_wait_for_pending_write>

0000000000970f48 <gicv3_rdistif_init>:
  970f48:	a9bd7bfd 	stp	x29, x30, [sp, #-48]!
  970f4c:	910003fd 	mov	x29, sp
  970f50:	a90153f3 	stp	x19, x20, [sp, #16]
  970f54:	f0000073 	adrp	x19, 97f000 <psci_ns_context+0x600>
  970f58:	2a0003f4 	mov	w20, w0
  970f5c:	f9467661 	ldr	x1, [x19, #3304]
  970f60:	f9400021 	ldr	x1, [x1]
  970f64:	f90013f5 	str	x21, [sp, #32]
  970f68:	b9400035 	ldr	w21, [x1]
  970f6c:	97fffe00 	bl	97076c <gicv3_rdistif_on>
  970f70:	f9467660 	ldr	x0, [x19, #3304]
  970f74:	f9401000 	ldr	x0, [x0, #32]
  970f78:	f8745814 	ldr	x20, [x0, w20, uxtw #3]
  970f7c:	aa1403e0 	mov	x0, x20
  970f80:	97ffff5d 	bl	970cf4 <gicv3_ppi_sgi_config_defaults>
  970f84:	f9467660 	ldr	x0, [x19, #3304]
  970f88:	b9401802 	ldr	w2, [x0, #24]
  970f8c:	f9400801 	ldr	x1, [x0, #16]
  970f90:	aa1403e0 	mov	x0, x20
  970f94:	97ffff74 	bl	970d64 <gicv3_secure_ppi_sgi_config_props>
  970f98:	6a35001f 	bics	wzr, w0, w21
  970f9c:	54000160 	b.eq	970fc8 <gicv3_rdistif_init+0x80>  // b.none
  970fa0:	2a0003e1 	mov	w1, w0
  970fa4:	f9467660 	ldr	x0, [x19, #3304]
  970fa8:	a94153f3 	ldp	x19, x20, [sp, #16]
  970fac:	f9400000 	ldr	x0, [x0]
  970fb0:	f94013f5 	ldr	x21, [sp, #32]
  970fb4:	b9400002 	ldr	w2, [x0]
  970fb8:	2a020021 	orr	w1, w1, w2
  970fbc:	b9000001 	str	w1, [x0]
  970fc0:	a8c37bfd 	ldp	x29, x30, [sp], #48
  970fc4:	17ffffa1 	b	970e48 <gicd_wait_for_pending_write>
  970fc8:	a94153f3 	ldp	x19, x20, [sp, #16]
  970fcc:	f94013f5 	ldr	x21, [sp, #32]
  970fd0:	a8c37bfd 	ldp	x29, x30, [sp], #48
  970fd4:	d65f03c0 	ret

0000000000970fd8 <gicv3_cpuif_enable>:
  970fd8:	a9bf7bfd 	stp	x29, x30, [sp, #-16]!
  970fdc:	f0000061 	adrp	x1, 97f000 <psci_ns_context+0x600>
  970fe0:	910003fd 	mov	x29, sp
  970fe4:	f9467421 	ldr	x1, [x1, #3304]
  970fe8:	f9401021 	ldr	x1, [x1, #32]
  970fec:	f8605820 	ldr	x0, [x1, w0, uxtw #3]
  970ff0:	97fffea8 	bl	970a90 <gicv3_rdistif_mark_core_awake>
  970ff4:	d53ecca0 	mrs	x0, icc_sre_el3
  970ff8:	b2400c00 	orr	x0, x0, #0xf
  970ffc:	d51ecca0 	msr	icc_sre_el3, x0
  971000:	d53e1100 	mrs	x0, scr_el3
  971004:	b2400001 	orr	x1, x0, #0x1
  971008:	d51e1101 	msr	scr_el3, x1
  97100c:	d5033fdf 	isb
  971010:	d53cc9a1 	mrs	x1, icc_sre_el2
  971014:	b2400c21 	orr	x1, x1, #0xf
  971018:	d51cc9a1 	msr	icc_sre_el2, x1
  97101c:	d2800021 	mov	x1, #0x1                   	// #1
  971020:	d518cca1 	msr	icc_sre_el1, x1
  971024:	d5033fdf 	isb
  971028:	927ff802 	and	x2, x0, #0xfffffffffffffffe
  97102c:	d51e1102 	msr	scr_el3, x2
  971030:	d5033fdf 	isb
  971034:	d518cca1 	msr	icc_sre_el1, x1
  971038:	d5033fdf 	isb
  97103c:	d2801fe2 	mov	x2, #0xff                  	// #255
  971040:	d5184602 	msr	icc_pmr_el1, x2
  971044:	d518ccc1 	msr	icc_igrpen0_el1, x1
  971048:	d53ecce1 	mrs	x1, icc_igrpen1_el3
  97104c:	b27f0021 	orr	x1, x1, #0x2
  971050:	d51ecce1 	msr	icc_igrpen1_el3, x1
  971054:	d51e1100 	msr	scr_el3, x0
  971058:	d5033fdf 	isb
  97105c:	d5033f9f 	dsb	sy
  971060:	a8c17bfd 	ldp	x29, x30, [sp], #16
  971064:	d65f03c0 	ret

0000000000971068 <gicv3_cpuif_disable>:
  971068:	d53ecca1 	mrs	x1, icc_sre_el3
  97106c:	b27f0421 	orr	x1, x1, #0x6
  971070:	d51ecca1 	msr	icc_sre_el3, x1
  971074:	d538ccc1 	mrs	x1, icc_igrpen0_el1
  971078:	927f7821 	and	x1, x1, #0xfffffffe
  97107c:	d518ccc1 	msr	icc_igrpen0_el1, x1
  971080:	d53ecce1 	mrs	x1, icc_igrpen1_el3
  971084:	927e7421 	and	x1, x1, #0xfffffffc
  971088:	d51ecce1 	msr	icc_igrpen1_el3, x1
  97108c:	d5033fdf 	isb
  971090:	d5033f9f 	dsb	sy
  971094:	d0000061 	adrp	x1, 97f000 <psci_ns_context+0x600>
  971098:	f9467421 	ldr	x1, [x1, #3304]
  97109c:	f9401021 	ldr	x1, [x1, #32]
  9710a0:	f8605820 	ldr	x0, [x1, w0, uxtw #3]
  9710a4:	17fffe89 	b	970ac8 <gicv3_rdistif_mark_core_asleep>

00000000009710a8 <gicv3_get_pending_interrupt_type>:
  9710a8:	d538c840 	mrs	x0, icc_hppir0_el1
  9710ac:	12005c00 	and	w0, w0, #0xffffff
  9710b0:	d65f03c0 	ret

00000000009710b4 <gicv3_rdistif_save>:
  9710b4:	a9bf7bfd 	stp	x29, x30, [sp, #-16]!
  9710b8:	2a0003e3 	mov	w3, w0
  9710bc:	d0000060 	adrp	x0, 97f000 <psci_ns_context+0x600>
  9710c0:	910003fd 	mov	x29, sp
  9710c4:	f9467400 	ldr	x0, [x0, #3304]
  9710c8:	aa0103e2 	mov	x2, x1
  9710cc:	f9401000 	ldr	x0, [x0, #32]
  9710d0:	f8635800 	ldr	x0, [x0, w3, uxtw #3]
  9710d4:	91404004 	add	x4, x0, #0x10, lsl #12
  9710d8:	97ffff5f 	bl	970e54 <gicr_wait_for_pending_write>
  9710dc:	91108084 	add	x4, x4, #0x420
  9710e0:	b9400001 	ldr	w1, [x0]
  9710e4:	b9001041 	str	w1, [x2, #16]
  9710e8:	f9403801 	ldr	x1, [x0, #112]
  9710ec:	f9000041 	str	x1, [x2]
  9710f0:	f9403c01 	ldr	x1, [x0, #120]
  9710f4:	f9000441 	str	x1, [x2, #8]
  9710f8:	d2801001 	mov	x1, #0x80                  	// #128
  9710fc:	f2a00021 	movk	x1, #0x1, lsl #16
  971100:	b8616801 	ldr	w1, [x0, x1]
  971104:	b9001441 	str	w1, [x2, #20]
  971108:	d2802001 	mov	x1, #0x100                 	// #256
  97110c:	f2a00021 	movk	x1, #0x1, lsl #16
  971110:	b8616801 	ldr	w1, [x0, x1]
  971114:	b9001841 	str	w1, [x2, #24]
  971118:	d2804001 	mov	x1, #0x200                 	// #512
  97111c:	f2a00021 	movk	x1, #0x1, lsl #16
  971120:	b8616801 	ldr	w1, [x0, x1]
  971124:	b9001c41 	str	w1, [x2, #28]
  971128:	d2806001 	mov	x1, #0x300                 	// #768
  97112c:	f2a00021 	movk	x1, #0x1, lsl #16
  971130:	b8616801 	ldr	w1, [x0, x1]
  971134:	b9002041 	str	w1, [x2, #32]
  971138:	d281a001 	mov	x1, #0xd00                 	// #3328
  97113c:	f2a00021 	movk	x1, #0x1, lsl #16
  971140:	b8616801 	ldr	w1, [x0, x1]
  971144:	b9004c41 	str	w1, [x2, #76]
  971148:	d2818001 	mov	x1, #0xc00                 	// #3072
  97114c:	f2a00021 	movk	x1, #0x1, lsl #16
  971150:	b8616801 	ldr	w1, [x0, x1]
  971154:	b9004441 	str	w1, [x2, #68]
  971158:	d2818081 	mov	x1, #0xc04                 	// #3076
  97115c:	f2a00021 	movk	x1, #0x1, lsl #16
  971160:	b8616801 	ldr	w1, [x0, x1]
  971164:	b9004841 	str	w1, [x2, #72]
  971168:	d281c001 	mov	x1, #0xe00                 	// #3584
  97116c:	f2a00021 	movk	x1, #0x1, lsl #16
  971170:	b8616801 	ldr	w1, [x0, x1]
  971174:	b9005041 	str	w1, [x2, #80]
  971178:	cb000042 	sub	x2, x2, x0
  97117c:	91404001 	add	x1, x0, #0x10, lsl #12
  971180:	d1404042 	sub	x2, x2, #0x10, lsl #12
  971184:	91100021 	add	x1, x1, #0x400
  971188:	d10f7042 	sub	x2, x2, #0x3dc
  97118c:	b9400020 	ldr	w0, [x1]
  971190:	b8216840 	str	w0, [x2, x1]
  971194:	91001021 	add	x1, x1, #0x4
  971198:	eb04003f 	cmp	x1, x4
  97119c:	54ffff81 	b.ne	97118c <gicv3_rdistif_save+0xd8>  // b.any
  9711a0:	a8c17bfd 	ldp	x29, x30, [sp], #16
  9711a4:	2a0303e0 	mov	w0, w3
  9711a8:	17fffd6f 	b	970764 <gicv3_distif_pre_save>

00000000009711ac <gicv3_rdistif_init_restore>:
  9711ac:	a9bd7bfd 	stp	x29, x30, [sp, #-48]!
  9711b0:	910003fd 	mov	x29, sp
  9711b4:	a90153f3 	stp	x19, x20, [sp, #16]
  9711b8:	aa0103f4 	mov	x20, x1
  9711bc:	d0000061 	adrp	x1, 97f000 <psci_ns_context+0x600>
  9711c0:	f9467421 	ldr	x1, [x1, #3304]
  9711c4:	f9401021 	ldr	x1, [x1, #32]
  9711c8:	f90013f5 	str	x21, [sp, #32]
  9711cc:	2a0003f5 	mov	w21, w0
  9711d0:	f8755833 	ldr	x19, [x1, w21, uxtw #3]
  9711d4:	97fffd66 	bl	97076c <gicv3_rdistif_on>
  9711d8:	2a1503e0 	mov	w0, w21
  9711dc:	97fffd63 	bl	970768 <gicv3_distif_post_restore>
  9711e0:	d2803000 	mov	x0, #0x180                 	// #384
  9711e4:	12800001 	mov	w1, #0xffffffff            	// #-1
  9711e8:	f2a00020 	movk	x0, #0x1, lsl #16
  9711ec:	91404262 	add	x2, x19, #0x10, lsl #12
  9711f0:	91108042 	add	x2, x2, #0x420
  9711f4:	b8206a61 	str	w1, [x19, x0]
  9711f8:	aa1303e0 	mov	x0, x19
  9711fc:	97ffff16 	bl	970e54 <gicr_wait_for_pending_write>
  971200:	b9401281 	ldr	w1, [x20, #16]
  971204:	121f7821 	and	w1, w1, #0xfffffffe
  971208:	b9000261 	str	w1, [x19]
  97120c:	97ffff12 	bl	970e54 <gicr_wait_for_pending_write>
  971210:	f9400280 	ldr	x0, [x20]
  971214:	b9401681 	ldr	w1, [x20, #20]
  971218:	f9003a60 	str	x0, [x19, #112]
  97121c:	f9400680 	ldr	x0, [x20, #8]
  971220:	f9003e60 	str	x0, [x19, #120]
  971224:	d2801000 	mov	x0, #0x80                  	// #128
  971228:	f2a00020 	movk	x0, #0x1, lsl #16
  97122c:	b8206a61 	str	w1, [x19, x0]
  971230:	91320000 	add	x0, x0, #0xc80
  971234:	b9404e81 	ldr	w1, [x20, #76]
  971238:	b8206a61 	str	w1, [x19, x0]
  97123c:	cb130281 	sub	x1, x20, x19
  971240:	91404260 	add	x0, x19, #0x10, lsl #12
  971244:	d1404021 	sub	x1, x1, #0x10, lsl #12
  971248:	91100000 	add	x0, x0, #0x400
  97124c:	d10f7021 	sub	x1, x1, #0x3dc
  971250:	b8606823 	ldr	w3, [x1, x0]
  971254:	b8004403 	str	w3, [x0], #4
  971258:	eb02001f 	cmp	x0, x2
  97125c:	54ffffa1 	b.ne	971250 <gicv3_rdistif_init_restore+0xa4>  // b.any
  971260:	d2818000 	mov	x0, #0xc00                 	// #3072
  971264:	b9404681 	ldr	w1, [x20, #68]
  971268:	f2a00020 	movk	x0, #0x1, lsl #16
  97126c:	b8206a61 	str	w1, [x19, x0]
  971270:	91001000 	add	x0, x0, #0x4
  971274:	b9404a81 	ldr	w1, [x20, #72]
  971278:	b8206a61 	str	w1, [x19, x0]
  97127c:	9107f000 	add	x0, x0, #0x1fc
  971280:	b9405281 	ldr	w1, [x20, #80]
  971284:	b8206a61 	str	w1, [x19, x0]
  971288:	d1300000 	sub	x0, x0, #0xc00
  97128c:	b9401e81 	ldr	w1, [x20, #28]
  971290:	b8206a61 	str	w1, [x19, x0]
  971294:	91040000 	add	x0, x0, #0x100
  971298:	b9402281 	ldr	w1, [x20, #32]
  97129c:	b8206a61 	str	w1, [x19, x0]
  9712a0:	aa1303e0 	mov	x0, x19
  9712a4:	97fffee9 	bl	970e48 <gicd_wait_for_pending_write>
  9712a8:	b9401a82 	ldr	w2, [x20, #24]
  9712ac:	d2802001 	mov	x1, #0x100                 	// #256
  9712b0:	f2a00021 	movk	x1, #0x1, lsl #16
  9712b4:	f94013f5 	ldr	x21, [sp, #32]
  9712b8:	b8216a62 	str	w2, [x19, x1]
  9712bc:	b9401281 	ldr	w1, [x20, #16]
  9712c0:	a94153f3 	ldp	x19, x20, [sp, #16]
  9712c4:	b9000001 	str	w1, [x0]
  9712c8:	a8c37bfd 	ldp	x29, x30, [sp], #48
  9712cc:	17fffee2 	b	970e54 <gicr_wait_for_pending_write>

00000000009712d0 <gicv3_distif_save>:
  9712d0:	a9bd7bfd 	stp	x29, x30, [sp, #-48]!
  9712d4:	910003fd 	mov	x29, sp
  9712d8:	a90153f3 	stp	x19, x20, [sp, #16]
  9712dc:	aa0003f4 	mov	x20, x0
  9712e0:	d0000060 	adrp	x0, 97f000 <psci_ns_context+0x600>
  9712e4:	a9025bf5 	stp	x21, x22, [sp, #32]
  9712e8:	52800416 	mov	w22, #0x20                  	// #32
  9712ec:	f9467400 	ldr	x0, [x0, #3304]
  9712f0:	f9400013 	ldr	x19, [x0]
  9712f4:	aa1303e0 	mov	x0, x19
  9712f8:	97fffe16 	bl	970b50 <gicv3_get_spi_limit>
  9712fc:	2a0003f5 	mov	w21, w0
  971300:	aa1303e0 	mov	x0, x19
  971304:	97fffed1 	bl	970e48 <gicd_wait_for_pending_write>
  971308:	b9400260 	ldr	w0, [x19]
  97130c:	b91ee280 	str	w0, [x20, #7904]
  971310:	6b1502df 	cmp	w22, w21
  971314:	54000403 	b.cc	971394 <gicv3_distif_save+0xc4>  // b.lo, b.ul, b.last
  971318:	52800416 	mov	w22, #0x20                  	// #32
  97131c:	6b1502df 	cmp	w22, w21
  971320:	540004c3 	b.cc	9713b8 <gicv3_distif_save+0xe8>  // b.lo, b.ul, b.last
  971324:	52800416 	mov	w22, #0x20                  	// #32
  971328:	6b1502df 	cmp	w22, w21
  97132c:	54000583 	b.cc	9713dc <gicv3_distif_save+0x10c>  // b.lo, b.ul, b.last
  971330:	52800416 	mov	w22, #0x20                  	// #32
  971334:	6b1502df 	cmp	w22, w21
  971338:	54000643 	b.cc	971400 <gicv3_distif_save+0x130>  // b.lo, b.ul, b.last
  97133c:	52800416 	mov	w22, #0x20                  	// #32
  971340:	6b1502df 	cmp	w22, w21
  971344:	54000703 	b.cc	971424 <gicv3_distif_save+0x154>  // b.lo, b.ul, b.last
  971348:	52800416 	mov	w22, #0x20                  	// #32
  97134c:	6b1502df 	cmp	w22, w21
  971350:	540007c3 	b.cc	971448 <gicv3_distif_save+0x178>  // b.lo, b.ul, b.last
  971354:	52800416 	mov	w22, #0x20                  	// #32
  971358:	6b1502df 	cmp	w22, w21
  97135c:	54000883 	b.cc	97146c <gicv3_distif_save+0x19c>  // b.lo, b.ul, b.last
  971360:	52800416 	mov	w22, #0x20                  	// #32
  971364:	6b1502df 	cmp	w22, w21
  971368:	54000943 	b.cc	971490 <gicv3_distif_save+0x1c0>  // b.lo, b.ul, b.last
  97136c:	d28c2000 	mov	x0, #0x6100                	// #24832
  971370:	8b000273 	add	x19, x19, x0
  971374:	d2800000 	mov	x0, #0x0                   	// #0
  971378:	11008001 	add	w1, w0, #0x20
  97137c:	6b0102bf 	cmp	w21, w1
  971380:	540009a8 	b.hi	9714b4 <gicv3_distif_save+0x1e4>  // b.pmore
  971384:	a94153f3 	ldp	x19, x20, [sp, #16]
  971388:	a9425bf5 	ldp	x21, x22, [sp, #32]
  97138c:	a8c37bfd 	ldp	x29, x30, [sp], #48
  971390:	d65f03c0 	ret
  971394:	2a1603e1 	mov	w1, w22
  971398:	aa1303e0 	mov	x0, x19
  97139c:	97fffd3a 	bl	970884 <gicd_read_igroupr>
  9713a0:	510082c1 	sub	w1, w22, #0x20
  9713a4:	110082d6 	add	w22, w22, #0x20
  9713a8:	53057c21 	lsr	w1, w1, #5
  9713ac:	8b010a81 	add	x1, x20, x1, lsl #2
  9713b0:	b91ee420 	str	w0, [x1, #7908]
  9713b4:	17ffffd7 	b	971310 <gicv3_distif_save+0x40>
  9713b8:	2a1603e1 	mov	w1, w22
  9713bc:	aa1303e0 	mov	x0, x19
  9713c0:	97fffd57 	bl	97091c <gicd_read_isenabler>
  9713c4:	510082c1 	sub	w1, w22, #0x20
  9713c8:	110082d6 	add	w22, w22, #0x20
  9713cc:	53057c21 	lsr	w1, w1, #5
  9713d0:	911f6021 	add	x1, x1, #0x7d8
  9713d4:	b8217a80 	str	w0, [x20, x1, lsl #2]
  9713d8:	17ffffd1 	b	97131c <gicv3_distif_save+0x4c>
  9713dc:	2a1603e1 	mov	w1, w22
  9713e0:	aa1303e0 	mov	x0, x19
  9713e4:	97fffd58 	bl	970944 <gicd_read_ispendr>
  9713e8:	510082c1 	sub	w1, w22, #0x20
  9713ec:	110082d6 	add	w22, w22, #0x20
  9713f0:	53057c21 	lsr	w1, w1, #5
  9713f4:	8b010a81 	add	x1, x20, x1, lsl #2
  9713f8:	b91fdc20 	str	w0, [x1, #8156]
  9713fc:	17ffffcb 	b	971328 <gicv3_distif_save+0x58>
  971400:	2a1603e1 	mov	w1, w22
  971404:	aa1303e0 	mov	x0, x19
  971408:	97fffd3b 	bl	9708f4 <gicd_read_isactiver>
  97140c:	510082c1 	sub	w1, w22, #0x20
  971410:	110082d6 	add	w22, w22, #0x20
  971414:	53057c21 	lsr	w1, w1, #5
  971418:	8b010a81 	add	x1, x20, x1, lsl #2
  97141c:	b9205820 	str	w0, [x1, #8280]
  971420:	17ffffc5 	b	971334 <gicv3_distif_save+0x64>
  971424:	2a1603e1 	mov	w1, w22
  971428:	aa1303e0 	mov	x0, x19
  97142c:	97fffd2a 	bl	9708d4 <gicd_read_ipriorityr>
  971430:	510082c1 	sub	w1, w22, #0x20
  971434:	110012d6 	add	w22, w22, #0x4
  971438:	927e7421 	and	x1, x1, #0xfffffffc
  97143c:	8b010281 	add	x1, x20, x1
  971440:	b920d420 	str	w0, [x1, #8404]
  971444:	17ffffbf 	b	971340 <gicv3_distif_save+0x70>
  971448:	2a1603e1 	mov	w1, w22
  97144c:	aa1303e0 	mov	x0, x19
  971450:	97fffd03 	bl	97085c <gicd_read_icfgr>
  971454:	510082c1 	sub	w1, w22, #0x20
  971458:	110042d6 	add	w22, w22, #0x10
  97145c:	53047c21 	lsr	w1, w1, #4
  971460:	9124b021 	add	x1, x1, #0x92c
  971464:	b8217a80 	str	w0, [x20, x1, lsl #2]
  971468:	17ffffb9 	b	97134c <gicv3_distif_save+0x7c>
  97146c:	2a1603e1 	mov	w1, w22
  971470:	aa1303e0 	mov	x0, x19
  971474:	97fffd0e 	bl	9708ac <gicd_read_igrpmodr>
  971478:	510082c1 	sub	w1, w22, #0x20
  97147c:	110082d6 	add	w22, w22, #0x20
  971480:	53057c21 	lsr	w1, w1, #5
  971484:	8b010a81 	add	x1, x20, x1, lsl #2
  971488:	b925a820 	str	w0, [x1, #9640]
  97148c:	17ffffb3 	b	971358 <gicv3_distif_save+0x88>
  971490:	2a1603e1 	mov	w1, w22
  971494:	aa1303e0 	mov	x0, x19
  971498:	97fffd35 	bl	97096c <gicd_read_nsacr>
  97149c:	510082c1 	sub	w1, w22, #0x20
  9714a0:	110042d6 	add	w22, w22, #0x10
  9714a4:	53047c21 	lsr	w1, w1, #4
  9714a8:	8b010a81 	add	x1, x20, x1, lsl #2
  9714ac:	b9262420 	str	w0, [x1, #9764]
  9714b0:	17ffffad 	b	971364 <gicv3_distif_save+0x94>
  9714b4:	f8408661 	ldr	x1, [x19], #8
  9714b8:	f8207a81 	str	x1, [x20, x0, lsl #3]
  9714bc:	91000400 	add	x0, x0, #0x1
  9714c0:	17ffffae 	b	971378 <gicv3_distif_save+0xa8>

00000000009714c4 <gicv3_distif_init_restore>:
  9714c4:	a9bd7bfd 	stp	x29, x30, [sp, #-48]!
  9714c8:	910003fd 	mov	x29, sp
  9714cc:	a90153f3 	stp	x19, x20, [sp, #16]
  9714d0:	aa0003f4 	mov	x20, x0
  9714d4:	d0000060 	adrp	x0, 97f000 <psci_ns_context+0x600>
  9714d8:	a9025bf5 	stp	x21, x22, [sp, #32]
  9714dc:	52800416 	mov	w22, #0x20                  	// #32
  9714e0:	f9467400 	ldr	x0, [x0, #3304]
  9714e4:	f9400013 	ldr	x19, [x0]
  9714e8:	b9400260 	ldr	w0, [x19]
  9714ec:	121d7000 	and	w0, w0, #0xfffffff8
  9714f0:	b9000260 	str	w0, [x19]
  9714f4:	aa1303e0 	mov	x0, x19
  9714f8:	97fffe54 	bl	970e48 <gicd_wait_for_pending_write>
  9714fc:	b9400261 	ldr	w1, [x19]
  971500:	321c0421 	orr	w1, w1, #0x30
  971504:	b9000261 	str	w1, [x19]
  971508:	97fffe50 	bl	970e48 <gicd_wait_for_pending_write>
  97150c:	97fffd91 	bl	970b50 <gicv3_get_spi_limit>
  971510:	2a0003f5 	mov	w21, w0
  971514:	6b1502df 	cmp	w22, w21
  971518:	54000463 	b.cc	9715a4 <gicv3_distif_init_restore+0xe0>  // b.lo, b.ul, b.last
  97151c:	52800416 	mov	w22, #0x20                  	// #32
  971520:	6b1502df 	cmp	w22, w21
  971524:	54000523 	b.cc	9715c8 <gicv3_distif_init_restore+0x104>  // b.lo, b.ul, b.last
  971528:	52800416 	mov	w22, #0x20                  	// #32
  97152c:	6b1502df 	cmp	w22, w21
  971530:	540005e3 	b.cc	9715ec <gicv3_distif_init_restore+0x128>  // b.lo, b.ul, b.last
  971534:	52800416 	mov	w22, #0x20                  	// #32
  971538:	6b1502df 	cmp	w22, w21
  97153c:	540006a3 	b.cc	971610 <gicv3_distif_init_restore+0x14c>  // b.lo, b.ul, b.last
  971540:	52800416 	mov	w22, #0x20                  	// #32
  971544:	6b1502df 	cmp	w22, w21
  971548:	54000763 	b.cc	971634 <gicv3_distif_init_restore+0x170>  // b.lo, b.ul, b.last
  97154c:	d28c2000 	mov	x0, #0x6100                	// #24832
  971550:	8b000261 	add	x1, x19, x0
  971554:	d2800000 	mov	x0, #0x0                   	// #0
  971558:	11008002 	add	w2, w0, #0x20
  97155c:	6b0202bf 	cmp	w21, w2
  971560:	540007c8 	b.hi	971658 <gicv3_distif_init_restore+0x194>  // b.pmore
  971564:	52800416 	mov	w22, #0x20                  	// #32
  971568:	6b1502df 	cmp	w22, w21
  97156c:	540007e3 	b.cc	971668 <gicv3_distif_init_restore+0x1a4>  // b.lo, b.ul, b.last
  971570:	52800416 	mov	w22, #0x20                  	// #32
  971574:	6b1502df 	cmp	w22, w21
  971578:	540008a3 	b.cc	97168c <gicv3_distif_init_restore+0x1c8>  // b.lo, b.ul, b.last
  97157c:	52800416 	mov	w22, #0x20                  	// #32
  971580:	6b1502df 	cmp	w22, w21
  971584:	54000963 	b.cc	9716b0 <gicv3_distif_init_restore+0x1ec>  // b.lo, b.ul, b.last
  971588:	b95ee280 	ldr	w0, [x20, #7904]
  97158c:	a9425bf5 	ldp	x21, x22, [sp, #32]
  971590:	b9000260 	str	w0, [x19]
  971594:	aa1303e0 	mov	x0, x19
  971598:	a94153f3 	ldp	x19, x20, [sp, #16]
  97159c:	a8c37bfd 	ldp	x29, x30, [sp], #48
  9715a0:	17fffe2a 	b	970e48 <gicd_wait_for_pending_write>
  9715a4:	510082c0 	sub	w0, w22, #0x20
  9715a8:	2a1603e1 	mov	w1, w22
  9715ac:	110082d6 	add	w22, w22, #0x20
  9715b0:	53057c00 	lsr	w0, w0, #5
  9715b4:	8b000a80 	add	x0, x20, x0, lsl #2
  9715b8:	b95ee402 	ldr	w2, [x0, #7908]
  9715bc:	aa1303e0 	mov	x0, x19
  9715c0:	97fffcb6 	bl	970898 <gicd_write_igroupr>
  9715c4:	17ffffd4 	b	971514 <gicv3_distif_init_restore+0x50>
  9715c8:	510082c0 	sub	w0, w22, #0x20
  9715cc:	2a1603e1 	mov	w1, w22
  9715d0:	927e7400 	and	x0, x0, #0xfffffffc
  9715d4:	110012d6 	add	w22, w22, #0x4
  9715d8:	8b000280 	add	x0, x20, x0
  9715dc:	b960d402 	ldr	w2, [x0, #8404]
  9715e0:	aa1303e0 	mov	x0, x19
  9715e4:	97fffcc0 	bl	9708e4 <gicd_write_ipriorityr>
  9715e8:	17ffffce 	b	971520 <gicv3_distif_init_restore+0x5c>
  9715ec:	510082c0 	sub	w0, w22, #0x20
  9715f0:	2a1603e1 	mov	w1, w22
  9715f4:	110042d6 	add	w22, w22, #0x10
  9715f8:	53047c00 	lsr	w0, w0, #4
  9715fc:	9124b000 	add	x0, x0, #0x92c
  971600:	b8607a82 	ldr	w2, [x20, x0, lsl #2]
  971604:	aa1303e0 	mov	x0, x19
  971608:	97fffc9a 	bl	970870 <gicd_write_icfgr>
  97160c:	17ffffc8 	b	97152c <gicv3_distif_init_restore+0x68>
  971610:	510082c0 	sub	w0, w22, #0x20
  971614:	2a1603e1 	mov	w1, w22
  971618:	110082d6 	add	w22, w22, #0x20
  97161c:	53057c00 	lsr	w0, w0, #5
  971620:	8b000a80 	add	x0, x20, x0, lsl #2
  971624:	b965a802 	ldr	w2, [x0, #9640]
  971628:	aa1303e0 	mov	x0, x19
  97162c:	97fffca5 	bl	9708c0 <gicd_write_igrpmodr>
  971630:	17ffffc2 	b	971538 <gicv3_distif_init_restore+0x74>
  971634:	510082c0 	sub	w0, w22, #0x20
  971638:	2a1603e1 	mov	w1, w22
  97163c:	110042d6 	add	w22, w22, #0x10
  971640:	53047c00 	lsr	w0, w0, #4
  971644:	8b000a80 	add	x0, x20, x0, lsl #2
  971648:	b9662402 	ldr	w2, [x0, #9764]
  97164c:	aa1303e0 	mov	x0, x19
  971650:	97fffccc 	bl	970980 <gicd_write_nsacr>
  971654:	17ffffbc 	b	971544 <gicv3_distif_init_restore+0x80>
  971658:	f8607a82 	ldr	x2, [x20, x0, lsl #3]
  97165c:	91000400 	add	x0, x0, #0x1
  971660:	f8008422 	str	x2, [x1], #8
  971664:	17ffffbd 	b	971558 <gicv3_distif_init_restore+0x94>
  971668:	510082c0 	sub	w0, w22, #0x20
  97166c:	2a1603e1 	mov	w1, w22
  971670:	110082d6 	add	w22, w22, #0x20
  971674:	53057c00 	lsr	w0, w0, #5
  971678:	911f6000 	add	x0, x0, #0x7d8
  97167c:	b8607a82 	ldr	w2, [x20, x0, lsl #2]
  971680:	aa1303e0 	mov	x0, x19
  971684:	97fffcab 	bl	970930 <gicd_write_isenabler>
  971688:	17ffffb8 	b	971568 <gicv3_distif_init_restore+0xa4>
  97168c:	510082c0 	sub	w0, w22, #0x20
  971690:	2a1603e1 	mov	w1, w22
  971694:	110082d6 	add	w22, w22, #0x20
  971698:	53057c00 	lsr	w0, w0, #5
  97169c:	8b000a80 	add	x0, x20, x0, lsl #2
  9716a0:	b95fdc02 	ldr	w2, [x0, #8156]
  9716a4:	aa1303e0 	mov	x0, x19
  9716a8:	97fffcac 	bl	970958 <gicd_write_ispendr>
  9716ac:	17ffffb2 	b	971574 <gicv3_distif_init_restore+0xb0>
  9716b0:	510082c0 	sub	w0, w22, #0x20
  9716b4:	2a1603e1 	mov	w1, w22
  9716b8:	110082d6 	add	w22, w22, #0x20
  9716bc:	53057c00 	lsr	w0, w0, #5
  9716c0:	8b000a80 	add	x0, x20, x0, lsl #2
  9716c4:	b9605802 	ldr	w2, [x0, #8280]
  9716c8:	aa1303e0 	mov	x0, x19
  9716cc:	97fffc8f 	bl	970908 <gicd_write_isactiver>
  9716d0:	17ffffac 	b	971580 <gicv3_distif_init_restore+0xbc>

00000000009716d4 <gicv3_raise_sgi>:
  9716d4:	d3505c44 	ubfx	x4, x2, #16, #8
  9716d8:	d3609c43 	ubfx	x3, x2, #32, #8
  9716dc:	d3483c45 	ubfx	x5, x2, #8, #8
  9716e0:	d3680c00 	ubfiz	x0, x0, #24, #4
  9716e4:	d3607c84 	lsl	x4, x4, #32
  9716e8:	aa03c083 	orr	x3, x4, x3, lsl #48
  9716ec:	52800024 	mov	w4, #0x1                   	// #1
  9716f0:	1ac22082 	lsl	w2, w4, w2
  9716f4:	92403c42 	and	x2, x2, #0xffff
  9716f8:	aa054042 	orr	x2, x2, x5, lsl #16
  9716fc:	aa020062 	orr	x2, x3, x2
  971700:	aa000040 	orr	x0, x2, x0
  971704:	d5033a9f 	dsb	ishst
  971708:	6b04003f 	cmp	w1, w4
  97170c:	54000120 	b.eq	971730 <gicv3_raise_sgi+0x5c>  // b.none
  971710:	7100083f 	cmp	w1, #0x2
  971714:	54000080 	b.eq	971724 <gicv3_raise_sgi+0x50>  // b.none
  971718:	35000081 	cbnz	w1, 971728 <gicv3_raise_sgi+0x54>
  97171c:	d518cba0 	msr	icc_sgi1r_el1, x0
  971720:	14000002 	b	971728 <gicv3_raise_sgi+0x54>
  971724:	d518cbe0 	msr	icc_sgi0r_el1, x0
  971728:	d5033fdf 	isb
  97172c:	d65f03c0 	ret
  971730:	d518cbc0 	msr	icc_asgi1r_el1, x0
  971734:	17fffffd 	b	971728 <gicv3_raise_sgi+0x54>

0000000000971738 <tzc380_init>:
  971738:	d0000061 	adrp	x1, 97f000 <psci_ns_context+0x600>
  97173c:	9133c022 	add	x2, x1, #0xcf0
  971740:	f9067820 	str	x0, [x1, #3312]
  971744:	b9400000 	ldr	w0, [x0]
  971748:	d3483401 	ubfx	x1, x0, #8, #6
  97174c:	12000c00 	and	w0, w0, #0xf
  971750:	11000421 	add	w1, w1, #0x1
  971754:	11000400 	add	w0, w0, #0x1
  971758:	39002041 	strb	w1, [x2, #8]
  97175c:	39002440 	strb	w0, [x2, #9]
  971760:	d65f03c0 	ret

0000000000971764 <tzc380_configure_region>:
  971764:	d0000063 	adrp	x3, 97f000 <psci_ns_context+0x600>
  971768:	531c1c00 	ubfiz	w0, w0, #4, #8
  97176c:	11040004 	add	w4, w0, #0x100
  971770:	f9467863 	ldr	x3, [x3, #3312]
  971774:	aa0403e0 	mov	x0, x4
  971778:	11002000 	add	w0, w0, #0x8
  97177c:	b8236881 	str	w1, [x4, x3]
  971780:	11001084 	add	w4, w4, #0x4
  971784:	d360fc21 	lsr	x1, x1, #32
  971788:	b8236881 	str	w1, [x4, x3]
  97178c:	b8236802 	str	w2, [x0, x3]
  971790:	d65f03c0 	ret

0000000000971794 <console_is_registered>:
  971794:	d0000061 	adrp	x1, 97f000 <psci_ns_context+0x600>
  971798:	f9468021 	ldr	x1, [x1, #3328]
  97179c:	b5000061 	cbnz	x1, 9717a8 <console_is_registered+0x14>
  9717a0:	52800000 	mov	w0, #0x0                   	// #0
  9717a4:	d65f03c0 	ret
  9717a8:	eb00003f 	cmp	x1, x0
  9717ac:	54000060 	b.eq	9717b8 <console_is_registered+0x24>  // b.none
  9717b0:	f9400021 	ldr	x1, [x1]
  9717b4:	17fffffa 	b	97179c <console_is_registered+0x8>
  9717b8:	52800020 	mov	w0, #0x1                   	// #1
  9717bc:	17fffffa 	b	9717a4 <console_is_registered+0x10>

00000000009717c0 <console_register>:
  9717c0:	a9bf7bfd 	stp	x29, x30, [sp, #-16]!
  9717c4:	aa0003e2 	mov	x2, x0
  9717c8:	910003fd 	mov	x29, sp
  9717cc:	97fffff2 	bl	971794 <console_is_registered>
  9717d0:	7100041f 	cmp	w0, #0x1
  9717d4:	540000a0 	b.eq	9717e8 <console_register+0x28>  // b.none
  9717d8:	d0000060 	adrp	x0, 97f000 <psci_ns_context+0x600>
  9717dc:	f9468001 	ldr	x1, [x0, #3328]
  9717e0:	f9000041 	str	x1, [x2]
  9717e4:	f9068002 	str	x2, [x0, #3328]
  9717e8:	52800020 	mov	w0, #0x1                   	// #1
  9717ec:	a8c17bfd 	ldp	x29, x30, [sp], #16
  9717f0:	d65f03c0 	ret

00000000009717f4 <console_switch_state>:
  9717f4:	d0000041 	adrp	x1, 97b000 <__RO_END__>
  9717f8:	390ab020 	strb	w0, [x1, #684]
  9717fc:	d65f03c0 	ret

0000000000971800 <console_set_scope>:
  971800:	f9400402 	ldr	x2, [x0, #8]
  971804:	2a0103e1 	mov	w1, w1
  971808:	92785c42 	and	x2, x2, #0xffffff00
  97180c:	aa010042 	orr	x2, x2, x1
  971810:	f9000402 	str	x2, [x0, #8]
  971814:	d65f03c0 	ret

0000000000971818 <console_putc>:
  971818:	a9bd7bfd 	stp	x29, x30, [sp, #-48]!
  97181c:	910003fd 	mov	x29, sp
  971820:	a9025bf5 	stp	x21, x22, [sp, #32]
  971824:	2a0003f5 	mov	w21, w0
  971828:	d0000060 	adrp	x0, 97f000 <psci_ns_context+0x600>
  97182c:	a90153f3 	stp	x19, x20, [sp, #16]
  971830:	d0000056 	adrp	x22, 97b000 <__RO_END__>
  971834:	910ab2d6 	add	x22, x22, #0x2ac
  971838:	f9468013 	ldr	x19, [x0, #3328]
  97183c:	12800ff4 	mov	w20, #0xffffff80            	// #-128
  971840:	b50000d3 	cbnz	x19, 971858 <console_putc+0x40>
  971844:	2a1403e0 	mov	w0, w20
  971848:	a94153f3 	ldp	x19, x20, [sp, #16]
  97184c:	a9425bf5 	ldp	x21, x22, [sp, #32]
  971850:	a8c37bfd 	ldp	x29, x30, [sp], #48
  971854:	d65f03c0 	ret
  971858:	f9400660 	ldr	x0, [x19, #8]
  97185c:	394002c1 	ldrb	w1, [x22]
  971860:	ea00003f 	tst	x1, x0
  971864:	54000180 	b.eq	971894 <console_putc+0x7c>  // b.none
  971868:	f9400a62 	ldr	x2, [x19, #16]
  97186c:	b4000142 	cbz	x2, 971894 <console_putc+0x7c>
  971870:	71002abf 	cmp	w21, #0xa
  971874:	54000140 	b.eq	97189c <console_putc+0x84>  // b.none
  971878:	f9400a62 	ldr	x2, [x19, #16]
  97187c:	aa1303e1 	mov	x1, x19
  971880:	2a1503e0 	mov	w0, w21
  971884:	d63f0040 	blr	x2
  971888:	3102029f 	cmn	w20, #0x80
  97188c:	7a401280 	ccmp	w20, w0, #0x0, ne  // ne = any
  971890:	1a80d294 	csel	w20, w20, w0, le
  971894:	f9400273 	ldr	x19, [x19]
  971898:	17ffffea 	b	971840 <console_putc+0x28>
  97189c:	3647fee0 	tbz	w0, #8, 971878 <console_putc+0x60>
  9718a0:	aa1303e1 	mov	x1, x19
  9718a4:	528001a0 	mov	w0, #0xd                   	// #13
  9718a8:	d63f0040 	blr	x2
  9718ac:	36fffe60 	tbz	w0, #31, 971878 <console_putc+0x60>
  9718b0:	17fffff6 	b	971888 <console_putc+0x70>

00000000009718b4 <putchar>:
  9718b4:	a9be7bfd 	stp	x29, x30, [sp, #-32]!
  9718b8:	910003fd 	mov	x29, sp
  9718bc:	f9000bf3 	str	x19, [sp, #16]
  9718c0:	2a0003f3 	mov	w19, w0
  9718c4:	97ffffd5 	bl	971818 <console_putc>
  9718c8:	7100001f 	cmp	w0, #0x0
  9718cc:	5a9f0260 	csinv	w0, w19, wzr, eq  // eq = none
  9718d0:	f9400bf3 	ldr	x19, [sp, #16]
  9718d4:	a8c27bfd 	ldp	x29, x30, [sp], #32
  9718d8:	d65f03c0 	ret

00000000009718dc <console_flush>:
  9718dc:	a9be7bfd 	stp	x29, x30, [sp, #-32]!
  9718e0:	d0000060 	adrp	x0, 97f000 <psci_ns_context+0x600>
  9718e4:	910003fd 	mov	x29, sp
  9718e8:	a90153f3 	stp	x19, x20, [sp, #16]
  9718ec:	d0000054 	adrp	x20, 97b000 <__RO_END__>
  9718f0:	910ab294 	add	x20, x20, #0x2ac
  9718f4:	f9468013 	ldr	x19, [x0, #3328]
  9718f8:	b5000093 	cbnz	x19, 971908 <console_flush+0x2c>
  9718fc:	a94153f3 	ldp	x19, x20, [sp, #16]
  971900:	a8c27bfd 	ldp	x29, x30, [sp], #32
  971904:	d65f03c0 	ret
  971908:	f9400660 	ldr	x0, [x19, #8]
  97190c:	39400281 	ldrb	w1, [x20]
  971910:	ea00003f 	tst	x1, x0
  971914:	540000a0 	b.eq	971928 <console_flush+0x4c>  // b.none
  971918:	f9400e61 	ldr	x1, [x19, #24]
  97191c:	b4000061 	cbz	x1, 971928 <console_flush+0x4c>
  971920:	aa1303e0 	mov	x0, x19
  971924:	d63f0020 	blr	x1
  971928:	f9400273 	ldr	x19, [x19]
  97192c:	17fffff3 	b	9718f8 <console_flush+0x1c>

0000000000971930 <udelay>:
  971930:	a9bd7bfd 	stp	x29, x30, [sp, #-48]!
  971934:	910003fd 	mov	x29, sp
  971938:	f90013f5 	str	x21, [sp, #32]
  97193c:	d0000075 	adrp	x21, 97f000 <psci_ns_context+0x600>
  971940:	a90153f3 	stp	x19, x20, [sp, #16]
  971944:	2a0003f3 	mov	w19, w0
  971948:	f94686a0 	ldr	x0, [x21, #3336]
  97194c:	f9400000 	ldr	x0, [x0]
  971950:	d63f0000 	blr	x0
  971954:	2a0003f4 	mov	w20, w0
  971958:	f94686a1 	ldr	x1, [x21, #3336]
  97195c:	29410420 	ldp	w0, w1, [x1, #8]
  971960:	d1000402 	sub	x2, x0, #0x1
  971964:	9ba10a73 	umaddl	x19, w19, w1, x2
  971968:	9ac00a73 	udiv	x19, x19, x0
  97196c:	91000673 	add	x19, x19, #0x1
  971970:	f94686a0 	ldr	x0, [x21, #3336]
  971974:	f9400000 	ldr	x0, [x0]
  971978:	d63f0000 	blr	x0
  97197c:	4b000281 	sub	w1, w20, w0
  971980:	eb13003f 	cmp	x1, x19
  971984:	54ffff63 	b.cc	971970 <udelay+0x40>  // b.lo, b.ul, b.last
  971988:	a94153f3 	ldp	x19, x20, [sp, #16]
  97198c:	f94013f5 	ldr	x21, [sp, #32]
  971990:	a8c37bfd 	ldp	x29, x30, [sp], #48
  971994:	d65f03c0 	ret

0000000000971998 <timer_init>:
  971998:	d0000061 	adrp	x1, 97f000 <psci_ns_context+0x600>
  97199c:	f9068420 	str	x0, [x1, #3336]
  9719a0:	d65f03c0 	ret

00000000009719a4 <get_timer_value>:
  9719a4:	d53be020 	mrs	x0, cntpct_el0
  9719a8:	2a2003e0 	mvn	w0, w0
  9719ac:	d65f03c0 	ret

00000000009719b0 <generic_delay_timer_init_args>:
  9719b0:	2a0003e4 	mov	w4, w0
  9719b4:	d0000063 	adrp	x3, 97f000 <psci_ns_context+0x600>
  9719b8:	91344060 	add	x0, x3, #0xd10
  9719bc:	90000002 	adrp	x2, 971000 <gicv3_cpuif_enable+0x28>
  9719c0:	91269042 	add	x2, x2, #0x9a4
  9719c4:	f9068862 	str	x2, [x3, #3344]
  9719c8:	29010404 	stp	w4, w1, [x0, #8]
  9719cc:	17fffff3 	b	971998 <timer_init>

00000000009719d0 <generic_delay_timer_init>:
  9719d0:	a9bf7bfd 	stp	x29, x30, [sp, #-16]!
  9719d4:	910003fd 	mov	x29, sp
  9719d8:	940015f1 	bl	97719c <plat_get_syscnt_freq2>
  9719dc:	2a0003e1 	mov	w1, w0
  9719e0:	52884800 	mov	w0, #0x4240                	// #16960
  9719e4:	528000c3 	mov	w3, #0x6                   	// #6
  9719e8:	72a001e0 	movk	w0, #0xf, lsl #16
  9719ec:	52800142 	mov	w2, #0xa                   	// #10
  9719f0:	1ac20824 	udiv	w4, w1, w2
  9719f4:	1b028485 	msub	w5, w4, w2, w1
  9719f8:	350000a5 	cbnz	w5, 971a0c <generic_delay_timer_init+0x3c>
  9719fc:	1ac20800 	udiv	w0, w0, w2
  971a00:	2a0403e1 	mov	w1, w4
  971a04:	71000463 	subs	w3, w3, #0x1
  971a08:	54ffff41 	b.ne	9719f0 <generic_delay_timer_init+0x20>  // b.any
  971a0c:	a8c17bfd 	ldp	x29, x30, [sp], #16
  971a10:	17ffffe8 	b	9719b0 <generic_delay_timer_init_args>

0000000000971a14 <print_errata_status>:
  971a14:	d65f03c0 	ret

0000000000971a18 <read_feat_mpam_version>:
  971a18:	d5380401 	mrs	x1, id_aa64pfr0_el1
  971a1c:	d368fc21 	lsr	x1, x1, #40
  971a20:	d5380420 	mrs	x0, id_aa64pfr1_el1
  971a24:	531c0c21 	ubfiz	w1, w1, #4, #4
  971a28:	53104c00 	ubfx	w0, w0, #16, #4
  971a2c:	2a000020 	orr	w0, w1, w0
  971a30:	d65f03c0 	ret

0000000000971a34 <cm_init>:
  971a34:	d65f03c0 	ret

0000000000971a38 <cm_setup_context>:
  971a38:	a9bd7bfd 	stp	x29, x30, [sp, #-48]!
  971a3c:	910003fd 	mov	x29, sp
  971a40:	a90153f3 	stp	x19, x20, [sp, #16]
  971a44:	aa0103f4 	mov	x20, x1
  971a48:	aa0003f3 	mov	x19, x0
  971a4c:	d2804801 	mov	x1, #0x240                 	// #576
  971a50:	a9025bf5 	stp	x21, x22, [sp, #32]
  971a54:	940019cc 	bl	978184 <zeromem>
  971a58:	b9401283 	ldr	w3, [x20, #16]
  971a5c:	d280c601 	mov	x1, #0x630                 	// #1584
  971a60:	d2804602 	mov	x2, #0x230                 	// #560
  971a64:	721c0060 	ands	w0, w3, #0x10
  971a68:	9a811042 	csel	x2, x2, x1, ne  // ne = any
  971a6c:	b9400681 	ldr	w1, [x20, #4]
  971a70:	36100041 	tbz	w1, #2, 971a78 <cm_setup_context+0x40>
  971a74:	b2750042 	orr	x2, x2, #0x800
  971a78:	35000080 	cbnz	w0, 971a88 <cm_setup_context+0x50>
  971a7c:	d3420c60 	ubfx	x0, x3, #2, #2
  971a80:	7100081f 	cmp	w0, #0x2
  971a84:	540000a0 	b.eq	971a98 <cm_setup_context+0x60>  // b.none
  971a88:	f9400a80 	ldr	x0, [x20, #16]
  971a8c:	92401000 	and	x0, x0, #0x1f
  971a90:	f100681f 	cmp	x0, #0x1a
  971a94:	54000041 	b.ne	971a9c <cm_setup_context+0x64>  // b.any
  971a98:	b2780042 	orr	x2, x2, #0x100
  971a9c:	97ffffdf 	bl	971a18 <read_feat_mpam_version>
  971aa0:	2a0003f5 	mov	w21, w0
  971aa4:	34000060 	cbz	w0, 971ab0 <cm_setup_context+0x78>
  971aa8:	d2e80000 	mov	x0, #0x4000000000000000    	// #4611686018427387904
  971aac:	f9009e60 	str	x0, [x19, #312]
  971ab0:	2a0303e3 	mov	w3, w3
  971ab4:	aa1303e0 	mov	x0, x19
  971ab8:	f9400681 	ldr	x1, [x20, #8]
  971abc:	f9008262 	str	x2, [x19, #256]
  971ac0:	a9118663 	stp	x3, x1, [x19, #280]
  971ac4:	d2800802 	mov	x2, #0x40                  	// #64
  971ac8:	91006281 	add	x1, x20, #0x18
  971acc:	94001c32 	bl	978b94 <memcpy>
  971ad0:	b9400680 	ldr	w0, [x20, #4]
  971ad4:	52800421 	mov	w1, #0x21                  	// #33
  971ad8:	6a010000 	ands	w0, w0, w1
  971adc:	54000100 	b.eq	971afc <cm_setup_context+0xc4>  // b.none
  971ae0:	7100041f 	cmp	w0, #0x1
  971ae4:	54000420 	b.eq	971b68 <cm_setup_context+0x130>  // b.none
  971ae8:	90000040 	adrp	x0, 979000 <vprintf+0x2b4>
  971aec:	91295c00 	add	x0, x0, #0xa57
  971af0:	97fffade 	bl	970668 <tf_log>
  971af4:	97ffff7a 	bl	9718dc <console_flush>
  971af8:	94001921 	bl	977f7c <el3_panic>
  971afc:	f9408274 	ldr	x20, [x19, #256]
  971b00:	52800000 	mov	w0, #0x0                   	// #0
  971b04:	97fffa31 	bl	9703c8 <get_scr_el3_from_routing_model>
  971b08:	d5380421 	mrs	x1, id_aa64pfr1_el1
  971b0c:	53082c21 	ubfx	w1, w1, #8, #4
  971b10:	aa000280 	orr	x0, x20, x0
  971b14:	7100043f 	cmp	w1, #0x1
  971b18:	54000041 	b.ne	971b20 <cm_setup_context+0xe8>  // b.any
  971b1c:	b2660000 	orr	x0, x0, #0x4000000
  971b20:	f9008260 	str	x0, [x19, #256]
  971b24:	b0000093 	adrp	x19, 982000 <imx_gicv3_ctx+0x1e90>
  971b28:	396da260 	ldrb	w0, [x19, #2920]
  971b2c:	35000160 	cbnz	w0, 971b58 <cm_setup_context+0x120>
  971b30:	d0000061 	adrp	x1, 97f000 <psci_ns_context+0x600>
  971b34:	d2a80202 	mov	x2, #0x40100000            	// #1074790400
  971b38:	91348020 	add	x0, x1, #0xd20
  971b3c:	f9069022 	str	x2, [x1, #3360]
  971b40:	d5380401 	mrs	x1, id_aa64pfr0_el1
  971b44:	f2600c3f 	tst	x1, #0xf00000000
  971b48:	54000040 	b.eq	971b50 <cm_setup_context+0x118>  // b.none
  971b4c:	940000ed 	bl	971f00 <sve_disable_per_world>
  971b50:	52800020 	mov	w0, #0x1                   	// #1
  971b54:	392da260 	strb	w0, [x19, #2920]
  971b58:	a94153f3 	ldp	x19, x20, [sp, #16]
  971b5c:	a9425bf5 	ldp	x21, x22, [sp, #32]
  971b60:	a8c37bfd 	ldp	x29, x30, [sp], #48
  971b64:	d65f03c0 	ret
  971b68:	f9408276 	ldr	x22, [x19, #256]
  971b6c:	97fffa17 	bl	9703c8 <get_scr_el3_from_routing_model>
  971b70:	b9400682 	ldr	w2, [x20, #4]
  971b74:	d2810703 	mov	x3, #0x838                 	// #2104
  971b78:	b9401281 	ldr	w1, [x20, #16]
  971b7c:	aa0002d6 	orr	x22, x22, x0
  971b80:	d2800020 	mov	x0, #0x1                   	// #1
  971b84:	f2a018a3 	movk	x3, #0xc5, lsl #16
  971b88:	f2a08060 	movk	x0, #0x403, lsl #16
  971b8c:	d3689c42 	lsl	x2, x2, #24
  971b90:	aa0002d6 	orr	x22, x22, x0
  971b94:	92670042 	and	x2, x2, #0x2000000
  971b98:	d2810000 	mov	x0, #0x800                 	// #2048
  971b9c:	f27c003f 	tst	x1, #0x10
  971ba0:	f2a61a00 	movk	x0, #0x30d0, lsl #16
  971ba4:	aa000040 	orr	x0, x2, x0
  971ba8:	aa030042 	orr	x2, x2, x3
  971bac:	f9008276 	str	x22, [x19, #256]
  971bb0:	9a801042 	csel	x2, x2, x0, ne  // ne = any
  971bb4:	f900b262 	str	x2, [x19, #352]
  971bb8:	d5381020 	mrs	x0, actlr_el1
  971bbc:	f900da60 	str	x0, [x19, #432]
  971bc0:	34000075 	cbz	w21, 971bcc <cm_setup_context+0x194>
  971bc4:	aa1303e0 	mov	x0, x19
  971bc8:	940000a0 	bl	971e48 <mpam_enable>
  971bcc:	aa1303e0 	mov	x0, x19
  971bd0:	a94153f3 	ldp	x19, x20, [sp, #16]
  971bd4:	a9425bf5 	ldp	x21, x22, [sp, #32]
  971bd8:	a8c37bfd 	ldp	x29, x30, [sp], #48
  971bdc:	140000a0 	b	971e5c <pmuv3_enable>

0000000000971be0 <cm_manage_extensions_el3>:
  971be0:	d5380500 	mrs	x0, id_aa64dfr0_el1
  971be4:	f2600c1f 	tst	x0, #0xf00000000
  971be8:	540000a0 	b.eq	971bfc <cm_manage_extensions_el3+0x1c>  // b.none
  971bec:	a9bf7bfd 	stp	x29, x30, [sp, #-16]!
  971bf0:	910003fd 	mov	x29, sp
  971bf4:	940000b4 	bl	971ec4 <spe_init_el3>
  971bf8:	a8c17bfd 	ldp	x29, x30, [sp], #16
  971bfc:	14000099 	b	971e60 <pmuv3_init_el3>

0000000000971c00 <manage_extensions_nonsecure_per_world>:
  971c00:	d0000060 	adrp	x0, 97f000 <psci_ns_context+0x600>
  971c04:	91348000 	add	x0, x0, #0xd20
  971c08:	d2a80201 	mov	x1, #0x40100000            	// #1074790400
  971c0c:	f9000801 	str	x1, [x0, #16]
  971c10:	d5380401 	mrs	x1, id_aa64pfr0_el1
  971c14:	f2600c3f 	tst	x1, #0xf00000000
  971c18:	54000060 	b.eq	971c24 <manage_extensions_nonsecure_per_world+0x24>  // b.none
  971c1c:	91004000 	add	x0, x0, #0x10
  971c20:	140000b0 	b	971ee0 <sve_enable_per_world>
  971c24:	d65f03c0 	ret

0000000000971c28 <cm_init_context_by_index>:
  971c28:	a9be7bfd 	stp	x29, x30, [sp, #-32]!
  971c2c:	910003fd 	mov	x29, sp
  971c30:	f9000bf3 	str	x19, [sp, #16]
  971c34:	aa0103f3 	mov	x19, x1
  971c38:	52800421 	mov	w1, #0x21                  	// #33
  971c3c:	b9400662 	ldr	w2, [x19, #4]
  971c40:	0a010041 	and	w1, w2, w1
  971c44:	97fff963 	bl	9701d0 <cm_get_context_by_index>
  971c48:	aa1303e1 	mov	x1, x19
  971c4c:	f9400bf3 	ldr	x19, [sp, #16]
  971c50:	a8c27bfd 	ldp	x29, x30, [sp], #32
  971c54:	17ffff79 	b	971a38 <cm_setup_context>

0000000000971c58 <cm_init_my_context>:
  971c58:	a9be7bfd 	stp	x29, x30, [sp, #-32]!
  971c5c:	910003fd 	mov	x29, sp
  971c60:	f9000bf3 	str	x19, [sp, #16]
  971c64:	aa0003f3 	mov	x19, x0
  971c68:	52800420 	mov	w0, #0x21                  	// #33
  971c6c:	b9400661 	ldr	w1, [x19, #4]
  971c70:	0a000020 	and	w0, w1, w0
  971c74:	97fff94d 	bl	9701a8 <cm_get_context>
  971c78:	aa1303e1 	mov	x1, x19
  971c7c:	f9400bf3 	ldr	x19, [sp, #16]
  971c80:	a8c27bfd 	ldp	x29, x30, [sp], #32
  971c84:	17ffff6d 	b	971a38 <cm_setup_context>

0000000000971c88 <cm_el1_sysregs_context_save>:
  971c88:	a9be7bfd 	stp	x29, x30, [sp, #-32]!
  971c8c:	910003fd 	mov	x29, sp
  971c90:	a90153f3 	stp	x19, x20, [sp, #16]
  971c94:	2a0003f3 	mov	w19, w0
  971c98:	97fff944 	bl	9701a8 <cm_get_context>
  971c9c:	91054000 	add	x0, x0, #0x150
  971ca0:	94001a3a 	bl	978588 <el1_sysregs_context_save>
  971ca4:	90000040 	adrp	x0, 979000 <vprintf+0x2b4>
  971ca8:	34000233 	cbz	w19, 971cec <cm_el1_sysregs_context_save+0x64>
  971cac:	f9469c13 	ldr	x19, [x0, #3384]
  971cb0:	f946d014 	ldr	x20, [x0, #3488]
  971cb4:	eb14027f 	cmp	x19, x20
  971cb8:	54000142 	b.cs	971ce0 <cm_el1_sysregs_context_save+0x58>  // b.hs, b.nlast
  971cbc:	f8408661 	ldr	x1, [x19], #8
  971cc0:	d2800000 	mov	x0, #0x0                   	// #0
  971cc4:	d63f0020 	blr	x1
  971cc8:	17fffffb 	b	971cb4 <cm_el1_sysregs_context_save+0x2c>
  971ccc:	f8408661 	ldr	x1, [x19], #8
  971cd0:	d2800000 	mov	x0, #0x0                   	// #0
  971cd4:	d63f0020 	blr	x1
  971cd8:	eb14027f 	cmp	x19, x20
  971cdc:	54ffff83 	b.cc	971ccc <cm_el1_sysregs_context_save+0x44>  // b.lo, b.ul, b.last
  971ce0:	a94153f3 	ldp	x19, x20, [sp, #16]
  971ce4:	a8c27bfd 	ldp	x29, x30, [sp], #32
  971ce8:	d65f03c0 	ret
  971cec:	f946a813 	ldr	x19, [x0, #3408]
  971cf0:	f9469014 	ldr	x20, [x0, #3360]
  971cf4:	17fffff9 	b	971cd8 <cm_el1_sysregs_context_save+0x50>

0000000000971cf8 <cm_el1_sysregs_context_restore>:
  971cf8:	a9be7bfd 	stp	x29, x30, [sp, #-32]!
  971cfc:	910003fd 	mov	x29, sp
  971d00:	a90153f3 	stp	x19, x20, [sp, #16]
  971d04:	2a0003f3 	mov	w19, w0
  971d08:	97fff928 	bl	9701a8 <cm_get_context>
  971d0c:	91054000 	add	x0, x0, #0x150
  971d10:	94001a49 	bl	978634 <el1_sysregs_context_restore>
  971d14:	90000040 	adrp	x0, 979000 <vprintf+0x2b4>
  971d18:	34000233 	cbz	w19, 971d5c <cm_el1_sysregs_context_restore+0x64>
  971d1c:	f946e013 	ldr	x19, [x0, #3520]
  971d20:	f946b014 	ldr	x20, [x0, #3424]
  971d24:	eb14027f 	cmp	x19, x20
  971d28:	54000142 	b.cs	971d50 <cm_el1_sysregs_context_restore+0x58>  // b.hs, b.nlast
  971d2c:	f8408661 	ldr	x1, [x19], #8
  971d30:	d2800000 	mov	x0, #0x0                   	// #0
  971d34:	d63f0020 	blr	x1
  971d38:	17fffffb 	b	971d24 <cm_el1_sysregs_context_restore+0x2c>
  971d3c:	f8408661 	ldr	x1, [x19], #8
  971d40:	d2800000 	mov	x0, #0x0                   	// #0
  971d44:	d63f0020 	blr	x1
  971d48:	eb14027f 	cmp	x19, x20
  971d4c:	54ffff83 	b.cc	971d3c <cm_el1_sysregs_context_restore+0x44>  // b.lo, b.ul, b.last
  971d50:	a94153f3 	ldp	x19, x20, [sp, #16]
  971d54:	a8c27bfd 	ldp	x29, x30, [sp], #32
  971d58:	d65f03c0 	ret
  971d5c:	f946c413 	ldr	x19, [x0, #3464]
  971d60:	f946bc14 	ldr	x20, [x0, #3448]
  971d64:	17fffff9 	b	971d48 <cm_el1_sysregs_context_restore+0x50>

0000000000971d68 <cm_set_elr_el3>:
  971d68:	a9be7bfd 	stp	x29, x30, [sp, #-32]!
  971d6c:	910003fd 	mov	x29, sp
  971d70:	f9000bf3 	str	x19, [sp, #16]
  971d74:	aa0103f3 	mov	x19, x1
  971d78:	97fff90c 	bl	9701a8 <cm_get_context>
  971d7c:	f9009013 	str	x19, [x0, #288]
  971d80:	f9400bf3 	ldr	x19, [sp, #16]
  971d84:	a8c27bfd 	ldp	x29, x30, [sp], #32
  971d88:	d65f03c0 	ret

0000000000971d8c <cm_write_scr_el3_bit>:
  971d8c:	a9be7bfd 	stp	x29, x30, [sp, #-32]!
  971d90:	910003fd 	mov	x29, sp
  971d94:	a90153f3 	stp	x19, x20, [sp, #16]
  971d98:	2a0103f4 	mov	w20, w1
  971d9c:	2a0203f3 	mov	w19, w2
  971da0:	97fff902 	bl	9701a8 <cm_get_context>
  971da4:	f9408001 	ldr	x1, [x0, #256]
  971da8:	d2800022 	mov	x2, #0x1                   	// #1
  971dac:	9ad42042 	lsl	x2, x2, x20
  971db0:	8a220022 	bic	x2, x1, x2
  971db4:	9ad42273 	lsl	x19, x19, x20
  971db8:	aa020273 	orr	x19, x19, x2
  971dbc:	f9008013 	str	x19, [x0, #256]
  971dc0:	a94153f3 	ldp	x19, x20, [sp, #16]
  971dc4:	a8c27bfd 	ldp	x29, x30, [sp], #32
  971dc8:	d65f03c0 	ret

0000000000971dcc <cm_set_next_eret_context>:
  971dcc:	a9bf7bfd 	stp	x29, x30, [sp, #-16]!
  971dd0:	910003fd 	mov	x29, sp
  971dd4:	97fff8f5 	bl	9701a8 <cm_get_context>
  971dd8:	d50041bf 	msr	spsel, #0x1
  971ddc:	9100001f 	mov	sp, x0
  971de0:	d50040bf 	msr	spsel, #0x0
  971de4:	a8c17bfd 	ldp	x29, x30, [sp], #16
  971de8:	d65f03c0 	ret

0000000000971dec <cm_prepare_el3_exit>:
  971dec:	a9be7bfd 	stp	x29, x30, [sp, #-32]!
  971df0:	910003fd 	mov	x29, sp
  971df4:	f9000bf3 	str	x19, [sp, #16]
  971df8:	2a0003f3 	mov	w19, w0
  971dfc:	97fff8eb 	bl	9701a8 <cm_get_context>
  971e00:	7100067f 	cmp	w19, #0x1
  971e04:	54000121 	b.ne	971e28 <cm_prepare_el3_exit+0x3c>  // b.any
  971e08:	f9408001 	ldr	x1, [x0, #256]
  971e0c:	364000e1 	tbz	w1, #8, 971e28 <cm_prepare_el3_exit+0x3c>
  971e10:	f940b000 	ldr	x0, [x0, #352]
  971e14:	d2810601 	mov	x1, #0x830                 	// #2096
  971e18:	f2a618a1 	movk	x1, #0x30c5, lsl #16
  971e1c:	92670000 	and	x0, x0, #0x2000000
  971e20:	aa010000 	orr	x0, x0, x1
  971e24:	d51c1000 	msr	sctlr_el2, x0
  971e28:	2a1303e0 	mov	w0, w19
  971e2c:	97ffffb3 	bl	971cf8 <cm_el1_sysregs_context_restore>
  971e30:	2a1303e0 	mov	w0, w19
  971e34:	f9400bf3 	ldr	x19, [sp, #16]
  971e38:	a8c27bfd 	ldp	x29, x30, [sp], #32
  971e3c:	17ffffe4 	b	971dcc <cm_set_next_eret_context>

0000000000971e40 <cm_prepare_el3_exit_ns>:
  971e40:	52800020 	mov	w0, #0x1                   	// #1
  971e44:	17ffffea 	b	971dec <cm_prepare_el3_exit>

0000000000971e48 <mpam_enable>:
  971e48:	f9409c01 	ldr	x1, [x0, #312]
  971e4c:	9240f421 	and	x1, x1, #0x3fffffffffffffff
  971e50:	b2410021 	orr	x1, x1, #0x8000000000000000
  971e54:	f9009c01 	str	x1, [x0, #312]
  971e58:	d65f03c0 	ret

0000000000971e5c <pmuv3_enable>:
  971e5c:	d65f03c0 	ret

0000000000971e60 <pmuv3_init_el3>:
  971e60:	d53e1320 	mrs	x0, mdcr_el3
  971e64:	92800801 	mov	x1, #0xffffffffffffffbf    	// #-65
  971e68:	f2bfefa1 	movk	x1, #0xff7d, lsl #16
  971e6c:	f2dffe61 	movk	x1, #0xfff3, lsl #32
  971e70:	8a010000 	and	x0, x0, x1
  971e74:	d2a01001 	mov	x1, #0x800000              	// #8388608
  971e78:	f2c00081 	movk	x1, #0x4, lsl #32
  971e7c:	aa010000 	orr	x0, x0, x1
  971e80:	d51e1320 	msr	mdcr_el3, x0
  971e84:	d53b9c00 	mrs	x0, pmcr_el0
  971e88:	927d7000 	and	x0, x0, #0xfffffff8
  971e8c:	d28004c1 	mov	x1, #0x26                  	// #38
  971e90:	927af400 	and	x0, x0, #0xffffffffffffffcf
  971e94:	aa010000 	orr	x0, x0, x1
  971e98:	d51b9c00 	msr	pmcr_el0, x0
  971e9c:	d65f03c0 	ret

0000000000971ea0 <spe_drain_buffers_hook>:
  971ea0:	d5380500 	mrs	x0, id_aa64dfr0_el1
  971ea4:	f2600c1f 	tst	x0, #0xf00000000
  971ea8:	540000a0 	b.eq	971ebc <spe_drain_buffers_hook+0x1c>  // b.none
  971eac:	d503223f 	psb	csync
  971eb0:	d503379f 	dsb	nsh
  971eb4:	d2800000 	mov	x0, #0x0                   	// #0
  971eb8:	d65f03c0 	ret
  971ebc:	92800000 	mov	x0, #0xffffffffffffffff    	// #-1
  971ec0:	17fffffe 	b	971eb8 <spe_drain_buffers_hook+0x18>

0000000000971ec4 <spe_init_el3>:
  971ec4:	d53e1320 	mrs	x0, mdcr_el3
  971ec8:	d2860001 	mov	x1, #0x3000                	// #12288
  971ecc:	9274f800 	and	x0, x0, #0xfffffffffffff7ff
  971ed0:	f2c00201 	movk	x1, #0x10, lsl #32
  971ed4:	aa010000 	orr	x0, x0, x1
  971ed8:	d51e1320 	msr	mdcr_el3, x0
  971edc:	d65f03c0 	ret

0000000000971ee0 <sve_enable_per_world>:
  971ee0:	f9400001 	ldr	x1, [x0]
  971ee4:	1280a002 	mov	w2, #0xfffffaff            	// #-1281
  971ee8:	8a020021 	and	x1, x1, x2
  971eec:	b2780021 	orr	x1, x1, #0x100
  971ef0:	f9000001 	str	x1, [x0]
  971ef4:	d28001e1 	mov	x1, #0xf                   	// #15
  971ef8:	f9000401 	str	x1, [x0, #8]
  971efc:	d65f03c0 	ret

0000000000971f00 <sve_disable_per_world>:
  971f00:	f9400001 	ldr	x1, [x0]
  971f04:	92407c21 	and	x1, x1, #0xffffffff
  971f08:	9277f821 	and	x1, x1, #0xfffffffffffffeff
  971f0c:	b2760021 	orr	x1, x1, #0x400
  971f10:	f9000001 	str	x1, [x0]
  971f14:	d65f03c0 	ret

0000000000971f18 <bakery_lock_get>:
  971f18:	a9be7bfd 	stp	x29, x30, [sp, #-32]!
  971f1c:	910003fd 	mov	x29, sp
  971f20:	f9000bf3 	str	x19, [sp, #16]
  971f24:	aa0003f3 	mov	x19, x0
  971f28:	94001aa8 	bl	9789c8 <plat_my_core_pos>
  971f2c:	d37f7c04 	ubfiz	x4, x0, #1, #32
  971f30:	52800021 	mov	w1, #0x1                   	// #1
  971f34:	52800002 	mov	w2, #0x0                   	// #0
  971f38:	78246a61 	strh	w1, [x19, x4]
  971f3c:	52800001 	mov	w1, #0x0                   	// #0
  971f40:	2a0203e3 	mov	w3, w2
  971f44:	11000442 	add	w2, w2, #0x1
  971f48:	78637a63 	ldrh	w3, [x19, x3, lsl #1]
  971f4c:	d3413c63 	ubfx	x3, x3, #1, #15
  971f50:	6b03003f 	cmp	w1, w3
  971f54:	1a832021 	csel	w1, w1, w3, cs  // cs = hs, nlast
  971f58:	7100105f 	cmp	w2, #0x4
  971f5c:	54ffff21 	b.ne	971f40 <bakery_lock_get+0x28>  // b.any
  971f60:	11000421 	add	w1, w1, #0x1
  971f64:	531f3822 	ubfiz	w2, w1, #1, #15
  971f68:	2a012001 	orr	w1, w0, w1, lsl #8
  971f6c:	78246a62 	strh	w2, [x19, x4]
  971f70:	52800002 	mov	w2, #0x0                   	// #0
  971f74:	6b02001f 	cmp	w0, w2
  971f78:	54000200 	b.eq	971fb8 <bakery_lock_get+0xa0>  // b.none
  971f7c:	d37f7c45 	ubfiz	x5, x2, #1, #32
  971f80:	78656a64 	ldrh	w4, [x19, x5]
  971f84:	8b050266 	add	x6, x19, x5
  971f88:	12003c83 	and	w3, w4, #0xffff
  971f8c:	3707ffa4 	tbnz	w4, #0, 971f80 <bakery_lock_get+0x68>
  971f90:	53017c63 	lsr	w3, w3, #1
  971f94:	34000123 	cbz	w3, 971fb8 <bakery_lock_get+0xa0>
  971f98:	2a032044 	orr	w4, w2, w3, lsl #8
  971f9c:	6b04003f 	cmp	w1, w4
  971fa0:	540000c9 	b.ls	971fb8 <bakery_lock_get+0xa0>  // b.plast
  971fa4:	d503205f 	wfe
  971fa8:	794000c4 	ldrh	w4, [x6]
  971fac:	d3413c84 	ubfx	x4, x4, #1, #15
  971fb0:	6b04007f 	cmp	w3, w4
  971fb4:	54ffff80 	b.eq	971fa4 <bakery_lock_get+0x8c>  // b.none
  971fb8:	11000442 	add	w2, w2, #0x1
  971fbc:	7100105f 	cmp	w2, #0x4
  971fc0:	54fffda1 	b.ne	971f74 <bakery_lock_get+0x5c>  // b.any
  971fc4:	d5033bbf 	dmb	ish
  971fc8:	f9400bf3 	ldr	x19, [sp, #16]
  971fcc:	a8c27bfd 	ldp	x29, x30, [sp], #32
  971fd0:	d65f03c0 	ret

0000000000971fd4 <bakery_lock_release>:
  971fd4:	a9be7bfd 	stp	x29, x30, [sp, #-32]!
  971fd8:	910003fd 	mov	x29, sp
  971fdc:	f9000bf3 	str	x19, [sp, #16]
  971fe0:	aa0003f3 	mov	x19, x0
  971fe4:	94001a79 	bl	9789c8 <plat_my_core_pos>
  971fe8:	d5033bbf 	dmb	ish
  971fec:	2a0003e1 	mov	w1, w0
  971ff0:	78217a7f 	strh	wzr, [x19, x1, lsl #1]
  971ff4:	d5033f9f 	dsb	sy
  971ff8:	d503209f 	sev
  971ffc:	f9400bf3 	ldr	x19, [sp, #16]
  972000:	a8c27bfd 	ldp	x29, x30, [sp], #32
  972004:	d65f03c0 	ret

0000000000972008 <psci_set_req_local_pwr_state>:
  972008:	51000400 	sub	w0, w0, #0x1
  97200c:	12001c42 	and	w2, w2, #0xff
  972010:	7100041f 	cmp	w0, #0x1
  972014:	54000128 	b.hi	972038 <psci_set_req_local_pwr_state+0x30>  // b.pmore
  972018:	90000083 	adrp	x3, 982000 <imx_gicv3_ctx+0x1e90>
  97201c:	b94ad063 	ldr	w3, [x3, #2768]
  972020:	6b01007f 	cmp	w3, w1
  972024:	540000a9 	b.ls	972038 <psci_set_req_local_pwr_state+0x30>  // b.plast
  972028:	90000083 	adrp	x3, 982000 <imx_gicv3_ctx+0x1e90>
  97202c:	912da463 	add	x3, x3, #0xb69
  972030:	8b204860 	add	x0, x3, w0, uxtw #2
  972034:	38214802 	strb	w2, [x0, w1, uxtw]
  972038:	d65f03c0 	ret

000000000097203c <psci_validate_power_state>:
  97203c:	52bf9fc2 	mov	w2, #0xfcfe0000            	// #-50462720
  972040:	6a02001f 	tst	w0, w2
  972044:	540000c1 	b.ne	97205c <psci_validate_power_state+0x20>  // b.any
  972048:	b0000062 	adrp	x2, 97f000 <psci_ns_context+0x600>
  97204c:	f946c042 	ldr	x2, [x2, #3456]
  972050:	f9403042 	ldr	x2, [x2, #96]
  972054:	aa0203f0 	mov	x16, x2
  972058:	d61f0200 	br	x16
  97205c:	12800020 	mov	w0, #0xfffffffe            	// #-2
  972060:	d65f03c0 	ret

0000000000972064 <psci_query_sys_suspend_pwrstate>:
  972064:	b0000061 	adrp	x1, 97f000 <psci_ns_context+0x600>
  972068:	f946c021 	ldr	x1, [x1, #3456]
  97206c:	f9403821 	ldr	x1, [x1, #112]
  972070:	aa0103f0 	mov	x16, x1
  972074:	d61f0200 	br	x16

0000000000972078 <psci_is_last_on_cpu>:
  972078:	a9bd7bfd 	stp	x29, x30, [sp, #-48]!
  97207c:	910003fd 	mov	x29, sp
  972080:	a90153f3 	stp	x19, x20, [sp, #16]
  972084:	90000094 	adrp	x20, 982000 <imx_gicv3_ctx+0x1e90>
  972088:	912b4294 	add	x20, x20, #0xad0
  97208c:	f90013f5 	str	x21, [sp, #32]
  972090:	94001a4e 	bl	9789c8 <plat_my_core_pos>
  972094:	2a0003f5 	mov	w21, w0
  972098:	52800013 	mov	w19, #0x0                   	// #0
  97209c:	b9400280 	ldr	w0, [x20]
  9720a0:	6b13001f 	cmp	w0, w19
  9720a4:	540000c8 	b.hi	9720bc <psci_is_last_on_cpu+0x44>  // b.pmore
  9720a8:	52800020 	mov	w0, #0x1                   	// #1
  9720ac:	a94153f3 	ldp	x19, x20, [sp, #16]
  9720b0:	f94013f5 	ldr	x21, [sp, #32]
  9720b4:	a8c37bfd 	ldp	x29, x30, [sp], #48
  9720b8:	d65f03c0 	ret
  9720bc:	6b15027f 	cmp	w19, w21
  9720c0:	54000061 	b.ne	9720cc <psci_is_last_on_cpu+0x54>  // b.any
  9720c4:	11000673 	add	w19, w19, #0x1
  9720c8:	17fffff5 	b	97209c <psci_is_last_on_cpu+0x24>
  9720cc:	2a1303e0 	mov	w0, w19
  9720d0:	940019e4 	bl	978860 <_cpu_data_by_index>
  9720d4:	b9401800 	ldr	w0, [x0, #24]
  9720d8:	7100041f 	cmp	w0, #0x1
  9720dc:	54ffff40 	b.eq	9720c4 <psci_is_last_on_cpu+0x4c>  // b.none
  9720e0:	52800000 	mov	w0, #0x0                   	// #0
  9720e4:	17fffff2 	b	9720ac <psci_is_last_on_cpu+0x34>

00000000009720e8 <psci_init_req_local_pwr_states>:
  9720e8:	90000080 	adrp	x0, 982000 <imx_gicv3_ctx+0x1e90>
  9720ec:	90000081 	adrp	x1, 982000 <imx_gicv3_ctx+0x1e90>
  9720f0:	912da421 	add	x1, x1, #0xb69
  9720f4:	52800083 	mov	w3, #0x4                   	// #4
  9720f8:	b94ad002 	ldr	w2, [x0, #2768]
  9720fc:	d2800000 	mov	x0, #0x0                   	// #0
  972100:	6b00005f 	cmp	w2, w0
  972104:	54000089 	b.ls	972114 <psci_init_req_local_pwr_states+0x2c>  // b.plast
  972108:	38216803 	strb	w3, [x0, x1]
  97210c:	91000400 	add	x0, x0, #0x1
  972110:	17fffffc 	b	972100 <psci_init_req_local_pwr_states+0x18>
  972114:	90000081 	adrp	x1, 982000 <imx_gicv3_ctx+0x1e90>
  972118:	912da421 	add	x1, x1, #0xb69
  97211c:	d2800000 	mov	x0, #0x0                   	// #0
  972120:	52800084 	mov	w4, #0x4                   	// #4
  972124:	6b00005f 	cmp	w2, w0
  972128:	540000a9 	b.ls	97213c <psci_init_req_local_pwr_states+0x54>  // b.plast
  97212c:	8b000023 	add	x3, x1, x0
  972130:	91000400 	add	x0, x0, #0x1
  972134:	39001064 	strb	w4, [x3, #4]
  972138:	17fffffb 	b	972124 <psci_init_req_local_pwr_states+0x3c>
  97213c:	d65f03c0 	ret

0000000000972140 <psci_get_target_local_pwr_states>:
  972140:	a9be7bfd 	stp	x29, x30, [sp, #-32]!
  972144:	910003fd 	mov	x29, sp
  972148:	a90153f3 	stp	x19, x20, [sp, #16]
  97214c:	2a0003f4 	mov	w20, w0
  972150:	aa0103f3 	mov	x19, x1
  972154:	d53ed040 	mrs	x0, tpidr_el3
  972158:	39408000 	ldrb	w0, [x0, #32]
  97215c:	39000020 	strb	w0, [x1]
  972160:	94001a1a 	bl	9789c8 <plat_my_core_pos>
  972164:	d37c7c00 	ubfiz	x0, x0, #4, #32
  972168:	b0000061 	adrp	x1, 97f000 <psci_ns_context+0x600>
  97216c:	91350021 	add	x1, x1, #0xd40
  972170:	8b000021 	add	x1, x1, x0
  972174:	b00000c0 	adrp	x0, 98b000 <psci_locks>
  972178:	9100a000 	add	x0, x0, #0x28
  97217c:	b9400822 	ldr	w2, [x1, #8]
  972180:	52800021 	mov	w1, #0x1                   	// #1
  972184:	6b14003f 	cmp	w1, w20
  972188:	2a0103e3 	mov	w3, w1
  97218c:	540000e9 	b.ls	9721a8 <psci_get_target_local_pwr_states+0x68>  // b.plast
  972190:	8b030273 	add	x19, x19, x3
  972194:	7100083f 	cmp	w1, #0x2
  972198:	54000169 	b.ls	9721c4 <psci_get_target_local_pwr_states+0x84>  // b.plast
  97219c:	a94153f3 	ldp	x19, x20, [sp, #16]
  9721a0:	a8c27bfd 	ldp	x29, x30, [sp], #32
  9721a4:	d65f03c0 	ret
  9721a8:	d37c7c42 	ubfiz	x2, x2, #4, #32
  9721ac:	11000421 	add	w1, w1, #0x1
  9721b0:	8b020002 	add	x2, x0, x2
  9721b4:	39403044 	ldrb	w4, [x2, #12]
  9721b8:	38236a64 	strb	w4, [x19, x3]
  9721bc:	b9400842 	ldr	w2, [x2, #8]
  9721c0:	17fffff1 	b	972184 <psci_get_target_local_pwr_states+0x44>
  9721c4:	11000421 	add	w1, w1, #0x1
  9721c8:	3800167f 	strb	wzr, [x19], #1
  9721cc:	17fffff2 	b	972194 <psci_get_target_local_pwr_states+0x54>

00000000009721d0 <psci_set_target_local_pwr_states>:
  9721d0:	a9be7bfd 	stp	x29, x30, [sp, #-32]!
  9721d4:	910003fd 	mov	x29, sp
  9721d8:	a90153f3 	stp	x19, x20, [sp, #16]
  9721dc:	aa0103f3 	mov	x19, x1
  9721e0:	2a0003f4 	mov	w20, w0
  9721e4:	39400021 	ldrb	w1, [x1]
  9721e8:	d53ed040 	mrs	x0, tpidr_el3
  9721ec:	39008001 	strb	w1, [x0, #32]
  9721f0:	d53ed040 	mrs	x0, tpidr_el3
  9721f4:	91008000 	add	x0, x0, #0x20
  9721f8:	d2800021 	mov	x1, #0x1                   	// #1
  9721fc:	9400176c 	bl	977fac <flush_dcache_range>
  972200:	940019f2 	bl	9789c8 <plat_my_core_pos>
  972204:	d37c7c00 	ubfiz	x0, x0, #4, #32
  972208:	b0000062 	adrp	x2, 97f000 <psci_ns_context+0x600>
  97220c:	91350042 	add	x2, x2, #0xd40
  972210:	8b000042 	add	x2, x2, x0
  972214:	b00000c0 	adrp	x0, 98b000 <psci_locks>
  972218:	9100a000 	add	x0, x0, #0x28
  97221c:	52800023 	mov	w3, #0x1                   	// #1
  972220:	b9400842 	ldr	w2, [x2, #8]
  972224:	6b14007f 	cmp	w3, w20
  972228:	54000089 	b.ls	972238 <psci_set_target_local_pwr_states+0x68>  // b.plast
  97222c:	a94153f3 	ldp	x19, x20, [sp, #16]
  972230:	a8c27bfd 	ldp	x29, x30, [sp], #32
  972234:	d65f03c0 	ret
  972238:	d37c7c42 	ubfiz	x2, x2, #4, #32
  97223c:	38634a61 	ldrb	w1, [x19, w3, uxtw]
  972240:	8b020002 	add	x2, x0, x2
  972244:	11000463 	add	w3, w3, #0x1
  972248:	39003041 	strb	w1, [x2, #12]
  97224c:	b9400842 	ldr	w2, [x2, #8]
  972250:	17fffff5 	b	972224 <psci_set_target_local_pwr_states+0x54>

0000000000972254 <psci_get_parent_pwr_domain_nodes>:
  972254:	d37c7c03 	ubfiz	x3, x0, #4, #32
  972258:	b0000060 	adrp	x0, 97f000 <psci_ns_context+0x600>
  97225c:	91350000 	add	x0, x0, #0xd40
  972260:	b00000c4 	adrp	x4, 98b000 <psci_locks>
  972264:	8b030000 	add	x0, x0, x3
  972268:	d1001042 	sub	x2, x2, #0x4
  97226c:	9100a084 	add	x4, x4, #0x28
  972270:	d2800003 	mov	x3, #0x0                   	// #0
  972274:	b9400800 	ldr	w0, [x0, #8]
  972278:	91000463 	add	x3, x3, #0x1
  97227c:	6b03003f 	cmp	w1, w3
  972280:	54000042 	b.cs	972288 <psci_get_parent_pwr_domain_nodes+0x34>  // b.hs, b.nlast
  972284:	d65f03c0 	ret
  972288:	b8237840 	str	w0, [x2, x3, lsl #2]
  97228c:	d37c7c00 	ubfiz	x0, x0, #4, #32
  972290:	8b000080 	add	x0, x4, x0
  972294:	b9400800 	ldr	w0, [x0, #8]
  972298:	17fffff8 	b	972278 <psci_get_parent_pwr_domain_nodes+0x24>

000000000097229c <psci_set_pwr_domains_to_run>:
  97229c:	a9be7bfd 	stp	x29, x30, [sp, #-32]!
  9722a0:	910003fd 	mov	x29, sp
  9722a4:	f9000bf3 	str	x19, [sp, #16]
  9722a8:	2a0003f3 	mov	w19, w0
  9722ac:	940019c7 	bl	9789c8 <plat_my_core_pos>
  9722b0:	2a0003e1 	mov	w1, w0
  9722b4:	b0000062 	adrp	x2, 97f000 <psci_ns_context+0x600>
  9722b8:	91350042 	add	x2, x2, #0xd40
  9722bc:	d37c7c20 	ubfiz	x0, x1, #4, #32
  9722c0:	b00000c6 	adrp	x6, 98b000 <psci_locks>
  9722c4:	8b000042 	add	x2, x2, x0
  9722c8:	9100a0c6 	add	x6, x6, #0x28
  9722cc:	52800025 	mov	w5, #0x1                   	// #1
  9722d0:	b9400844 	ldr	w4, [x2, #8]
  9722d4:	6b1300bf 	cmp	w5, w19
  9722d8:	54000169 	b.ls	972304 <psci_set_pwr_domains_to_run+0x68>  // b.plast
  9722dc:	d53ed040 	mrs	x0, tpidr_el3
  9722e0:	b900181f 	str	wzr, [x0, #24]
  9722e4:	d53ed040 	mrs	x0, tpidr_el3
  9722e8:	3900801f 	strb	wzr, [x0, #32]
  9722ec:	d53ed040 	mrs	x0, tpidr_el3
  9722f0:	f9400bf3 	ldr	x19, [sp, #16]
  9722f4:	91006000 	add	x0, x0, #0x18
  9722f8:	a8c27bfd 	ldp	x29, x30, [sp], #32
  9722fc:	d2800181 	mov	x1, #0xc                   	// #12
  972300:	1400172b 	b	977fac <flush_dcache_range>
  972304:	d37c7c84 	ubfiz	x4, x4, #4, #32
  972308:	2a0503e0 	mov	w0, w5
  97230c:	8b0400c4 	add	x4, x6, x4
  972310:	52800002 	mov	w2, #0x0                   	// #0
  972314:	110004a5 	add	w5, w5, #0x1
  972318:	3900309f 	strb	wzr, [x4, #12]
  97231c:	97ffff3b 	bl	972008 <psci_set_req_local_pwr_state>
  972320:	b9400884 	ldr	w4, [x4, #8]
  972324:	17ffffec 	b	9722d4 <psci_set_pwr_domains_to_run+0x38>

0000000000972328 <psci_do_state_coordination>:
  972328:	a9ba7bfd 	stp	x29, x30, [sp, #-96]!
  97232c:	910003fd 	mov	x29, sp
  972330:	a90153f3 	stp	x19, x20, [sp, #16]
  972334:	aa0103f4 	mov	x20, x1
  972338:	a9025bf5 	stp	x21, x22, [sp, #32]
  97233c:	2a0003f6 	mov	w22, w0
  972340:	a90363f7 	stp	x23, x24, [sp, #48]
  972344:	b00000d8 	adrp	x24, 98b000 <psci_locks>
  972348:	90000097 	adrp	x23, 982000 <imx_gicv3_ctx+0x1e90>
  97234c:	a9046bf9 	stp	x25, x26, [sp, #64]
  972350:	912b42f7 	add	x23, x23, #0xad0
  972354:	9100a31a 	add	x26, x24, #0x28
  972358:	f9002bfb 	str	x27, [sp, #80]
  97235c:	9400199b 	bl	9789c8 <plat_my_core_pos>
  972360:	2a0003f5 	mov	w21, w0
  972364:	b0000060 	adrp	x0, 97f000 <psci_ns_context+0x600>
  972368:	91350000 	add	x0, x0, #0xd40
  97236c:	52800024 	mov	w4, #0x1                   	// #1
  972370:	d37c7ea1 	ubfiz	x1, x21, #4, #32
  972374:	8b010000 	add	x0, x0, x1
  972378:	b9400805 	ldr	w5, [x0, #8]
  97237c:	6b16009f 	cmp	w4, w22
  972380:	11000493 	add	w19, w4, #0x1
  972384:	54000149 	b.ls	9723ac <psci_do_state_coordination+0x84>  // b.plast
  972388:	6b16027f 	cmp	w19, w22
  97238c:	54000509 	b.ls	97242c <psci_do_state_coordination+0x104>  // b.plast
  972390:	a94153f3 	ldp	x19, x20, [sp, #16]
  972394:	a9425bf5 	ldp	x21, x22, [sp, #32]
  972398:	a94363f7 	ldp	x23, x24, [sp, #48]
  97239c:	a9446bf9 	ldp	x25, x26, [sp, #64]
  9723a0:	f9402bfb 	ldr	x27, [sp, #80]
  9723a4:	a8c67bfd 	ldp	x29, x30, [sp], #96
  9723a8:	d65f03c0 	ret
  9723ac:	2a0403f9 	mov	w25, w4
  9723b0:	2a0403e0 	mov	w0, w4
  9723b4:	2a1503e1 	mov	w1, w21
  9723b8:	2a0503fb 	mov	w27, w5
  9723bc:	d37c7ca5 	ubfiz	x5, x5, #4, #32
  9723c0:	38796a82 	ldrb	w2, [x20, x25]
  9723c4:	97ffff11 	bl	972008 <psci_set_req_local_pwr_state>
  9723c8:	9100a300 	add	x0, x24, #0x28
  9723cc:	b8656803 	ldr	w3, [x0, x5]
  9723d0:	51000480 	sub	w0, w4, #0x1
  9723d4:	7100041f 	cmp	w0, #0x1
  9723d8:	54000268 	b.hi	972424 <psci_do_state_coordination+0xfc>  // b.pmore
  9723dc:	2a0303e1 	mov	w1, w3
  9723e0:	b94002e5 	ldr	w5, [x23]
  9723e4:	8b204820 	add	x0, x1, w0, uxtw #2
  9723e8:	90000081 	adrp	x1, 982000 <imx_gicv3_ctx+0x1e90>
  9723ec:	912da421 	add	x1, x1, #0xb69
  9723f0:	6b05007f 	cmp	w3, w5
  9723f4:	8b000022 	add	x2, x1, x0
  9723f8:	9a9f3041 	csel	x1, x2, xzr, cc  // cc = lo, ul, last
  9723fc:	8b1b135b 	add	x27, x26, x27, lsl #4
  972400:	2a0403e0 	mov	w0, w4
  972404:	b9400762 	ldr	w2, [x27, #4]
  972408:	94000780 	bl	974208 <plat_get_target_pwr_state>
  97240c:	38396a80 	strb	w0, [x20, x25]
  972410:	72001c1f 	tst	w0, #0xff
  972414:	54fffba0 	b.eq	972388 <psci_do_state_coordination+0x60>  // b.none
  972418:	b9400b65 	ldr	w5, [x27, #8]
  97241c:	2a1303e4 	mov	w4, w19
  972420:	17ffffd7 	b	97237c <psci_do_state_coordination+0x54>
  972424:	d2800001 	mov	x1, #0x0                   	// #0
  972428:	17fffff5 	b	9723fc <psci_do_state_coordination+0xd4>
  97242c:	2a1303e5 	mov	w5, w19
  972430:	2a1303e0 	mov	w0, w19
  972434:	2a1503e1 	mov	w1, w21
  972438:	11000673 	add	w19, w19, #0x1
  97243c:	38656a82 	ldrb	w2, [x20, x5]
  972440:	97fffef2 	bl	972008 <psci_set_req_local_pwr_state>
  972444:	38256a9f 	strb	wzr, [x20, x5]
  972448:	17ffffd0 	b	972388 <psci_do_state_coordination+0x60>

000000000097244c <psci_find_max_off_lvl>:
  97244c:	39400801 	ldrb	w1, [x0, #2]
  972450:	51000c21 	sub	w1, w1, #0x3
  972454:	7100043f 	cmp	w1, #0x1
  972458:	54000189 	b.ls	972488 <psci_find_max_off_lvl+0x3c>  // b.plast
  97245c:	39400401 	ldrb	w1, [x0, #1]
  972460:	51000c21 	sub	w1, w1, #0x3
  972464:	7100043f 	cmp	w1, #0x1
  972468:	54000149 	b.ls	972490 <psci_find_max_off_lvl+0x44>  // b.plast
  97246c:	39400001 	ldrb	w1, [x0]
  972470:	52800060 	mov	w0, #0x3                   	// #3
  972474:	51000c21 	sub	w1, w1, #0x3
  972478:	7100043f 	cmp	w1, #0x1
  97247c:	54000048 	b.hi	972484 <psci_find_max_off_lvl+0x38>  // b.pmore
  972480:	52800000 	mov	w0, #0x0                   	// #0
  972484:	d65f03c0 	ret
  972488:	52800040 	mov	w0, #0x2                   	// #2
  97248c:	17fffffe 	b	972484 <psci_find_max_off_lvl+0x38>
  972490:	52800020 	mov	w0, #0x1                   	// #1
  972494:	17fffffc 	b	972484 <psci_find_max_off_lvl+0x38>

0000000000972498 <psci_find_target_suspend_lvl>:
  972498:	39400801 	ldrb	w1, [x0, #2]
  97249c:	35000101 	cbnz	w1, 9724bc <psci_find_target_suspend_lvl+0x24>
  9724a0:	39400401 	ldrb	w1, [x0, #1]
  9724a4:	35000101 	cbnz	w1, 9724c4 <psci_find_target_suspend_lvl+0x2c>
  9724a8:	39400001 	ldrb	w1, [x0]
  9724ac:	52800060 	mov	w0, #0x3                   	// #3
  9724b0:	34000041 	cbz	w1, 9724b8 <psci_find_target_suspend_lvl+0x20>
  9724b4:	52800000 	mov	w0, #0x0                   	// #0
  9724b8:	d65f03c0 	ret
  9724bc:	52800040 	mov	w0, #0x2                   	// #2
  9724c0:	17fffffe 	b	9724b8 <psci_find_target_suspend_lvl+0x20>
  9724c4:	52800020 	mov	w0, #0x1                   	// #1
  9724c8:	17fffffc 	b	9724b8 <psci_find_target_suspend_lvl+0x20>

00000000009724cc <psci_acquire_pwr_domain_locks>:
  9724cc:	a9bc7bfd 	stp	x29, x30, [sp, #-64]!
  9724d0:	910003fd 	mov	x29, sp
  9724d4:	a90153f3 	stp	x19, x20, [sp, #16]
  9724d8:	2a0003f4 	mov	w20, w0
  9724dc:	52800033 	mov	w19, #0x1                   	// #1
  9724e0:	a9025bf5 	stp	x21, x22, [sp, #32]
  9724e4:	b00000d6 	adrp	x22, 98b000 <psci_locks>
  9724e8:	aa0103f5 	mov	x21, x1
  9724ec:	910002d6 	add	x22, x22, #0x0
  9724f0:	f9001bf7 	str	x23, [sp, #48]
  9724f4:	b00000d7 	adrp	x23, 98b000 <psci_locks>
  9724f8:	9100a2f7 	add	x23, x23, #0x28
  9724fc:	6b14027f 	cmp	w19, w20
  972500:	540000c9 	b.ls	972518 <psci_acquire_pwr_domain_locks+0x4c>  // b.plast
  972504:	a94153f3 	ldp	x19, x20, [sp, #16]
  972508:	a9425bf5 	ldp	x21, x22, [sp, #32]
  97250c:	f9401bf7 	ldr	x23, [sp, #48]
  972510:	a8c47bfd 	ldp	x29, x30, [sp], #64
  972514:	d65f03c0 	ret
  972518:	51000660 	sub	w0, w19, #0x1
  97251c:	11000673 	add	w19, w19, #0x1
  972520:	b8607aa0 	ldr	w0, [x21, x0, lsl #2]
  972524:	8b0012e0 	add	x0, x23, x0, lsl #4
  972528:	79401c00 	ldrh	w0, [x0, #14]
  97252c:	8b000ec0 	add	x0, x22, x0, lsl #3
  972530:	97fffe7a 	bl	971f18 <bakery_lock_get>
  972534:	17fffff2 	b	9724fc <psci_acquire_pwr_domain_locks+0x30>

0000000000972538 <psci_release_pwr_domain_locks>:
  972538:	a9bd7bfd 	stp	x29, x30, [sp, #-48]!
  97253c:	910003fd 	mov	x29, sp
  972540:	a90153f3 	stp	x19, x20, [sp, #16]
  972544:	2a0003f3 	mov	w19, w0
  972548:	aa0103f4 	mov	x20, x1
  97254c:	a9025bf5 	stp	x21, x22, [sp, #32]
  972550:	b00000d5 	adrp	x21, 98b000 <psci_locks>
  972554:	b00000d6 	adrp	x22, 98b000 <psci_locks>
  972558:	910002b5 	add	x21, x21, #0x0
  97255c:	9100a2d6 	add	x22, x22, #0x28
  972560:	350000b3 	cbnz	w19, 972574 <psci_release_pwr_domain_locks+0x3c>
  972564:	a94153f3 	ldp	x19, x20, [sp, #16]
  972568:	a9425bf5 	ldp	x21, x22, [sp, #32]
  97256c:	a8c37bfd 	ldp	x29, x30, [sp], #48
  972570:	d65f03c0 	ret
  972574:	51000673 	sub	w19, w19, #0x1
  972578:	b8735a80 	ldr	w0, [x20, w19, uxtw #2]
  97257c:	8b0012c0 	add	x0, x22, x0, lsl #4
  972580:	79401c00 	ldrh	w0, [x0, #14]
  972584:	8b000ea0 	add	x0, x21, x0, lsl #3
  972588:	97fffe93 	bl	971fd4 <bakery_lock_release>
  97258c:	17fffff5 	b	972560 <psci_release_pwr_domain_locks+0x28>

0000000000972590 <psci_validate_entry_point>:
  972590:	a9bb7bfd 	stp	x29, x30, [sp, #-80]!
  972594:	910003fd 	mov	x29, sp
  972598:	a90153f3 	stp	x19, x20, [sp, #16]
  97259c:	aa0003f4 	mov	x20, x0
  9725a0:	b0000060 	adrp	x0, 97f000 <psci_ns_context+0x600>
  9725a4:	aa0103f3 	mov	x19, x1
  9725a8:	a9025bf5 	stp	x21, x22, [sp, #32]
  9725ac:	f946c000 	ldr	x0, [x0, #3456]
  9725b0:	a90363f7 	stp	x23, x24, [sp, #48]
  9725b4:	aa0203f8 	mov	x24, x2
  9725b8:	f9403401 	ldr	x1, [x0, #104]
  9725bc:	f90023f9 	str	x25, [sp, #64]
  9725c0:	b5000361 	cbnz	x1, 97262c <psci_validate_entry_point+0x9c>
  9725c4:	d53e1117 	mrs	x23, scr_el3
  9725c8:	d5381000 	mrs	x0, sctlr_el1
  9725cc:	927802f9 	and	x25, x23, #0x100
  9725d0:	37400437 	tbnz	w23, #8, 972654 <psci_validate_entry_point+0xc4>
  9725d4:	f2670000 	ands	x0, x0, #0x2000000
  9725d8:	52802021 	mov	w1, #0x101                 	// #257
  9725dc:	72a00b01 	movk	w1, #0x58, lsl #16
  9725e0:	d2800075 	mov	x21, #0x3                   	// #3
  9725e4:	9a9f16a0 	csinc	x0, x21, xzr, ne  // ne = any
  9725e8:	29000281 	stp	w1, w0, [x20]
  9725ec:	f9000693 	str	x19, [x20, #8]
  9725f0:	1a9f07f6 	cset	w22, ne  // ne = any
  9725f4:	91006280 	add	x0, x20, #0x18
  9725f8:	d2800801 	mov	x1, #0x40                  	// #64
  9725fc:	940016e2 	bl	978184 <zeromem>
  972600:	f9000e98 	str	x24, [x20, #24]
  972604:	365002d7 	tbz	w23, #10, 97265c <psci_validate_entry_point+0xcc>
  972608:	37000193 	tbnz	w19, #0, 972638 <psci_validate_entry_point+0xa8>
  97260c:	f100033f 	cmp	x25, #0x0
  972610:	52807821 	mov	w1, #0x3c1                 	// #961
  972614:	1a9f07e0 	cset	w0, ne  // ne = any
  972618:	11000400 	add	w0, w0, #0x1
  97261c:	2a000820 	orr	w0, w1, w0, lsl #2
  972620:	b9001280 	str	w0, [x20, #16]
  972624:	52800000 	mov	w0, #0x0                   	// #0
  972628:	14000005 	b	97263c <psci_validate_entry_point+0xac>
  97262c:	aa1303e0 	mov	x0, x19
  972630:	d63f0020 	blr	x1
  972634:	34fffc80 	cbz	w0, 9725c4 <psci_validate_entry_point+0x34>
  972638:	12800100 	mov	w0, #0xfffffff7            	// #-9
  97263c:	a94153f3 	ldp	x19, x20, [sp, #16]
  972640:	a9425bf5 	ldp	x21, x22, [sp, #32]
  972644:	a94363f7 	ldp	x23, x24, [sp, #48]
  972648:	f94023f9 	ldr	x25, [sp, #64]
  97264c:	a8c57bfd 	ldp	x29, x30, [sp], #80
  972650:	d65f03c0 	ret
  972654:	d53c1000 	mrs	x0, sctlr_el2
  972658:	17ffffdf 	b	9725d4 <psci_validate_entry_point+0x44>
  97265c:	52800140 	mov	w0, #0xa                   	// #10
  972660:	f100033f 	cmp	x25, #0x0
  972664:	1a8002b5 	csel	w21, w21, w0, eq  // eq = none
  972668:	531b0273 	ubfiz	w19, w19, #5, #1
  97266c:	52803a00 	mov	w0, #0x1d0                 	// #464
  972670:	2a150273 	orr	w19, w19, w21
  972674:	2a162416 	orr	w22, w0, w22, lsl #9
  972678:	2a160273 	orr	w19, w19, w22
  97267c:	b9001293 	str	w19, [x20, #16]
  972680:	17ffffe9 	b	972624 <psci_validate_entry_point+0x94>

0000000000972684 <psci_warmboot_entrypoint>:
  972684:	a9bc7bfd 	stp	x29, x30, [sp, #-64]!
  972688:	910003fd 	mov	x29, sp
  97268c:	a90153f3 	stp	x19, x20, [sp, #16]
  972690:	a9025bf5 	stp	x21, x22, [sp, #32]
  972694:	940018cd 	bl	9789c8 <plat_my_core_pos>
  972698:	2a0003f4 	mov	w20, w0
  97269c:	790063ff 	strh	wzr, [sp, #48]
  9726a0:	3900cbff 	strb	wzr, [sp, #50]
  9726a4:	f9001fff 	str	xzr, [sp, #56]
  9726a8:	97fffd4e 	bl	971be0 <cm_manage_extensions_el3>
  9726ac:	d53ed040 	mrs	x0, tpidr_el3
  9726b0:	b9401800 	ldr	w0, [x0, #24]
  9726b4:	7100041f 	cmp	w0, #0x1
  9726b8:	540000c1 	b.ne	9726d0 <psci_warmboot_entrypoint+0x4c>  // b.any
  9726bc:	f0000020 	adrp	x0, 979000 <vprintf+0x2b4>
  9726c0:	9129c000 	add	x0, x0, #0xa70
  9726c4:	97fff7e9 	bl	970668 <tf_log>
  9726c8:	97fffc85 	bl	9718dc <console_flush>
  9726cc:	9400162c 	bl	977f7c <el3_panic>
  9726d0:	d53ed040 	mrs	x0, tpidr_el3
  9726d4:	b9401c13 	ldr	w19, [x0, #28]
  9726d8:	9100e3f5 	add	x21, sp, #0x38
  9726dc:	aa1503e2 	mov	x2, x21
  9726e0:	52800040 	mov	w0, #0x2                   	// #2
  9726e4:	71000e7f 	cmp	w19, #0x3
  9726e8:	9100c3f6 	add	x22, sp, #0x30
  9726ec:	1a801273 	csel	w19, w19, w0, ne  // ne = any
  9726f0:	2a1403e0 	mov	w0, w20
  9726f4:	2a1303e1 	mov	w1, w19
  9726f8:	97fffed7 	bl	972254 <psci_get_parent_pwr_domain_nodes>
  9726fc:	aa1503e1 	mov	x1, x21
  972700:	2a1303e0 	mov	w0, w19
  972704:	97ffff72 	bl	9724cc <psci_acquire_pwr_domain_locks>
  972708:	aa1603e1 	mov	x1, x22
  97270c:	2a1303e0 	mov	w0, w19
  972710:	97fffe8c 	bl	972140 <psci_get_target_local_pwr_states>
  972714:	d53ed040 	mrs	x0, tpidr_el3
  972718:	b9401800 	ldr	w0, [x0, #24]
  97271c:	aa1603e1 	mov	x1, x22
  972720:	7100081f 	cmp	w0, #0x2
  972724:	2a1403e0 	mov	w0, w20
  972728:	54000181 	b.ne	972758 <psci_warmboot_entrypoint+0xd4>  // b.any
  97272c:	9400025a 	bl	973094 <psci_cpu_on_finish>
  972730:	97fffdc4 	bl	971e40 <cm_prepare_el3_exit_ns>
  972734:	2a1303e0 	mov	w0, w19
  972738:	97fffed9 	bl	97229c <psci_set_pwr_domains_to_run>
  97273c:	aa1503e1 	mov	x1, x21
  972740:	2a1303e0 	mov	w0, w19
  972744:	97ffff7d 	bl	972538 <psci_release_pwr_domain_locks>
  972748:	a94153f3 	ldp	x19, x20, [sp, #16]
  97274c:	a9425bf5 	ldp	x21, x22, [sp, #32]
  972750:	a8c47bfd 	ldp	x29, x30, [sp], #64
  972754:	d65f03c0 	ret
  972758:	940003d4 	bl	9736a8 <psci_cpu_suspend_finish>
  97275c:	17fffff5 	b	972730 <psci_warmboot_entrypoint+0xac>

0000000000972760 <psci_register_spd_pm_hook>:
  972760:	b0000061 	adrp	x1, 97f000 <psci_ns_context+0x600>
  972764:	f906c420 	str	x0, [x1, #3464]
  972768:	f9401401 	ldr	x1, [x0, #40]
  97276c:	b40000c1 	cbz	x1, 972784 <psci_register_spd_pm_hook+0x24>
  972770:	f0000021 	adrp	x1, 979000 <vprintf+0x2b4>
  972774:	f946b421 	ldr	x1, [x1, #3432]
  972778:	b9400022 	ldr	w2, [x1]
  97277c:	321b0042 	orr	w2, w2, #0x20
  972780:	b9000022 	str	w2, [x1]
  972784:	f9401800 	ldr	x0, [x0, #48]
  972788:	b40000c0 	cbz	x0, 9727a0 <psci_register_spd_pm_hook+0x40>
  97278c:	f0000021 	adrp	x1, 979000 <vprintf+0x2b4>
  972790:	f946b421 	ldr	x1, [x1, #3432]
  972794:	b9400020 	ldr	w0, [x1]
  972798:	321a0400 	orr	w0, w0, #0xc0
  97279c:	b9000020 	str	w0, [x1]
  9727a0:	d65f03c0 	ret

00000000009727a4 <psci_spd_migrate_info>:
  9727a4:	b0000061 	adrp	x1, 97f000 <psci_ns_context+0x600>
  9727a8:	f946c421 	ldr	x1, [x1, #3464]
  9727ac:	b40000a1 	cbz	x1, 9727c0 <psci_spd_migrate_info+0x1c>
  9727b0:	f9401821 	ldr	x1, [x1, #48]
  9727b4:	b4000061 	cbz	x1, 9727c0 <psci_spd_migrate_info+0x1c>
  9727b8:	aa0103f0 	mov	x16, x1
  9727bc:	d61f0200 	br	x16
  9727c0:	12800000 	mov	w0, #0xffffffff            	// #-1
  9727c4:	d65f03c0 	ret

00000000009727c8 <psci_print_power_domain_map>:
  9727c8:	d65f03c0 	ret

00000000009727cc <psci_pwrdown_cpu>:
  9727cc:	14001835 	b	9788a0 <psci_do_pwrdown_cache_maintenance>

00000000009727d0 <is_valid_mpidr>:
  9727d0:	a9bf7bfd 	stp	x29, x30, [sp, #-16]!
  9727d4:	910003fd 	mov	x29, sp
  9727d8:	94000699 	bl	97423c <plat_core_pos_by_mpidr>
  9727dc:	71000c1f 	cmp	w0, #0x3
  9727e0:	1a9f87e0 	cset	w0, ls  // ls = plast
  9727e4:	a8c17bfd 	ldp	x29, x30, [sp], #16
  9727e8:	d65f03c0 	ret

00000000009727ec <psci_cpu_on>:
  9727ec:	a9b77bfd 	stp	x29, x30, [sp, #-144]!
  9727f0:	910003fd 	mov	x29, sp
  9727f4:	a90153f3 	stp	x19, x20, [sp, #16]
  9727f8:	aa0003f3 	mov	x19, x0
  9727fc:	aa0103f4 	mov	x20, x1
  972800:	a9025bf5 	stp	x21, x22, [sp, #32]
  972804:	aa0203f5 	mov	x21, x2
  972808:	97fffff2 	bl	9727d0 <is_valid_mpidr>
  97280c:	72001c1f 	tst	w0, #0xff
  972810:	540001c0 	b.eq	972848 <psci_cpu_on+0x5c>  // b.none
  972814:	9100e3f6 	add	x22, sp, #0x38
  972818:	aa1503e2 	mov	x2, x21
  97281c:	aa1403e1 	mov	x1, x20
  972820:	aa1603e0 	mov	x0, x22
  972824:	97ffff5b 	bl	972590 <psci_validate_entry_point>
  972828:	35000080 	cbnz	w0, 972838 <psci_cpu_on+0x4c>
  97282c:	aa1603e1 	mov	x1, x22
  972830:	aa1303e0 	mov	x0, x19
  972834:	940001bf 	bl	972f30 <psci_cpu_on_start>
  972838:	a94153f3 	ldp	x19, x20, [sp, #16]
  97283c:	a9425bf5 	ldp	x21, x22, [sp, #32]
  972840:	a8c97bfd 	ldp	x29, x30, [sp], #144
  972844:	d65f03c0 	ret
  972848:	12800020 	mov	w0, #0xfffffffe            	// #-2
  97284c:	17fffffb 	b	972838 <psci_cpu_on+0x4c>

0000000000972850 <psci_cpu_suspend>:
  972850:	a9b57bfd 	stp	x29, x30, [sp, #-176]!
  972854:	910003fd 	mov	x29, sp
  972858:	a90363f7 	stp	x23, x24, [sp, #48]
  97285c:	910143f8 	add	x24, sp, #0x50
  972860:	aa0203f7 	mov	x23, x2
  972864:	a90153f3 	stp	x19, x20, [sp, #16]
  972868:	2a0003f4 	mov	w20, w0
  97286c:	a9025bf5 	stp	x21, x22, [sp, #32]
  972870:	aa0103f6 	mov	x22, x1
  972874:	aa1803e1 	mov	x1, x24
  972878:	f90023f9 	str	x25, [sp, #64]
  97287c:	7900a3ff 	strh	wzr, [sp, #80]
  972880:	39014bff 	strb	wzr, [sp, #82]
  972884:	97fffdee 	bl	97203c <psci_validate_power_state>
  972888:	2a0003f3 	mov	w19, w0
  97288c:	35000320 	cbnz	w0, 9728f0 <psci_cpu_suspend+0xa0>
  972890:	aa1803e0 	mov	x0, x24
  972894:	d3504294 	ubfx	x20, x20, #16, #1
  972898:	97ffff00 	bl	972498 <psci_find_target_suspend_lvl>
  97289c:	2a0003f5 	mov	w21, w0
  9728a0:	71000c1f 	cmp	w0, #0x3
  9728a4:	540000c1 	b.ne	9728bc <psci_cpu_suspend+0x6c>  // b.any
  9728a8:	f0000020 	adrp	x0, 979000 <vprintf+0x2b4>
  9728ac:	912a4800 	add	x0, x0, #0xa92
  9728b0:	97fff76e 	bl	970668 <tf_log>
  9728b4:	97fffc0a 	bl	9718dc <console_flush>
  9728b8:	940015b1 	bl	977f7c <el3_panic>
  9728bc:	2a000280 	orr	w0, w20, w0
  9728c0:	35000260 	cbnz	w0, 97290c <psci_cpu_suspend+0xbc>
  9728c4:	f0000020 	adrp	x0, 979000 <vprintf+0x2b4>
  9728c8:	f946d800 	ldr	x0, [x0, #3504]
  9728cc:	f9400000 	ldr	x0, [x0]
  9728d0:	f9400001 	ldr	x1, [x0]
  9728d4:	b40003c1 	cbz	x1, 97294c <psci_cpu_suspend+0xfc>
  9728d8:	394143e0 	ldrb	w0, [sp, #80]
  9728dc:	d53ed042 	mrs	x2, tpidr_el3
  9728e0:	39008040 	strb	w0, [x2, #32]
  9728e4:	d63f0020 	blr	x1
  9728e8:	d53ed040 	mrs	x0, tpidr_el3
  9728ec:	3900801f 	strb	wzr, [x0, #32]
  9728f0:	2a1303e0 	mov	w0, w19
  9728f4:	a94153f3 	ldp	x19, x20, [sp, #16]
  9728f8:	a9425bf5 	ldp	x21, x22, [sp, #32]
  9728fc:	a94363f7 	ldp	x23, x24, [sp, #48]
  972900:	f94023f9 	ldr	x25, [sp, #64]
  972904:	a8cb7bfd 	ldp	x29, x30, [sp], #176
  972908:	d65f03c0 	ret
  97290c:	910163f9 	add	x25, sp, #0x58
  972910:	35000114 	cbnz	w20, 972930 <psci_cpu_suspend+0xe0>
  972914:	2a1403e3 	mov	w3, w20
  972918:	aa1803e2 	mov	x2, x24
  97291c:	2a1503e1 	mov	w1, w21
  972920:	aa1903e0 	mov	x0, x25
  972924:	940002eb 	bl	9734d0 <psci_cpu_suspend_start>
  972928:	2a0003f3 	mov	w19, w0
  97292c:	17fffff1 	b	9728f0 <psci_cpu_suspend+0xa0>
  972930:	aa1703e2 	mov	x2, x23
  972934:	aa1603e1 	mov	x1, x22
  972938:	aa1903e0 	mov	x0, x25
  97293c:	97ffff15 	bl	972590 <psci_validate_entry_point>
  972940:	2a0003f3 	mov	w19, w0
  972944:	34fffe80 	cbz	w0, 972914 <psci_cpu_suspend+0xc4>
  972948:	17ffffea 	b	9728f0 <psci_cpu_suspend+0xa0>
  97294c:	12800033 	mov	w19, #0xfffffffe            	// #-2
  972950:	17ffffe8 	b	9728f0 <psci_cpu_suspend+0xa0>

0000000000972954 <psci_system_suspend>:
  972954:	a9b77bfd 	stp	x29, x30, [sp, #-144]!
  972958:	910003fd 	mov	x29, sp
  97295c:	a90153f3 	stp	x19, x20, [sp, #16]
  972960:	aa0003f3 	mov	x19, x0
  972964:	aa0103f4 	mov	x20, x1
  972968:	f90013f5 	str	x21, [sp, #32]
  97296c:	97fffdc3 	bl	972078 <psci_is_last_on_cpu>
  972970:	72001c1f 	tst	w0, #0xff
  972974:	540000c1 	b.ne	97298c <psci_system_suspend+0x38>  // b.any
  972978:	12800040 	mov	w0, #0xfffffffd            	// #-3
  97297c:	a94153f3 	ldp	x19, x20, [sp, #16]
  972980:	f94013f5 	ldr	x21, [sp, #32]
  972984:	a8c97bfd 	ldp	x29, x30, [sp], #144
  972988:	d65f03c0 	ret
  97298c:	9100e3f5 	add	x21, sp, #0x38
  972990:	aa1403e2 	mov	x2, x20
  972994:	aa1303e1 	mov	x1, x19
  972998:	aa1503e0 	mov	x0, x21
  97299c:	97fffefd 	bl	972590 <psci_validate_entry_point>
  9729a0:	35fffee0 	cbnz	w0, 97297c <psci_system_suspend+0x28>
  9729a4:	9100c3f3 	add	x19, sp, #0x30
  9729a8:	aa1303e0 	mov	x0, x19
  9729ac:	97fffdae 	bl	972064 <psci_query_sys_suspend_pwrstate>
  9729b0:	aa1303e0 	mov	x0, x19
  9729b4:	97fffeb9 	bl	972498 <psci_find_target_suspend_lvl>
  9729b8:	7100041f 	cmp	w0, #0x1
  9729bc:	54fffde9 	b.ls	972978 <psci_system_suspend+0x24>  // b.plast
  9729c0:	aa1303e2 	mov	x2, x19
  9729c4:	aa1503e0 	mov	x0, x21
  9729c8:	52800023 	mov	w3, #0x1                   	// #1
  9729cc:	52800041 	mov	w1, #0x2                   	// #2
  9729d0:	940002c0 	bl	9734d0 <psci_cpu_suspend_start>
  9729d4:	17ffffea 	b	97297c <psci_system_suspend+0x28>

00000000009729d8 <psci_cpu_off>:
  9729d8:	52800040 	mov	w0, #0x2                   	// #2
  9729dc:	140000ff 	b	972dd8 <psci_do_cpu_off>

00000000009729e0 <psci_affinity_info>:
  9729e0:	a9be7bfd 	stp	x29, x30, [sp, #-32]!
  9729e4:	910003fd 	mov	x29, sp
  9729e8:	a90153f3 	stp	x19, x20, [sp, #16]
  9729ec:	aa0003f3 	mov	x19, x0
  9729f0:	2a0103f4 	mov	w20, w1
  9729f4:	97ffff77 	bl	9727d0 <is_valid_mpidr>
  9729f8:	72001c1f 	tst	w0, #0xff
  9729fc:	540001e0 	b.eq	972a38 <psci_affinity_info+0x58>  // b.none
  972a00:	350001d4 	cbnz	w20, 972a38 <psci_affinity_info+0x58>
  972a04:	aa1303e0 	mov	x0, x19
  972a08:	9400060d 	bl	97423c <plat_core_pos_by_mpidr>
  972a0c:	2a0003f3 	mov	w19, w0
  972a10:	94001794 	bl	978860 <_cpu_data_by_index>
  972a14:	d2800081 	mov	x1, #0x4                   	// #4
  972a18:	91006000 	add	x0, x0, #0x18
  972a1c:	94001564 	bl	977fac <flush_dcache_range>
  972a20:	2a1303e0 	mov	w0, w19
  972a24:	9400178f 	bl	978860 <_cpu_data_by_index>
  972a28:	b9401800 	ldr	w0, [x0, #24]
  972a2c:	a94153f3 	ldp	x19, x20, [sp, #16]
  972a30:	a8c27bfd 	ldp	x29, x30, [sp], #32
  972a34:	d65f03c0 	ret
  972a38:	12800020 	mov	w0, #0xfffffffe            	// #-2
  972a3c:	17fffffc 	b	972a2c <psci_affinity_info+0x4c>

0000000000972a40 <psci_migrate>:
  972a40:	a9bd7bfd 	stp	x29, x30, [sp, #-48]!
  972a44:	910003fd 	mov	x29, sp
  972a48:	f9000bf3 	str	x19, [sp, #16]
  972a4c:	aa0003f3 	mov	x19, x0
  972a50:	97ffff60 	bl	9727d0 <is_valid_mpidr>
  972a54:	72001c1f 	tst	w0, #0xff
  972a58:	540000a1 	b.ne	972a6c <psci_migrate+0x2c>  // b.any
  972a5c:	12800020 	mov	w0, #0xfffffffe            	// #-2
  972a60:	f9400bf3 	ldr	x19, [sp, #16]
  972a64:	a8c37bfd 	ldp	x29, x30, [sp], #48
  972a68:	d65f03c0 	ret
  972a6c:	9100a3e0 	add	x0, sp, #0x28
  972a70:	97ffff4d 	bl	9727a4 <psci_spd_migrate_info>
  972a74:	340000a0 	cbz	w0, 972a88 <psci_migrate+0x48>
  972a78:	7100041f 	cmp	w0, #0x1
  972a7c:	12800040 	mov	w0, #0xfffffffd            	// #-3
  972a80:	5a9f0000 	csinv	w0, w0, wzr, eq  // eq = none
  972a84:	17fffff7 	b	972a60 <psci_migrate+0x20>
  972a88:	d53800a0 	mrs	x0, mpidr_el1
  972a8c:	f94017e1 	ldr	x1, [sp, #40]
  972a90:	eb00003f 	cmp	x1, x0
  972a94:	540001a1 	b.ne	972ac8 <psci_migrate+0x88>  // b.any
  972a98:	aa1303e0 	mov	x0, x19
  972a9c:	97ffff4d 	bl	9727d0 <is_valid_mpidr>
  972aa0:	72001c1f 	tst	w0, #0xff
  972aa4:	54fffdc0 	b.eq	972a5c <psci_migrate+0x1c>  // b.none
  972aa8:	d53800a0 	mrs	x0, mpidr_el1
  972aac:	f0000021 	adrp	x1, 979000 <vprintf+0x2b4>
  972ab0:	f9470c21 	ldr	x1, [x1, #3608]
  972ab4:	f9400021 	ldr	x1, [x1]
  972ab8:	f9401422 	ldr	x2, [x1, #40]
  972abc:	aa1303e1 	mov	x1, x19
  972ac0:	d63f0040 	blr	x2
  972ac4:	17ffffe7 	b	972a60 <psci_migrate+0x20>
  972ac8:	128000c0 	mov	w0, #0xfffffff9            	// #-7
  972acc:	17ffffe5 	b	972a60 <psci_migrate+0x20>

0000000000972ad0 <psci_migrate_info_type>:
  972ad0:	a9be7bfd 	stp	x29, x30, [sp, #-32]!
  972ad4:	910003fd 	mov	x29, sp
  972ad8:	910063e0 	add	x0, sp, #0x18
  972adc:	97ffff32 	bl	9727a4 <psci_spd_migrate_info>
  972ae0:	a8c27bfd 	ldp	x29, x30, [sp], #32
  972ae4:	d65f03c0 	ret

0000000000972ae8 <psci_migrate_info_up_cpu>:
  972ae8:	a9be7bfd 	stp	x29, x30, [sp, #-32]!
  972aec:	910003fd 	mov	x29, sp
  972af0:	910063e0 	add	x0, sp, #0x18
  972af4:	97ffff2c 	bl	9727a4 <psci_spd_migrate_info>
  972af8:	f9400fe1 	ldr	x1, [sp, #24]
  972afc:	7100041f 	cmp	w0, #0x1
  972b00:	a8c27bfd 	ldp	x29, x30, [sp], #32
  972b04:	92800020 	mov	x0, #0xfffffffffffffffe    	// #-2
  972b08:	9a809020 	csel	x0, x1, x0, ls  // ls = plast
  972b0c:	d65f03c0 	ret

0000000000972b10 <psci_node_hw_state>:
  972b10:	a9be7bfd 	stp	x29, x30, [sp, #-32]!
  972b14:	910003fd 	mov	x29, sp
  972b18:	a90153f3 	stp	x19, x20, [sp, #16]
  972b1c:	aa0003f4 	mov	x20, x0
  972b20:	2a0103f3 	mov	w19, w1
  972b24:	97ffff2b 	bl	9727d0 <is_valid_mpidr>
  972b28:	72001c1f 	tst	w0, #0xff
  972b2c:	540001a0 	b.eq	972b60 <psci_node_hw_state+0x50>  // b.none
  972b30:	71000a7f 	cmp	w19, #0x2
  972b34:	54000168 	b.hi	972b60 <psci_node_hw_state+0x50>  // b.pmore
  972b38:	f0000020 	adrp	x0, 979000 <vprintf+0x2b4>
  972b3c:	2a1303e1 	mov	w1, w19
  972b40:	f946d800 	ldr	x0, [x0, #3504]
  972b44:	f9400000 	ldr	x0, [x0]
  972b48:	f9404402 	ldr	x2, [x0, #136]
  972b4c:	aa1403e0 	mov	x0, x20
  972b50:	a94153f3 	ldp	x19, x20, [sp, #16]
  972b54:	aa0203f0 	mov	x16, x2
  972b58:	a8c27bfd 	ldp	x29, x30, [sp], #32
  972b5c:	d61f0200 	br	x16
  972b60:	12800020 	mov	w0, #0xfffffffe            	// #-2
  972b64:	a94153f3 	ldp	x19, x20, [sp, #16]
  972b68:	a8c27bfd 	ldp	x29, x30, [sp], #32
  972b6c:	d65f03c0 	ret

0000000000972b70 <psci_features>:
  972b70:	52b00001 	mov	w1, #0x80000000            	// #-2147483648
  972b74:	6b01001f 	cmp	w0, w1
  972b78:	540002a0 	b.eq	972bcc <psci_features+0x5c>  // b.none
  972b7c:	f0000021 	adrp	x1, 979000 <vprintf+0x2b4>
  972b80:	f946b421 	ldr	x1, [x1, #3432]
  972b84:	b9400021 	ldr	w1, [x1]
  972b88:	36f00080 	tbz	w0, #30, 972b98 <psci_features+0x28>
  972b8c:	528c1742 	mov	w2, #0x60ba                	// #24762
  972b90:	72a002e2 	movk	w2, #0x17, lsl #16
  972b94:	0a020021 	and	w1, w1, w2
  972b98:	d3587402 	ubfx	x2, x0, #24, #6
  972b9c:	7100105f 	cmp	w2, #0x4
  972ba0:	540001a1 	b.ne	972bd4 <psci_features+0x64>  // b.any
  972ba4:	d3505c04 	ubfx	x4, x0, #16, #8
  972ba8:	531f7c02 	lsr	w2, w0, #31
  972bac:	36f80140 	tbz	w0, #31, 972bd4 <psci_features+0x64>
  972bb0:	121b2803 	and	w3, w0, #0xffe0
  972bb4:	2a040063 	orr	w3, w3, w4
  972bb8:	350000e3 	cbnz	w3, 972bd4 <psci_features+0x64>
  972bbc:	1ac02040 	lsl	w0, w2, w0
  972bc0:	6a01001f 	tst	w0, w1
  972bc4:	5a9f13e0 	csetm	w0, eq  // eq = none
  972bc8:	d65f03c0 	ret
  972bcc:	52800000 	mov	w0, #0x0                   	// #0
  972bd0:	17fffffe 	b	972bc8 <psci_features+0x58>
  972bd4:	12800000 	mov	w0, #0xffffffff            	// #-1
  972bd8:	17fffffc 	b	972bc8 <psci_features+0x58>

0000000000972bdc <psci_smc_handler>:
  972bdc:	36000a07 	tbz	w7, #0, 972d1c <psci_smc_handler+0x140>
  972be0:	f0000025 	adrp	x5, 979000 <vprintf+0x2b4>
  972be4:	2a0003e4 	mov	w4, w0
  972be8:	aa0103e0 	mov	x0, x1
  972bec:	aa0203e1 	mov	x1, x2
  972bf0:	f946b4a5 	ldr	x5, [x5, #3432]
  972bf4:	aa0303e2 	mov	x2, x3
  972bf8:	52800023 	mov	w3, #0x1                   	// #1
  972bfc:	1ac42063 	lsl	w3, w3, w4
  972c00:	b94000a5 	ldr	w5, [x5]
  972c04:	6a05007f 	tst	w3, w5
  972c08:	540008a0 	b.eq	972d1c <psci_smc_handler+0x140>  // b.none
  972c0c:	a9bf7bfd 	stp	x29, x30, [sp, #-16]!
  972c10:	910003fd 	mov	x29, sp
  972c14:	37f00704 	tbnz	w4, #30, 972cf4 <psci_smc_handler+0x118>
  972c18:	52af8003 	mov	w3, #0x7c000000            	// #2080374784
  972c1c:	0b030084 	add	w4, w4, w3
  972c20:	7100509f 	cmp	w4, #0x14
  972c24:	54000808 	b.hi	972d24 <psci_smc_handler+0x148>  // b.pmore
  972c28:	f0000023 	adrp	x3, 979000 <vprintf+0x2b4>
  972c2c:	9115c063 	add	x3, x3, #0x570
  972c30:	38644863 	ldrb	w3, [x3, w4, uxtw]
  972c34:	10000064 	adr	x4, 972c40 <psci_smc_handler+0x64>
  972c38:	8b238883 	add	x3, x4, w3, sxtb #2
  972c3c:	d61f0060 	br	x3
  972c40:	320083e0 	mov	w0, #0x10001               	// #65537
  972c44:	a8c17bfd 	ldp	x29, x30, [sp], #16
  972c48:	d65f03c0 	ret
  972c4c:	97ffff63 	bl	9729d8 <psci_cpu_off>
  972c50:	93407c00 	sxtw	x0, w0
  972c54:	17fffffc 	b	972c44 <psci_smc_handler+0x68>
  972c58:	2a0203e2 	mov	w2, w2
  972c5c:	2a0103e1 	mov	w1, w1
  972c60:	97fffefc 	bl	972850 <psci_cpu_suspend>
  972c64:	17fffffb 	b	972c50 <psci_smc_handler+0x74>
  972c68:	2a0203e2 	mov	w2, w2
  972c6c:	2a0103e1 	mov	w1, w1
  972c70:	2a0003e0 	mov	w0, w0
  972c74:	97fffede 	bl	9727ec <psci_cpu_on>
  972c78:	17fffff6 	b	972c50 <psci_smc_handler+0x74>
  972c7c:	2a0003e0 	mov	w0, w0
  972c80:	97ffff58 	bl	9729e0 <psci_affinity_info>
  972c84:	17fffff3 	b	972c50 <psci_smc_handler+0x74>
  972c88:	2a0003e0 	mov	w0, w0
  972c8c:	97ffff6d 	bl	972a40 <psci_migrate>
  972c90:	17fffff0 	b	972c50 <psci_smc_handler+0x74>
  972c94:	97ffff8f 	bl	972ad0 <psci_migrate_info_type>
  972c98:	17ffffee 	b	972c50 <psci_smc_handler+0x74>
  972c9c:	a8c17bfd 	ldp	x29, x30, [sp], #16
  972ca0:	17ffff92 	b	972ae8 <psci_migrate_info_up_cpu>
  972ca4:	2a0003e0 	mov	w0, w0
  972ca8:	97ffff9a 	bl	972b10 <psci_node_hw_state>
  972cac:	17ffffe9 	b	972c50 <psci_smc_handler+0x74>
  972cb0:	2a0103e1 	mov	w1, w1
  972cb4:	2a0003e0 	mov	w0, w0
  972cb8:	97ffff27 	bl	972954 <psci_system_suspend>
  972cbc:	17ffffe5 	b	972c50 <psci_smc_handler+0x74>
  972cc0:	940002a4 	bl	973750 <psci_system_off>
  972cc4:	940002b3 	bl	973790 <psci_system_reset>
  972cc8:	97ffffaa 	bl	972b70 <psci_features>
  972ccc:	17ffffe1 	b	972c50 <psci_smc_handler+0x74>
  972cd0:	a8c17bfd 	ldp	x29, x30, [sp], #16
  972cd4:	14000016 	b	972d2c <psci_mem_protect>
  972cd8:	2a0103e1 	mov	w1, w1
  972cdc:	2a0003e0 	mov	w0, w0
  972ce0:	a8c17bfd 	ldp	x29, x30, [sp], #16
  972ce4:	1400002a 	b	972d8c <psci_mem_chk_range>
  972ce8:	2a0103e1 	mov	w1, w1
  972cec:	a8c17bfd 	ldp	x29, x30, [sp], #16
  972cf0:	140002b8 	b	9737d0 <psci_system_reset2>
  972cf4:	12b88003 	mov	w3, #0x3bffffff            	// #1006632959
  972cf8:	0b030084 	add	w4, w4, w3
  972cfc:	71004c9f 	cmp	w4, #0x13
  972d00:	54000128 	b.hi	972d24 <psci_smc_handler+0x148>  // b.pmore
  972d04:	f0000023 	adrp	x3, 979000 <vprintf+0x2b4>
  972d08:	91162063 	add	x3, x3, #0x588
  972d0c:	38644863 	ldrb	w3, [x3, w4, uxtw]
  972d10:	10000064 	adr	x4, 972d1c <psci_smc_handler+0x140>
  972d14:	8b238883 	add	x3, x4, w3, sxtb #2
  972d18:	d61f0060 	br	x3
  972d1c:	92800000 	mov	x0, #0xffffffffffffffff    	// #-1
  972d20:	d65f03c0 	ret
  972d24:	92800000 	mov	x0, #0xffffffffffffffff    	// #-1
  972d28:	17ffffc7 	b	972c44 <psci_smc_handler+0x68>

0000000000972d2c <psci_mem_protect>:
  972d2c:	a9bd7bfd 	stp	x29, x30, [sp, #-48]!
  972d30:	910003fd 	mov	x29, sp
  972d34:	a90153f3 	stp	x19, x20, [sp, #16]
  972d38:	f0000033 	adrp	x19, 979000 <vprintf+0x2b4>
  972d3c:	2a0003f4 	mov	w20, w0
  972d40:	f946da73 	ldr	x19, [x19, #3504]
  972d44:	f9400260 	ldr	x0, [x19]
  972d48:	f9404c01 	ldr	x1, [x0, #152]
  972d4c:	9100b3e0 	add	x0, sp, #0x2c
  972d50:	d63f0020 	blr	x1
  972d54:	36f800a0 	tbz	w0, #31, 972d68 <psci_mem_protect+0x3c>
  972d58:	92800000 	mov	x0, #0xffffffffffffffff    	// #-1
  972d5c:	a94153f3 	ldp	x19, x20, [sp, #16]
  972d60:	a8c37bfd 	ldp	x29, x30, [sp], #48
  972d64:	d65f03c0 	ret
  972d68:	f9400260 	ldr	x0, [x19]
  972d6c:	f9405001 	ldr	x1, [x0, #160]
  972d70:	2a1403e0 	mov	w0, w20
  972d74:	d63f0020 	blr	x1
  972d78:	37ffff00 	tbnz	w0, #31, 972d58 <psci_mem_protect+0x2c>
  972d7c:	b9402fe0 	ldr	w0, [sp, #44]
  972d80:	7100001f 	cmp	w0, #0x0
  972d84:	9a9f07e0 	cset	x0, ne  // ne = any
  972d88:	17fffff5 	b	972d5c <psci_mem_protect+0x30>

0000000000972d8c <psci_mem_chk_range>:
  972d8c:	b50000c1 	cbnz	x1, 972da4 <psci_mem_chk_range+0x18>
  972d90:	92800040 	mov	x0, #0xfffffffffffffffd    	// #-3
  972d94:	d65f03c0 	ret
  972d98:	92800040 	mov	x0, #0xfffffffffffffffd    	// #-3
  972d9c:	a8c17bfd 	ldp	x29, x30, [sp], #16
  972da0:	d65f03c0 	ret
  972da4:	cb0103e2 	neg	x2, x1
  972da8:	eb00005f 	cmp	x2, x0
  972dac:	54ffff23 	b.cc	972d90 <psci_mem_chk_range+0x4>  // b.lo, b.ul, b.last
  972db0:	a9bf7bfd 	stp	x29, x30, [sp, #-16]!
  972db4:	f0000022 	adrp	x2, 979000 <vprintf+0x2b4>
  972db8:	910003fd 	mov	x29, sp
  972dbc:	f946d842 	ldr	x2, [x2, #3504]
  972dc0:	f9400042 	ldr	x2, [x2]
  972dc4:	f9404842 	ldr	x2, [x2, #144]
  972dc8:	d63f0040 	blr	x2
  972dcc:	37fffe60 	tbnz	w0, #31, 972d98 <psci_mem_chk_range+0xc>
  972dd0:	d2800000 	mov	x0, #0x0                   	// #0
  972dd4:	17fffff2 	b	972d9c <psci_mem_chk_range+0x10>

0000000000972dd8 <psci_do_cpu_off>:
  972dd8:	a9bb7bfd 	stp	x29, x30, [sp, #-80]!
  972ddc:	910003fd 	mov	x29, sp
  972de0:	a90153f3 	stp	x19, x20, [sp, #16]
  972de4:	2a0003f4 	mov	w20, w0
  972de8:	a9025bf5 	stp	x21, x22, [sp, #32]
  972dec:	f9001bf7 	str	x23, [sp, #48]
  972df0:	940016f6 	bl	9789c8 <plat_my_core_pos>
  972df4:	f0000022 	adrp	x2, 979000 <vprintf+0x2b4>
  972df8:	2a0003f6 	mov	w22, w0
  972dfc:	52808080 	mov	w0, #0x404                 	// #1028
  972e00:	790083e0 	strh	w0, [sp, #64]
  972e04:	52800080 	mov	w0, #0x4                   	// #4
  972e08:	39010be0 	strb	w0, [sp, #66]
  972e0c:	f946d840 	ldr	x0, [x2, #3504]
  972e10:	f90027ff 	str	xzr, [sp, #72]
  972e14:	aa0203f5 	mov	x21, x2
  972e18:	f9400000 	ldr	x0, [x0]
  972e1c:	f9400c01 	ldr	x1, [x0, #24]
  972e20:	b4000181 	cbz	x1, 972e50 <psci_do_cpu_off+0x78>
  972e24:	910103e0 	add	x0, sp, #0x40
  972e28:	d63f0020 	blr	x1
  972e2c:	2a0003f3 	mov	w19, w0
  972e30:	31000c1f 	cmn	w0, #0x3
  972e34:	54000101 	b.ne	972e54 <psci_do_cpu_off+0x7c>  // b.any
  972e38:	2a1303e0 	mov	w0, w19
  972e3c:	a94153f3 	ldp	x19, x20, [sp, #16]
  972e40:	a9425bf5 	ldp	x21, x22, [sp, #32]
  972e44:	f9401bf7 	ldr	x23, [sp, #48]
  972e48:	a8c57bfd 	ldp	x29, x30, [sp], #80
  972e4c:	d65f03c0 	ret
  972e50:	52800013 	mov	w19, #0x0                   	// #0
  972e54:	910123f7 	add	x23, sp, #0x48
  972e58:	2a1403e1 	mov	w1, w20
  972e5c:	aa1703e2 	mov	x2, x23
  972e60:	2a1603e0 	mov	w0, w22
  972e64:	97fffcfc 	bl	972254 <psci_get_parent_pwr_domain_nodes>
  972e68:	2a1403e0 	mov	w0, w20
  972e6c:	aa1703e1 	mov	x1, x23
  972e70:	97fffd97 	bl	9724cc <psci_acquire_pwr_domain_locks>
  972e74:	f9470ea0 	ldr	x0, [x21, #3608]
  972e78:	f9400000 	ldr	x0, [x0]
  972e7c:	b40000e0 	cbz	x0, 972e98 <psci_do_cpu_off+0xc0>
  972e80:	f9400401 	ldr	x1, [x0, #8]
  972e84:	b40000a1 	cbz	x1, 972e98 <psci_do_cpu_off+0xc0>
  972e88:	d2800000 	mov	x0, #0x0                   	// #0
  972e8c:	d63f0020 	blr	x1
  972e90:	2a0003f3 	mov	w19, w0
  972e94:	35000200 	cbnz	w0, 972ed4 <psci_do_cpu_off+0xfc>
  972e98:	910103f6 	add	x22, sp, #0x40
  972e9c:	2a1403e0 	mov	w0, w20
  972ea0:	aa1603e1 	mov	x1, x22
  972ea4:	97fffd21 	bl	972328 <psci_do_state_coordination>
  972ea8:	aa1603e1 	mov	x1, x22
  972eac:	2a1403e0 	mov	w0, w20
  972eb0:	97fffcc8 	bl	9721d0 <psci_set_target_local_pwr_states>
  972eb4:	aa1603e0 	mov	x0, x22
  972eb8:	97fffd65 	bl	97244c <psci_find_max_off_lvl>
  972ebc:	97fffe44 	bl	9727cc <psci_pwrdown_cpu>
  972ec0:	f946daa0 	ldr	x0, [x21, #3504]
  972ec4:	f9400000 	ldr	x0, [x0]
  972ec8:	f9400801 	ldr	x1, [x0, #16]
  972ecc:	aa1603e0 	mov	x0, x22
  972ed0:	d63f0020 	blr	x1
  972ed4:	aa1703e1 	mov	x1, x23
  972ed8:	2a1403e0 	mov	w0, w20
  972edc:	97fffd97 	bl	972538 <psci_release_pwr_domain_locks>
  972ee0:	35fffad3 	cbnz	w19, 972e38 <psci_do_cpu_off+0x60>
  972ee4:	d53ed040 	mrs	x0, tpidr_el3
  972ee8:	d2800081 	mov	x1, #0x4                   	// #4
  972eec:	91006000 	add	x0, x0, #0x18
  972ef0:	9400142f 	bl	977fac <flush_dcache_range>
  972ef4:	d53ed040 	mrs	x0, tpidr_el3
  972ef8:	52800021 	mov	w1, #0x1                   	// #1
  972efc:	b9001801 	str	w1, [x0, #24]
  972f00:	d5033b9f 	dsb	ish
  972f04:	d53ed040 	mrs	x0, tpidr_el3
  972f08:	d2800081 	mov	x1, #0x4                   	// #4
  972f0c:	91006000 	add	x0, x0, #0x18
  972f10:	94001443 	bl	97801c <inv_dcache_range>
  972f14:	f946dab5 	ldr	x21, [x21, #3504]
  972f18:	f94002a0 	ldr	x0, [x21]
  972f1c:	f9402401 	ldr	x1, [x0, #72]
  972f20:	b4000061 	cbz	x1, 972f2c <psci_do_cpu_off+0x154>
  972f24:	910103e0 	add	x0, sp, #0x40
  972f28:	d63f0020 	blr	x1
  972f2c:	94001679 	bl	978910 <psci_power_down_wfi>

0000000000972f30 <psci_cpu_on_start>:
  972f30:	a9bc7bfd 	stp	x29, x30, [sp, #-64]!
  972f34:	910003fd 	mov	x29, sp
  972f38:	a9025bf5 	stp	x21, x22, [sp, #32]
  972f3c:	f0000036 	adrp	x22, 979000 <vprintf+0x2b4>
  972f40:	d2800195 	mov	x21, #0xc                   	// #12
  972f44:	a90153f3 	stp	x19, x20, [sp, #16]
  972f48:	a90363f7 	stp	x23, x24, [sp, #48]
  972f4c:	aa0103f7 	mov	x23, x1
  972f50:	aa0003f8 	mov	x24, x0
  972f54:	940004ba 	bl	97423c <plat_core_pos_by_mpidr>
  972f58:	2a0003f3 	mov	w19, w0
  972f5c:	8b2052b5 	add	x21, x21, w0, uxtw #4
  972f60:	f946a6c0 	ldr	x0, [x22, #3400]
  972f64:	8b0002b5 	add	x21, x21, x0
  972f68:	aa1503e0 	mov	x0, x21
  972f6c:	94001643 	bl	978878 <spin_lock>
  972f70:	2a1303e0 	mov	w0, w19
  972f74:	9400163b 	bl	978860 <_cpu_data_by_index>
  972f78:	d2800081 	mov	x1, #0x4                   	// #4
  972f7c:	91006000 	add	x0, x0, #0x18
  972f80:	9400140b 	bl	977fac <flush_dcache_range>
  972f84:	2a1303e0 	mov	w0, w19
  972f88:	94001636 	bl	978860 <_cpu_data_by_index>
  972f8c:	b9401800 	ldr	w0, [x0, #24]
  972f90:	340007a0 	cbz	w0, 973084 <psci_cpu_on_start+0x154>
  972f94:	7100081f 	cmp	w0, #0x2
  972f98:	540007a0 	b.eq	97308c <psci_cpu_on_start+0x15c>  // b.none
  972f9c:	f9470ec0 	ldr	x0, [x22, #3608]
  972fa0:	aa1603f4 	mov	x20, x22
  972fa4:	f9400000 	ldr	x0, [x0]
  972fa8:	b40000a0 	cbz	x0, 972fbc <psci_cpu_on_start+0x8c>
  972fac:	f9400001 	ldr	x1, [x0]
  972fb0:	b4000061 	cbz	x1, 972fbc <psci_cpu_on_start+0x8c>
  972fb4:	aa1803e0 	mov	x0, x24
  972fb8:	d63f0020 	blr	x1
  972fbc:	2a1303e0 	mov	w0, w19
  972fc0:	52800056 	mov	w22, #0x2                   	// #2
  972fc4:	94001627 	bl	978860 <_cpu_data_by_index>
  972fc8:	b9001816 	str	w22, [x0, #24]
  972fcc:	2a1303e0 	mov	w0, w19
  972fd0:	94001624 	bl	978860 <_cpu_data_by_index>
  972fd4:	91006000 	add	x0, x0, #0x18
  972fd8:	d2800081 	mov	x1, #0x4                   	// #4
  972fdc:	940013f4 	bl	977fac <flush_dcache_range>
  972fe0:	2a1303e0 	mov	w0, w19
  972fe4:	9400161f 	bl	978860 <_cpu_data_by_index>
  972fe8:	b9401800 	ldr	w0, [x0, #24]
  972fec:	6b16001f 	cmp	w0, w22
  972ff0:	54000120 	b.eq	973014 <psci_cpu_on_start+0xe4>  // b.none
  972ff4:	2a1303e0 	mov	w0, w19
  972ff8:	9400161a 	bl	978860 <_cpu_data_by_index>
  972ffc:	b9001816 	str	w22, [x0, #24]
  973000:	2a1303e0 	mov	w0, w19
  973004:	94001617 	bl	978860 <_cpu_data_by_index>
  973008:	91006000 	add	x0, x0, #0x18
  97300c:	d2800081 	mov	x1, #0x4                   	// #4
  973010:	940013e7 	bl	977fac <flush_dcache_range>
  973014:	f946da94 	ldr	x20, [x20, #3504]
  973018:	f9400280 	ldr	x0, [x20]
  97301c:	f9400401 	ldr	x1, [x0, #8]
  973020:	aa1803e0 	mov	x0, x24
  973024:	d63f0020 	blr	x1
  973028:	2a0003f4 	mov	w20, w0
  97302c:	35000180 	cbnz	w0, 97305c <psci_cpu_on_start+0x12c>
  973030:	aa1703e1 	mov	x1, x23
  973034:	2a1303e0 	mov	w0, w19
  973038:	97fffafc 	bl	971c28 <cm_init_context_by_index>
  97303c:	aa1503e0 	mov	x0, x21
  973040:	94001616 	bl	978898 <spin_unlock>
  973044:	2a1403e0 	mov	w0, w20
  973048:	a94153f3 	ldp	x19, x20, [sp, #16]
  97304c:	a9425bf5 	ldp	x21, x22, [sp, #32]
  973050:	a94363f7 	ldp	x23, x24, [sp, #48]
  973054:	a8c47bfd 	ldp	x29, x30, [sp], #64
  973058:	d65f03c0 	ret
  97305c:	2a1303e0 	mov	w0, w19
  973060:	94001600 	bl	978860 <_cpu_data_by_index>
  973064:	52800021 	mov	w1, #0x1                   	// #1
  973068:	b9001801 	str	w1, [x0, #24]
  97306c:	2a1303e0 	mov	w0, w19
  973070:	940015fc 	bl	978860 <_cpu_data_by_index>
  973074:	91006000 	add	x0, x0, #0x18
  973078:	d2800081 	mov	x1, #0x4                   	// #4
  97307c:	940013cc 	bl	977fac <flush_dcache_range>
  973080:	17ffffef 	b	97303c <psci_cpu_on_start+0x10c>
  973084:	12800074 	mov	w20, #0xfffffffc            	// #-4
  973088:	17ffffed 	b	97303c <psci_cpu_on_start+0x10c>
  97308c:	12800094 	mov	w20, #0xfffffffb            	// #-5
  973090:	17ffffeb 	b	97303c <psci_cpu_on_start+0x10c>

0000000000973094 <psci_cpu_on_finish>:
  973094:	a9bc7bfd 	stp	x29, x30, [sp, #-64]!
  973098:	910003fd 	mov	x29, sp
  97309c:	a9025bf5 	stp	x21, x22, [sp, #32]
  9730a0:	d0000036 	adrp	x22, 979000 <vprintf+0x2b4>
  9730a4:	aa0103f5 	mov	x21, x1
  9730a8:	a90153f3 	stp	x19, x20, [sp, #16]
  9730ac:	2a0003f4 	mov	w20, w0
  9730b0:	f946dad3 	ldr	x19, [x22, #3504]
  9730b4:	f9400260 	ldr	x0, [x19]
  9730b8:	f9401801 	ldr	x1, [x0, #48]
  9730bc:	aa1503e0 	mov	x0, x21
  9730c0:	f9001bf7 	str	x23, [sp, #48]
  9730c4:	d63f0020 	blr	x1
  9730c8:	94001605 	bl	9788dc <psci_do_pwrup_cache_maintenance>
  9730cc:	f9400260 	ldr	x0, [x19]
  9730d0:	aa1603f3 	mov	x19, x22
  9730d4:	f9401c01 	ldr	x1, [x0, #56]
  9730d8:	b4000061 	cbz	x1, 9730e4 <psci_cpu_on_finish+0x50>
  9730dc:	aa1503e0 	mov	x0, x21
  9730e0:	d63f0020 	blr	x1
  9730e4:	94000023 	bl	973170 <psci_arch_setup>
  9730e8:	d2800195 	mov	x21, #0xc                   	// #12
  9730ec:	f946a660 	ldr	x0, [x19, #3400]
  9730f0:	8b3452b5 	add	x21, x21, w20, uxtw #4
  9730f4:	8b0002b5 	add	x21, x21, x0
  9730f8:	aa1503e0 	mov	x0, x21
  9730fc:	940015df 	bl	978878 <spin_lock>
  973100:	aa1503e0 	mov	x0, x21
  973104:	940015e5 	bl	978898 <spin_unlock>
  973108:	f9470e60 	ldr	x0, [x19, #3608]
  97310c:	f9400000 	ldr	x0, [x0]
  973110:	b40000a0 	cbz	x0, 973124 <psci_cpu_on_finish+0x90>
  973114:	f9400c01 	ldr	x1, [x0, #24]
  973118:	b4000061 	cbz	x1, 973124 <psci_cpu_on_finish+0x90>
  97311c:	d2800000 	mov	x0, #0x0                   	// #0
  973120:	d63f0020 	blr	x1
  973124:	f946f675 	ldr	x21, [x19, #3560]
  973128:	f9470a77 	ldr	x23, [x19, #3600]
  97312c:	eb1702bf 	cmp	x21, x23
  973130:	54000183 	b.cc	973160 <psci_cpu_on_finish+0xcc>  // b.lo, b.ul, b.last
  973134:	d53800a0 	mrs	x0, mpidr_el1
  973138:	f946a673 	ldr	x19, [x19, #3400]
  97313c:	d37c7e94 	ubfiz	x20, x20, #4, #32
  973140:	92409c00 	and	x0, x0, #0xffffffffff
  973144:	9260dc00 	and	x0, x0, #0xffffffff00ffffff
  973148:	f8346a60 	str	x0, [x19, x20]
  97314c:	a94153f3 	ldp	x19, x20, [sp, #16]
  973150:	a9425bf5 	ldp	x21, x22, [sp, #32]
  973154:	f9401bf7 	ldr	x23, [sp, #48]
  973158:	a8c47bfd 	ldp	x29, x30, [sp], #64
  97315c:	d65f03c0 	ret
  973160:	f84086a1 	ldr	x1, [x21], #8
  973164:	d2800000 	mov	x0, #0x0                   	// #0
  973168:	d63f0020 	blr	x1
  97316c:	17fffff0 	b	97312c <psci_cpu_on_finish+0x98>

0000000000973170 <psci_arch_setup>:
  973170:	a9bf7bfd 	stp	x29, x30, [sp, #-16]!
  973174:	910003fd 	mov	x29, sp
  973178:	94001009 	bl	97719c <plat_get_syscnt_freq2>
  97317c:	2a0003e0 	mov	w0, w0
  973180:	d51be000 	msr	cntfrq_el0, x0
  973184:	940014cb 	bl	9784b0 <init_cpu_ops>
  973188:	a8c17bfd 	ldp	x29, x30, [sp], #16
  97318c:	17fffa22 	b	971a14 <print_errata_status>

0000000000973190 <psci_setup>:
  973190:	a9b87bfd 	stp	x29, x30, [sp, #-128]!
  973194:	910003fd 	mov	x29, sp
  973198:	a90573fb 	stp	x27, x28, [sp, #80]
  97319c:	d000003b 	adrp	x27, 979000 <vprintf+0x2b4>
  9731a0:	a90153f3 	stp	x19, x20, [sp, #16]
  9731a4:	52800013 	mov	w19, #0x0                   	// #0
  9731a8:	a9025bf5 	stp	x21, x22, [sp, #32]
  9731ac:	aa0003f5 	mov	x21, x0
  9731b0:	f0000056 	adrp	x22, 97e000 <__STACKS_START__+0x2340>
  9731b4:	a90363f7 	stp	x23, x24, [sp, #48]
  9731b8:	912802d6 	add	x22, x22, #0xa00
  9731bc:	52800017 	mov	w23, #0x0                   	// #0
  9731c0:	a9046bf9 	stp	x25, x26, [sp, #64]
  9731c4:	97ffffeb 	bl	973170 <psci_arch_setup>
  9731c8:	9400041a 	bl	974230 <plat_get_power_domain_tree_desc>
  9731cc:	f946a77c 	ldr	x28, [x27, #3400]
  9731d0:	aa0003fa 	mov	x26, x0
  9731d4:	52800001 	mov	w1, #0x0                   	// #0
  9731d8:	52800039 	mov	w25, #0x1                   	// #1
  9731dc:	52800058 	mov	w24, #0x2                   	// #2
  9731e0:	0b170324 	add	w4, w25, w23
  9731e4:	52800019 	mov	w25, #0x0                   	// #0
  9731e8:	14000009 	b	97320c <psci_setup+0x7c>
  9731ec:	38774b43 	ldrb	w3, [x26, w23, uxtw]
  9731f0:	2a0103f3 	mov	w19, w1
  9731f4:	0b010065 	add	w5, w3, w1
  9731f8:	6b05027f 	cmp	w19, w5
  9731fc:	54000d63 	b.cc	9733a8 <psci_setup+0x218>  // b.lo, b.ul, b.last
  973200:	0b030339 	add	w25, w25, w3
  973204:	110006f7 	add	w23, w23, #0x1
  973208:	2a1303e1 	mov	w1, w19
  97320c:	6b17009f 	cmp	w4, w23
  973210:	54fffee1 	b.ne	9731ec <psci_setup+0x5c>  // b.any
  973214:	71000718 	subs	w24, w24, #0x1
  973218:	540011c0 	b.eq	973450 <psci_setup+0x2c0>  // b.none
  97321c:	3100071f 	cmn	w24, #0x1
  973220:	54fffe01 	b.ne	9731e0 <psci_setup+0x50>  // b.any
  973224:	d0000021 	adrp	x1, 979000 <vprintf+0x2b4>
  973228:	9101e3f9 	add	x25, sp, #0x78
  97322c:	52800018 	mov	w24, #0x0                   	// #0
  973230:	52800017 	mov	w23, #0x0                   	// #0
  973234:	f946cc36 	ldr	x22, [x1, #3480]
  973238:	52800014 	mov	w20, #0x0                   	// #0
  97323c:	f946c03a 	ldr	x26, [x1, #3456]
  973240:	b90002d3 	str	w19, [x22]
  973244:	aa0103f3 	mov	x19, x1
  973248:	b94002c0 	ldr	w0, [x22]
  97324c:	6b00029f 	cmp	w20, w0
  973250:	54001043 	b.cc	973458 <psci_setup+0x2c8>  // b.lo, b.ul, b.last
  973254:	d53800b4 	mrs	x20, mpidr_el1
  973258:	940015dc 	bl	9789c8 <plat_my_core_pos>
  97325c:	d37c7c00 	ubfiz	x0, x0, #4, #32
  973260:	f946a662 	ldr	x2, [x19, #3400]
  973264:	92409e81 	and	x1, x20, #0xffffffffff
  973268:	9260dc21 	and	x1, x1, #0xffffffff00ffffff
  97326c:	f8206841 	str	x1, [x2, x0]
  973270:	97fffb9e 	bl	9720e8 <psci_init_req_local_pwr_states>
  973274:	52800040 	mov	w0, #0x2                   	// #2
  973278:	97fffc09 	bl	97229c <psci_set_pwr_domains_to_run>
  97327c:	f94006a0 	ldr	x0, [x21, #8]
  973280:	f946da73 	ldr	x19, [x19, #3504]
  973284:	aa1303e1 	mov	x1, x19
  973288:	94000fc8 	bl	9771a8 <plat_setup_psci_ops>
  97328c:	aa1303e0 	mov	x0, x19
  973290:	d2800101 	mov	x1, #0x8                   	// #8
  973294:	94001346 	bl	977fac <flush_dcache_range>
  973298:	f9400260 	ldr	x0, [x19]
  97329c:	52808223 	mov	w3, #0x411                 	// #1041
  9732a0:	f0000062 	adrp	x2, 982000 <imx_gicv3_ctx+0x1e90>
  9732a4:	f9400801 	ldr	x1, [x0, #16]
  9732a8:	f100003f 	cmp	x1, #0x0
  9732ac:	528082a1 	mov	w1, #0x415                 	// #1045
  9732b0:	1a831021 	csel	w1, w1, w3, ne  // ne = any
  9732b4:	b90ad441 	str	w1, [x2, #2772]
  9732b8:	f9400403 	ldr	x3, [x0, #8]
  9732bc:	b40000a3 	cbz	x3, 9732d0 <psci_setup+0x140>
  9732c0:	f9401803 	ldr	x3, [x0, #48]
  9732c4:	b4000063 	cbz	x3, 9732d0 <psci_setup+0x140>
  9732c8:	321d0021 	orr	w1, w1, #0x8
  9732cc:	b90ad441 	str	w1, [x2, #2772]
  9732d0:	f9401401 	ldr	x1, [x0, #40]
  9732d4:	b40001a1 	cbz	x1, 973308 <psci_setup+0x178>
  9732d8:	f9402001 	ldr	x1, [x0, #64]
  9732dc:	b4000161 	cbz	x1, 973308 <psci_setup+0x178>
  9732e0:	f9403001 	ldr	x1, [x0, #96]
  9732e4:	b4000081 	cbz	x1, 9732f4 <psci_setup+0x164>
  9732e8:	b94ad441 	ldr	w1, [x2, #2772]
  9732ec:	321f0021 	orr	w1, w1, #0x2
  9732f0:	b90ad441 	str	w1, [x2, #2772]
  9732f4:	f9403801 	ldr	x1, [x0, #112]
  9732f8:	b4000081 	cbz	x1, 973308 <psci_setup+0x178>
  9732fc:	b94ad441 	ldr	w1, [x2, #2772]
  973300:	32120021 	orr	w1, w1, #0x4000
  973304:	b90ad441 	str	w1, [x2, #2772]
  973308:	f9402801 	ldr	x1, [x0, #80]
  97330c:	b4000081 	cbz	x1, 97331c <psci_setup+0x18c>
  973310:	b94ad441 	ldr	w1, [x2, #2772]
  973314:	32180021 	orr	w1, w1, #0x100
  973318:	b90ad441 	str	w1, [x2, #2772]
  97331c:	f9402c01 	ldr	x1, [x0, #88]
  973320:	b4000081 	cbz	x1, 973330 <psci_setup+0x1a0>
  973324:	b94ad441 	ldr	w1, [x2, #2772]
  973328:	32170021 	orr	w1, w1, #0x200
  97332c:	b90ad441 	str	w1, [x2, #2772]
  973330:	f9404401 	ldr	x1, [x0, #136]
  973334:	b4000081 	cbz	x1, 973344 <psci_setup+0x1b4>
  973338:	b94ad441 	ldr	w1, [x2, #2772]
  97333c:	32130021 	orr	w1, w1, #0x2000
  973340:	b90ad441 	str	w1, [x2, #2772]
  973344:	f9404c01 	ldr	x1, [x0, #152]
  973348:	b40000c1 	cbz	x1, 973360 <psci_setup+0x1d0>
  97334c:	f9405001 	ldr	x1, [x0, #160]
  973350:	b4000081 	cbz	x1, 973360 <psci_setup+0x1d0>
  973354:	b94ad441 	ldr	w1, [x2, #2772]
  973358:	320d0021 	orr	w1, w1, #0x80000
  97335c:	b90ad441 	str	w1, [x2, #2772]
  973360:	f9404801 	ldr	x1, [x0, #144]
  973364:	b4000081 	cbz	x1, 973374 <psci_setup+0x1e4>
  973368:	b94ad441 	ldr	w1, [x2, #2772]
  97336c:	320c0021 	orr	w1, w1, #0x100000
  973370:	b90ad441 	str	w1, [x2, #2772]
  973374:	f9405400 	ldr	x0, [x0, #168]
  973378:	b4000080 	cbz	x0, 973388 <psci_setup+0x1f8>
  97337c:	b94ad440 	ldr	w0, [x2, #2772]
  973380:	320e0000 	orr	w0, w0, #0x40000
  973384:	b90ad440 	str	w0, [x2, #2772]
  973388:	52800000 	mov	w0, #0x0                   	// #0
  97338c:	a94153f3 	ldp	x19, x20, [sp, #16]
  973390:	a9425bf5 	ldp	x21, x22, [sp, #32]
  973394:	a94363f7 	ldp	x23, x24, [sp, #48]
  973398:	a9446bf9 	ldp	x25, x26, [sp, #64]
  97339c:	a94573fb 	ldp	x27, x28, [sp, #80]
  9733a0:	a8c87bfd 	ldp	x29, x30, [sp], #128
  9733a4:	d65f03c0 	ret
  9733a8:	510006e2 	sub	w2, w23, #0x1
  9733ac:	12003e74 	and	w20, w19, #0xffff
  9733b0:	34000198 	cbz	w24, 9733e0 <psci_setup+0x250>
  9733b4:	f946c361 	ldr	x1, [x27, #3456]
  9733b8:	d37c3e60 	ubfiz	x0, x19, #4, #16
  9733bc:	8b010000 	add	x0, x0, x1
  9733c0:	8b34d034 	add	x20, x1, w20, sxtw #4
  9733c4:	39003698 	strb	w24, [x20, #13]
  9733c8:	79001c13 	strh	w19, [x0, #14]
  9733cc:	52800080 	mov	w0, #0x4                   	// #4
  9733d0:	b9000a82 	str	w2, [x20, #8]
  9733d4:	39003280 	strb	w0, [x20, #12]
  9733d8:	11000673 	add	w19, w19, #0x1
  9733dc:	17ffff87 	b	9731f8 <psci_setup+0x68>
  9733e0:	937c7e80 	sbfiz	x0, x20, #4, #32
  9733e4:	8b34d381 	add	x1, x28, w20, sxtw #4
  9733e8:	290c8fe4 	stp	w4, w3, [sp, #100]
  9733ec:	b9006fe5 	str	w5, [sp, #108]
  9733f0:	b9000822 	str	w2, [x1, #8]
  9733f4:	92800001 	mov	x1, #0xffffffffffffffff    	// #-1
  9733f8:	f8206b81 	str	x1, [x28, x0]
  9733fc:	2a1403e0 	mov	w0, w20
  973400:	94001518 	bl	978860 <_cpu_data_by_index>
  973404:	aa0003e1 	mov	x1, x0
  973408:	91006000 	add	x0, x0, #0x18
  97340c:	52800022 	mov	w2, #0x1                   	// #1
  973410:	b90063e2 	str	w2, [sp, #96]
  973414:	b9001822 	str	w2, [x1, #24]
  973418:	52800061 	mov	w1, #0x3                   	// #3
  97341c:	b9000401 	str	w1, [x0, #4]
  973420:	52800081 	mov	w1, #0x4                   	// #4
  973424:	39002001 	strb	w1, [x0, #8]
  973428:	d2800181 	mov	x1, #0xc                   	// #12
  97342c:	940012e0 	bl	977fac <flush_dcache_range>
  973430:	52804801 	mov	w1, #0x240                 	// #576
  973434:	b94063e2 	ldr	w2, [sp, #96]
  973438:	2a1403e0 	mov	w0, w20
  97343c:	9ba15a81 	umaddl	x1, w20, w1, x22
  973440:	97fff36f 	bl	9701fc <cm_set_context_by_index>
  973444:	294c8fe4 	ldp	w4, w3, [sp, #100]
  973448:	b9406fe5 	ldr	w5, [sp, #108]
  97344c:	17ffffe3 	b	9733d8 <psci_setup+0x248>
  973450:	52800001 	mov	w1, #0x0                   	// #0
  973454:	17ffff63 	b	9731e0 <psci_setup+0x50>
  973458:	2a1403e0 	mov	w0, w20
  97345c:	aa1903e2 	mov	x2, x25
  973460:	52800041 	mov	w1, #0x2                   	// #2
  973464:	97fffb7c 	bl	972254 <psci_get_parent_pwr_domain_nodes>
  973468:	b9407fe4 	ldr	w4, [sp, #124]
  97346c:	6b04031f 	cmp	w24, w4
  973470:	2a0403e0 	mov	w0, w4
  973474:	54000060 	b.eq	973480 <psci_setup+0x2f0>  // b.none
  973478:	d37cec01 	lsl	x1, x0, #4
  97347c:	b8216b54 	str	w20, [x26, x1]
  973480:	f946c265 	ldr	x5, [x19, #3456]
  973484:	8b0010a0 	add	x0, x5, x0, lsl #4
  973488:	b9400401 	ldr	w1, [x0, #4]
  97348c:	11000421 	add	w1, w1, #0x1
  973490:	b9000401 	str	w1, [x0, #4]
  973494:	b9407be0 	ldr	w0, [sp, #120]
  973498:	6b0002ff 	cmp	w23, w0
  97349c:	2a0003e3 	mov	w3, w0
  9734a0:	54000060 	b.eq	9734ac <psci_setup+0x31c>  // b.none
  9734a4:	d37cec61 	lsl	x1, x3, #4
  9734a8:	b82168b4 	str	w20, [x5, x1]
  9734ac:	f946c261 	ldr	x1, [x19, #3456]
  9734b0:	11000694 	add	w20, w20, #0x1
  9734b4:	2a0403f8 	mov	w24, w4
  9734b8:	2a0003f7 	mov	w23, w0
  9734bc:	8b031021 	add	x1, x1, x3, lsl #4
  9734c0:	b9400423 	ldr	w3, [x1, #4]
  9734c4:	11000463 	add	w3, w3, #0x1
  9734c8:	b9000423 	str	w3, [x1, #4]
  9734cc:	17ffff5f 	b	973248 <psci_setup+0xb8>

00000000009734d0 <psci_cpu_suspend_start>:
  9734d0:	a9b87bfd 	stp	x29, x30, [sp, #-128]!
  9734d4:	910003fd 	mov	x29, sp
  9734d8:	a90153f3 	stp	x19, x20, [sp, #16]
  9734dc:	2a0103f4 	mov	w20, w1
  9734e0:	a9025bf5 	stp	x21, x22, [sp, #32]
  9734e4:	2a0303f6 	mov	w22, w3
  9734e8:	aa0203f5 	mov	x21, x2
  9734ec:	a90363f7 	stp	x23, x24, [sp, #48]
  9734f0:	a9046bf9 	stp	x25, x26, [sp, #64]
  9734f4:	9101c3f9 	add	x25, sp, #0x70
  9734f8:	aa0003fa 	mov	x26, x0
  9734fc:	a90573fb 	stp	x27, x28, [sp, #80]
  973500:	94001532 	bl	9789c8 <plat_my_core_pos>
  973504:	aa1903e2 	mov	x2, x25
  973508:	2a0003f8 	mov	w24, w0
  97350c:	2a1403e1 	mov	w1, w20
  973510:	f9003bff 	str	xzr, [sp, #112]
  973514:	97fffb50 	bl	972254 <psci_get_parent_pwr_domain_nodes>
  973518:	aa1903e1 	mov	x1, x25
  97351c:	2a1403e0 	mov	w0, w20
  973520:	97fffbeb 	bl	9724cc <psci_acquire_pwr_domain_locks>
  973524:	d538c100 	mrs	x0, isr_el1
  973528:	b50007a0 	cbnz	x0, 97361c <psci_cpu_suspend_start+0x14c>
  97352c:	aa1503e1 	mov	x1, x21
  973530:	2a1403e0 	mov	w0, w20
  973534:	97fffb7d 	bl	972328 <psci_do_state_coordination>
  973538:	d0000033 	adrp	x19, 979000 <vprintf+0x2b4>
  97353c:	aa1503e1 	mov	x1, x21
  973540:	2a1403e0 	mov	w0, w20
  973544:	97fffb23 	bl	9721d0 <psci_set_target_local_pwr_states>
  973548:	340003f6 	cbz	w22, 9735c4 <psci_cpu_suspend_start+0xf4>
  97354c:	aa1503e0 	mov	x0, x21
  973550:	97fffbbf 	bl	97244c <psci_find_max_off_lvl>
  973554:	f946de7b 	ldr	x27, [x19, #3512]
  973558:	2a0003f7 	mov	w23, w0
  97355c:	f9469a7c 	ldr	x28, [x19, #3376]
  973560:	eb1c037f 	cmp	x27, x28
  973564:	54000543 	b.cc	97360c <psci_cpu_suspend_start+0x13c>  // b.lo, b.ul, b.last
  973568:	d53ed040 	mrs	x0, tpidr_el3
  97356c:	b9001c14 	str	w20, [x0, #28]
  973570:	d53ed040 	mrs	x0, tpidr_el3
  973574:	d2800081 	mov	x1, #0x4                   	// #4
  973578:	91007000 	add	x0, x0, #0x1c
  97357c:	9400128c 	bl	977fac <flush_dcache_range>
  973580:	f9470e60 	ldr	x0, [x19, #3608]
  973584:	f9400000 	ldr	x0, [x0]
  973588:	b40000a0 	cbz	x0, 97359c <psci_cpu_suspend_start+0xcc>
  97358c:	f9400801 	ldr	x1, [x0, #16]
  973590:	b4000061 	cbz	x1, 97359c <psci_cpu_suspend_start+0xcc>
  973594:	2a1703e0 	mov	w0, w23
  973598:	d63f0020 	blr	x1
  97359c:	f946da60 	ldr	x0, [x19, #3504]
  9735a0:	f9400000 	ldr	x0, [x0]
  9735a4:	f9401001 	ldr	x1, [x0, #32]
  9735a8:	b4000061 	cbz	x1, 9735b4 <psci_cpu_suspend_start+0xe4>
  9735ac:	aa1503e0 	mov	x0, x21
  9735b0:	d63f0020 	blr	x1
  9735b4:	aa1a03e0 	mov	x0, x26
  9735b8:	97fff9a8 	bl	971c58 <cm_init_my_context>
  9735bc:	2a1703e0 	mov	w0, w23
  9735c0:	97fffc83 	bl	9727cc <psci_pwrdown_cpu>
  9735c4:	f946da73 	ldr	x19, [x19, #3504]
  9735c8:	f9400260 	ldr	x0, [x19]
  9735cc:	52800013 	mov	w19, #0x0                   	// #0
  9735d0:	f9401401 	ldr	x1, [x0, #40]
  9735d4:	aa1503e0 	mov	x0, x21
  9735d8:	d63f0020 	blr	x1
  9735dc:	aa1903e1 	mov	x1, x25
  9735e0:	2a1403e0 	mov	w0, w20
  9735e4:	97fffbd5 	bl	972538 <psci_release_pwr_domain_locks>
  9735e8:	35000513 	cbnz	w19, 973688 <psci_cpu_suspend_start+0x1b8>
  9735ec:	d0000033 	adrp	x19, 979000 <vprintf+0x2b4>
  9735f0:	340001d6 	cbz	w22, 973628 <psci_cpu_suspend_start+0x158>
  9735f4:	f946da64 	ldr	x4, [x19, #3504]
  9735f8:	f9400080 	ldr	x0, [x4]
  9735fc:	f9402401 	ldr	x1, [x0, #72]
  973600:	b4000121 	cbz	x1, 973624 <psci_cpu_suspend_start+0x154>
  973604:	aa1503e0 	mov	x0, x21
  973608:	d63f0020 	blr	x1
  97360c:	f8408761 	ldr	x1, [x27], #8
  973610:	d2800000 	mov	x0, #0x0                   	// #0
  973614:	d63f0020 	blr	x1
  973618:	17ffffd2 	b	973560 <psci_cpu_suspend_start+0x90>
  97361c:	52800033 	mov	w19, #0x1                   	// #1
  973620:	17ffffef 	b	9735dc <psci_cpu_suspend_start+0x10c>
  973624:	940014bb 	bl	978910 <psci_power_down_wfi>
  973628:	d503207f 	wfi
  97362c:	9101e3f5 	add	x21, sp, #0x78
  973630:	2a1403e1 	mov	w1, w20
  973634:	aa1503e2 	mov	x2, x21
  973638:	2a1803e0 	mov	w0, w24
  97363c:	f9003fff 	str	xzr, [sp, #120]
  973640:	97fffb05 	bl	972254 <psci_get_parent_pwr_domain_nodes>
  973644:	9101a3f6 	add	x22, sp, #0x68
  973648:	aa1503e1 	mov	x1, x21
  97364c:	2a1403e0 	mov	w0, w20
  973650:	97fffb9f 	bl	9724cc <psci_acquire_pwr_domain_locks>
  973654:	aa1603e1 	mov	x1, x22
  973658:	2a1403e0 	mov	w0, w20
  97365c:	97fffab9 	bl	972140 <psci_get_target_local_pwr_states>
  973660:	f946da64 	ldr	x4, [x19, #3504]
  973664:	f9400080 	ldr	x0, [x4]
  973668:	f9402001 	ldr	x1, [x0, #64]
  97366c:	aa1603e0 	mov	x0, x22
  973670:	d63f0020 	blr	x1
  973674:	2a1403e0 	mov	w0, w20
  973678:	97fffb09 	bl	97229c <psci_set_pwr_domains_to_run>
  97367c:	aa1503e1 	mov	x1, x21
  973680:	2a1403e0 	mov	w0, w20
  973684:	97fffbad 	bl	972538 <psci_release_pwr_domain_locks>
  973688:	52800000 	mov	w0, #0x0                   	// #0
  97368c:	a94153f3 	ldp	x19, x20, [sp, #16]
  973690:	a9425bf5 	ldp	x21, x22, [sp, #32]
  973694:	a94363f7 	ldp	x23, x24, [sp, #48]
  973698:	a9446bf9 	ldp	x25, x26, [sp, #64]
  97369c:	a94573fb 	ldp	x27, x28, [sp, #80]
  9736a0:	a8c87bfd 	ldp	x29, x30, [sp], #128
  9736a4:	d65f03c0 	ret

00000000009736a8 <psci_cpu_suspend_finish>:
  9736a8:	a9bd7bfd 	stp	x29, x30, [sp, #-48]!
  9736ac:	910003fd 	mov	x29, sp
  9736b0:	a90153f3 	stp	x19, x20, [sp, #16]
  9736b4:	d0000033 	adrp	x19, 979000 <vprintf+0x2b4>
  9736b8:	f946da60 	ldr	x0, [x19, #3504]
  9736bc:	a9025bf5 	stp	x21, x22, [sp, #32]
  9736c0:	aa0103f5 	mov	x21, x1
  9736c4:	f9400000 	ldr	x0, [x0]
  9736c8:	f9402001 	ldr	x1, [x0, #64]
  9736cc:	aa1503e0 	mov	x0, x21
  9736d0:	d63f0020 	blr	x1
  9736d4:	94001482 	bl	9788dc <psci_do_pwrup_cache_maintenance>
  9736d8:	94000eb1 	bl	97719c <plat_get_syscnt_freq2>
  9736dc:	2a0003e0 	mov	w0, w0
  9736e0:	d51be000 	msr	cntfrq_el0, x0
  9736e4:	f9470e76 	ldr	x22, [x19, #3608]
  9736e8:	aa1303f4 	mov	x20, x19
  9736ec:	f94002c0 	ldr	x0, [x22]
  9736f0:	b4000120 	cbz	x0, 973714 <psci_cpu_suspend_finish+0x6c>
  9736f4:	f9401000 	ldr	x0, [x0, #32]
  9736f8:	b40000e0 	cbz	x0, 973714 <psci_cpu_suspend_finish+0x6c>
  9736fc:	aa1503e0 	mov	x0, x21
  973700:	97fffb53 	bl	97244c <psci_find_max_off_lvl>
  973704:	f94002c1 	ldr	x1, [x22]
  973708:	2a0003e0 	mov	w0, w0
  97370c:	f9401021 	ldr	x1, [x1, #32]
  973710:	d63f0020 	blr	x1
  973714:	d53ed040 	mrs	x0, tpidr_el3
  973718:	f946fe95 	ldr	x21, [x20, #3576]
  97371c:	52800061 	mov	w1, #0x3                   	// #3
  973720:	f9468a94 	ldr	x20, [x20, #3344]
  973724:	b9001c01 	str	w1, [x0, #28]
  973728:	eb1402bf 	cmp	x21, x20
  97372c:	540000a3 	b.cc	973740 <psci_cpu_suspend_finish+0x98>  // b.lo, b.ul, b.last
  973730:	a94153f3 	ldp	x19, x20, [sp, #16]
  973734:	a9425bf5 	ldp	x21, x22, [sp, #32]
  973738:	a8c37bfd 	ldp	x29, x30, [sp], #48
  97373c:	d65f03c0 	ret
  973740:	f84086a1 	ldr	x1, [x21], #8
  973744:	d2800000 	mov	x0, #0x0                   	// #0
  973748:	d63f0020 	blr	x1
  97374c:	17fffff7 	b	973728 <psci_cpu_suspend_finish+0x80>

0000000000973750 <psci_system_off>:
  973750:	a9bf7bfd 	stp	x29, x30, [sp, #-16]!
  973754:	910003fd 	mov	x29, sp
  973758:	97fffc1c 	bl	9727c8 <psci_print_power_domain_map>
  97375c:	d0000020 	adrp	x0, 979000 <vprintf+0x2b4>
  973760:	f9470c00 	ldr	x0, [x0, #3608]
  973764:	f9400000 	ldr	x0, [x0]
  973768:	b4000080 	cbz	x0, 973778 <psci_system_off+0x28>
  97376c:	f9401c00 	ldr	x0, [x0, #56]
  973770:	b4000040 	cbz	x0, 973778 <psci_system_off+0x28>
  973774:	d63f0000 	blr	x0
  973778:	97fff859 	bl	9718dc <console_flush>
  97377c:	d0000020 	adrp	x0, 979000 <vprintf+0x2b4>
  973780:	f946d800 	ldr	x0, [x0, #3504]
  973784:	f9400000 	ldr	x0, [x0]
  973788:	f9402800 	ldr	x0, [x0, #80]
  97378c:	d63f0000 	blr	x0

0000000000973790 <psci_system_reset>:
  973790:	a9bf7bfd 	stp	x29, x30, [sp, #-16]!
  973794:	910003fd 	mov	x29, sp
  973798:	97fffc0c 	bl	9727c8 <psci_print_power_domain_map>
  97379c:	d0000020 	adrp	x0, 979000 <vprintf+0x2b4>
  9737a0:	f9470c00 	ldr	x0, [x0, #3608]
  9737a4:	f9400000 	ldr	x0, [x0]
  9737a8:	b4000080 	cbz	x0, 9737b8 <psci_system_reset+0x28>
  9737ac:	f9402000 	ldr	x0, [x0, #64]
  9737b0:	b4000040 	cbz	x0, 9737b8 <psci_system_reset+0x28>
  9737b4:	d63f0000 	blr	x0
  9737b8:	97fff849 	bl	9718dc <console_flush>
  9737bc:	d0000020 	adrp	x0, 979000 <vprintf+0x2b4>
  9737c0:	f946d800 	ldr	x0, [x0, #3504]
  9737c4:	f9400000 	ldr	x0, [x0]
  9737c8:	f9402c00 	ldr	x0, [x0, #88]
  9737cc:	d63f0000 	blr	x0

00000000009737d0 <psci_system_reset2>:
  9737d0:	a9bd7bfd 	stp	x29, x30, [sp, #-48]!
  9737d4:	910003fd 	mov	x29, sp
  9737d8:	a90153f3 	stp	x19, x20, [sp, #16]
  9737dc:	2a0003f3 	mov	w19, w0
  9737e0:	aa0103f4 	mov	x20, x1
  9737e4:	f90013f5 	str	x21, [sp, #32]
  9737e8:	531f7e75 	lsr	w21, w19, #31
  9737ec:	97fffbf7 	bl	9727c8 <psci_print_power_domain_map>
  9737f0:	36f80273 	tbz	w19, #31, 97383c <psci_system_reset2+0x6c>
  9737f4:	d0000023 	adrp	x3, 979000 <vprintf+0x2b4>
  9737f8:	f9470c63 	ldr	x3, [x3, #3608]
  9737fc:	f9400060 	ldr	x0, [x3]
  973800:	b5000340 	cbnz	x0, 973868 <psci_system_reset2+0x98>
  973804:	97fff836 	bl	9718dc <console_flush>
  973808:	d0000023 	adrp	x3, 979000 <vprintf+0x2b4>
  97380c:	aa1403e2 	mov	x2, x20
  973810:	2a1303e1 	mov	w1, w19
  973814:	f946d863 	ldr	x3, [x3, #3504]
  973818:	f9400060 	ldr	x0, [x3]
  97381c:	f9405403 	ldr	x3, [x0, #168]
  973820:	2a1503e0 	mov	w0, w21
  973824:	d63f0060 	blr	x3
  973828:	93407c00 	sxtw	x0, w0
  97382c:	a94153f3 	ldp	x19, x20, [sp, #16]
  973830:	f94013f5 	ldr	x21, [sp, #32]
  973834:	a8c37bfd 	ldp	x29, x30, [sp], #48
  973838:	d65f03c0 	ret
  97383c:	350001f3 	cbnz	w19, 973878 <psci_system_reset2+0xa8>
  973840:	d0000023 	adrp	x3, 979000 <vprintf+0x2b4>
  973844:	f946d863 	ldr	x3, [x3, #3504]
  973848:	f9400060 	ldr	x0, [x3]
  97384c:	f9405001 	ldr	x1, [x0, #160]
  973850:	b4fffd21 	cbz	x1, 9737f4 <psci_system_reset2+0x24>
  973854:	52800000 	mov	w0, #0x0                   	// #0
  973858:	d63f0020 	blr	x1
  97385c:	36fffcc0 	tbz	w0, #31, 9737f4 <psci_system_reset2+0x24>
  973860:	92800000 	mov	x0, #0xffffffffffffffff    	// #-1
  973864:	17fffff2 	b	97382c <psci_system_reset2+0x5c>
  973868:	f9402000 	ldr	x0, [x0, #64]
  97386c:	b4fffcc0 	cbz	x0, 973804 <psci_system_reset2+0x34>
  973870:	d63f0000 	blr	x0
  973874:	17ffffe4 	b	973804 <psci_system_reset2+0x34>
  973878:	92800020 	mov	x0, #0xfffffffffffffffe    	// #-2
  97387c:	17ffffec 	b	97382c <psci_system_reset2+0x5c>

0000000000973880 <xlat_arch_get_pas>:
  973880:	121c0400 	and	w0, w0, #0x30
  973884:	7100401f 	cmp	w0, #0x10
  973888:	1a9f17e0 	cset	w0, eq  // eq = none
  97388c:	531b6800 	lsl	w0, w0, #5
  973890:	d65f03c0 	ret

0000000000973894 <tcr_physical_addr_size_bits>:
  973894:	f2540c1f 	tst	x0, #0xf00000000000
  973898:	54000141 	b.ne	9738c0 <tcr_physical_addr_size_bits+0x2c>  // b.any
  97389c:	f256041f 	tst	x0, #0xc0000000000
  9738a0:	54000141 	b.ne	9738c8 <tcr_physical_addr_size_bits+0x34>  // b.any
  9738a4:	f258041f 	tst	x0, #0x30000000000
  9738a8:	54000141 	b.ne	9738d0 <tcr_physical_addr_size_bits+0x3c>  // b.any
  9738ac:	f25c0c1f 	tst	x0, #0xf000000000
  9738b0:	54000141 	b.ne	9738d8 <tcr_physical_addr_size_bits+0x44>  // b.any
  9738b4:	f2600c1f 	tst	x0, #0xf00000000
  9738b8:	9a9f07e0 	cset	x0, ne  // ne = any
  9738bc:	d65f03c0 	ret
  9738c0:	d28000a0 	mov	x0, #0x5                   	// #5
  9738c4:	17fffffe 	b	9738bc <tcr_physical_addr_size_bits+0x28>
  9738c8:	d2800080 	mov	x0, #0x4                   	// #4
  9738cc:	17fffffc 	b	9738bc <tcr_physical_addr_size_bits+0x28>
  9738d0:	d2800060 	mov	x0, #0x3                   	// #3
  9738d4:	17fffffa 	b	9738bc <tcr_physical_addr_size_bits+0x28>
  9738d8:	d2800040 	mov	x0, #0x2                   	// #2
  9738dc:	17fffff8 	b	9738bc <tcr_physical_addr_size_bits+0x28>

00000000009738e0 <is_dcache_enabled>:
  9738e0:	d53e1000 	mrs	x0, sctlr_el3
  9738e4:	53020800 	ubfx	w0, w0, #2, #1
  9738e8:	d65f03c0 	ret

00000000009738ec <xlat_arch_regime_get_xn_desc>:
  9738ec:	7100041f 	cmp	w0, #0x1
  9738f0:	d2e00c01 	mov	x1, #0x60000000000000      	// #27021597764222976
  9738f4:	d2e00800 	mov	x0, #0x40000000000000      	// #18014398509481984
  9738f8:	9a800020 	csel	x0, x1, x0, eq  // eq = none
  9738fc:	d65f03c0 	ret

0000000000973900 <xlat_arch_current_el>:
  973900:	d5384240 	mrs	x0, currentel
  973904:	53020c00 	ubfx	w0, w0, #2, #2
  973908:	d65f03c0 	ret

000000000097390c <setup_mmu_cfg>:
  97390c:	91000484 	add	x4, x4, #0x1
  973910:	a9bf7bfd 	stp	x29, x30, [sp, #-16]!
  973914:	dac00087 	rbit	x7, x4
  973918:	910003fd 	mov	x29, sp
  97391c:	dac010e7 	clz	x7, x7
  973920:	aa0003e6 	mov	x6, x0
  973924:	52800804 	mov	w4, #0x40                  	// #64
  973928:	aa0303e0 	mov	x0, x3
  97392c:	4b070084 	sub	w4, w4, w7
  973930:	37080061 	tbnz	w1, #1, 97393c <setup_mmu_cfg+0x30>
  973934:	5286a001 	mov	w1, #0x3500                	// #13568
  973938:	2a010084 	orr	w4, w4, w1
  97393c:	93407c84 	sxtw	x4, w4
  973940:	97ffffd5 	bl	973894 <tcr_physical_addr_size_bits>
  973944:	aa008083 	orr	x3, x4, x0, lsl #32
  973948:	aa004081 	orr	x1, x4, x0, lsl #16
  97394c:	b2690063 	orr	x3, x3, #0x800000
  973950:	d2b01000 	mov	x0, #0x80800000            	// #2155872256
  973954:	710004bf 	cmp	w5, #0x1
  973958:	aa000021 	orr	x1, x1, x0
  97395c:	9a831021 	csel	x1, x1, x3, ne  // ne = any
  973960:	d5380740 	mrs	x0, id_aa64mmfr2_el1
  973964:	f2400c1f 	tst	x0, #0xf
  973968:	54000040 	b.eq	973970 <setup_mmu_cfg+0x64>  // b.none
  97396c:	b2400042 	orr	x2, x2, #0x1
  973970:	d2809fe0 	mov	x0, #0x4ff                 	// #1279
  973974:	a8c17bfd 	ldp	x29, x30, [sp], #16
  973978:	f2a00880 	movk	x0, #0x44, lsl #16
  97397c:	a90004c0 	stp	x0, x1, [x6]
  973980:	f90008c2 	str	x2, [x6, #16]
  973984:	d65f03c0 	ret

0000000000973988 <mmap_add>:
  973988:	aa0003e1 	mov	x1, x0
  97398c:	90000040 	adrp	x0, 97b000 <__RO_END__>
  973990:	91004000 	add	x0, x0, #0x10
  973994:	14000182 	b	973f9c <mmap_add_ctx>

0000000000973998 <init_xlat_tables>:
  973998:	a9bf7bfd 	stp	x29, x30, [sp, #-16]!
  97399c:	910003fd 	mov	x29, sp
  9739a0:	97ffffd8 	bl	973900 <xlat_arch_current_el>
  9739a4:	7100041f 	cmp	w0, #0x1
  9739a8:	54000120 	b.eq	9739cc <init_xlat_tables+0x34>  // b.none
  9739ac:	7100081f 	cmp	w0, #0x2
  9739b0:	1a9f07e0 	cset	w0, ne  // ne = any
  9739b4:	11000801 	add	w1, w0, #0x2
  9739b8:	90000040 	adrp	x0, 97b000 <__RO_END__>
  9739bc:	91004000 	add	x0, x0, #0x10
  9739c0:	b9005801 	str	w1, [x0, #88]
  9739c4:	a8c17bfd 	ldp	x29, x30, [sp], #16
  9739c8:	14000184 	b	973fd8 <init_xlat_tables_ctx>
  9739cc:	2a0003e1 	mov	w1, w0
  9739d0:	17fffffa 	b	9739b8 <init_xlat_tables+0x20>

00000000009739d4 <enable_mmu_el3>:
  9739d4:	90000042 	adrp	x2, 97b000 <__RO_END__>
  9739d8:	91004042 	add	x2, x2, #0x10
  9739dc:	a9be7bfd 	stp	x29, x30, [sp, #-32]!
  9739e0:	2a0003e1 	mov	w1, w0
  9739e4:	52800065 	mov	w5, #0x3                   	// #3
  9739e8:	910003fd 	mov	x29, sp
  9739ec:	f9400444 	ldr	x4, [x2, #8]
  9739f0:	f9402043 	ldr	x3, [x2, #64]
  9739f4:	f9401842 	ldr	x2, [x2, #48]
  9739f8:	f9000bf3 	str	x19, [sp, #16]
  9739fc:	2a0003f3 	mov	w19, w0
  973a00:	90000060 	adrp	x0, 97f000 <psci_ns_context+0x600>
  973a04:	91364000 	add	x0, x0, #0xd90
  973a08:	97ffffc1 	bl	97390c <setup_mmu_cfg>
  973a0c:	2a1303e0 	mov	w0, w19
  973a10:	f9400bf3 	ldr	x19, [sp, #16]
  973a14:	a8c27bfd 	ldp	x29, x30, [sp], #32
  973a18:	140013c1 	b	97891c <enable_mmu_direct_el3>

0000000000973a1c <xlat_clean_dcache_range>:
  973a1c:	a9be7bfd 	stp	x29, x30, [sp, #-32]!
  973a20:	910003fd 	mov	x29, sp
  973a24:	a90153f3 	stp	x19, x20, [sp, #16]
  973a28:	aa0003f3 	mov	x19, x0
  973a2c:	aa0103f4 	mov	x20, x1
  973a30:	97ffffac 	bl	9738e0 <is_dcache_enabled>
  973a34:	72001c1f 	tst	w0, #0xff
  973a38:	540000c0 	b.eq	973a50 <xlat_clean_dcache_range+0x34>  // b.none
  973a3c:	aa1403e1 	mov	x1, x20
  973a40:	aa1303e0 	mov	x0, x19
  973a44:	a94153f3 	ldp	x19, x20, [sp, #16]
  973a48:	a8c27bfd 	ldp	x29, x30, [sp], #32
  973a4c:	14001166 	b	977fe4 <clean_dcache_range>
  973a50:	a94153f3 	ldp	x19, x20, [sp, #16]
  973a54:	a8c27bfd 	ldp	x29, x30, [sp], #32
  973a58:	d65f03c0 	ret

0000000000973a5c <xlat_desc>:
  973a5c:	a9bc7bfd 	stp	x29, x30, [sp, #-64]!
  973a60:	71000c7f 	cmp	w3, #0x3
  973a64:	910003fd 	mov	x29, sp
  973a68:	a90153f3 	stp	x19, x20, [sp, #16]
  973a6c:	2a0103f4 	mov	w20, w1
  973a70:	d27d0293 	eor	x19, x20, #0x8
  973a74:	a9025bf5 	stp	x21, x22, [sp, #32]
  973a78:	aa0003f5 	mov	x21, x0
  973a7c:	d3430e73 	ubfx	x19, x19, #3, #1
  973a80:	2a0103e0 	mov	w0, w1
  973a84:	d2800076 	mov	x22, #0x3                   	// #3
  973a88:	9a9f06d6 	csinc	x22, x22, xzr, eq  // eq = none
  973a8c:	f9001bf7 	str	x23, [sp, #48]
  973a90:	aa0203f7 	mov	x23, x2
  973a94:	97ffff7b 	bl	973880 <xlat_arch_get_pas>
  973a98:	2a0003e1 	mov	w1, w0
  973a9c:	b9405aa0 	ldr	w0, [x21, #88]
  973aa0:	aa131ef3 	orr	x19, x23, x19, lsl #7
  973aa4:	aa160021 	orr	x1, x1, x22
  973aa8:	aa010273 	orr	x19, x19, x1
  973aac:	7100041f 	cmp	w0, #0x1
  973ab0:	540001a1 	b.ne	973ae4 <xlat_desc+0x88>  // b.any
  973ab4:	b2760261 	orr	x1, x19, #0x400
  973ab8:	f279029f 	tst	x20, #0x80
  973abc:	d2808802 	mov	x2, #0x440                 	// #1088
  973ac0:	aa020273 	orr	x19, x19, x2
  973ac4:	9a811273 	csel	x19, x19, x1, ne  // ne = any
  973ac8:	72000a95 	ands	w21, w20, #0x7
  973acc:	54000121 	b.ne	973af0 <xlat_desc+0x94>  // b.any
  973ad0:	97ffff87 	bl	9738ec <xlat_arch_regime_get_xn_desc>
  973ad4:	aa000273 	orr	x19, x19, x0
  973ad8:	d2804080 	mov	x0, #0x204                 	// #516
  973adc:	aa000273 	orr	x19, x19, x0
  973ae0:	14000012 	b	973b28 <xlat_desc+0xcc>
  973ae4:	d2808801 	mov	x1, #0x440                 	// #1088
  973ae8:	aa010273 	orr	x19, x19, x1
  973aec:	17fffff7 	b	973ac8 <xlat_desc+0x6c>
  973af0:	52800901 	mov	w1, #0x48                  	// #72
  973af4:	6a01029f 	tst	w20, w1
  973af8:	54000060 	b.eq	973b04 <xlat_desc+0xa8>  // b.none
  973afc:	97ffff7c 	bl	9738ec <xlat_arch_regime_get_xn_desc>
  973b00:	aa000273 	orr	x19, x19, x0
  973b04:	71000abf 	cmp	w21, #0x2
  973b08:	540001c1 	b.ne	973b40 <xlat_desc+0xe4>  // b.any
  973b0c:	12180694 	and	w20, w20, #0x300
  973b10:	710c029f 	cmp	w20, #0x300
  973b14:	540000a0 	b.eq	973b28 <xlat_desc+0xcc>  // b.none
  973b18:	b2770260 	orr	x0, x19, #0x200
  973b1c:	7108029f 	cmp	w20, #0x200
  973b20:	b2780673 	orr	x19, x19, #0x300
  973b24:	9a801273 	csel	x19, x19, x0, ne  // ne = any
  973b28:	aa1303e0 	mov	x0, x19
  973b2c:	a94153f3 	ldp	x19, x20, [sp, #16]
  973b30:	a9425bf5 	ldp	x21, x22, [sp, #32]
  973b34:	f9401bf7 	ldr	x23, [sp, #48]
  973b38:	a8c47bfd 	ldp	x29, x30, [sp], #64
  973b3c:	d65f03c0 	ret
  973b40:	d2804100 	mov	x0, #0x208                 	// #520
  973b44:	17ffffe6 	b	973adc <xlat_desc+0x80>

0000000000973b48 <xlat_tables_map_region>:
  973b48:	a9b77bfd 	stp	x29, x30, [sp, #-144]!
  973b4c:	910003fd 	mov	x29, sp
  973b50:	a9025bf5 	stp	x21, x22, [sp, #32]
  973b54:	92800016 	mov	x22, #0xffffffffffffffff    	// #-1
  973b58:	a90573fb 	stp	x27, x28, [sp, #80]
  973b5c:	aa0003fb 	mov	x27, x0
  973b60:	2a0503fc 	mov	w28, w5
  973b64:	a940d420 	ldp	x0, x21, [x1, #8]
  973b68:	a90153f3 	stp	x19, x20, [sp, #16]
  973b6c:	12800114 	mov	w20, #0xfffffff7            	// #-9
  973b70:	a90363f7 	stp	x23, x24, [sp, #48]
  973b74:	d2800037 	mov	x23, #0x1                   	// #1
  973b78:	1b147cb4 	mul	w20, w5, w20
  973b7c:	a9046bf9 	stp	x25, x26, [sp, #64]
  973b80:	aa0103fa 	mov	x26, x1
  973b84:	11009e94 	add	w20, w20, #0x27
  973b88:	8b150015 	add	x21, x0, x21
  973b8c:	eb02001f 	cmp	x0, x2
  973b90:	d10006a1 	sub	x1, x21, #0x1
  973b94:	f9003be1 	str	x1, [sp, #112]
  973b98:	9ad422e1 	lsl	x1, x23, x20
  973b9c:	cb0103f3 	neg	x19, x1
  973ba0:	8a000273 	and	x19, x19, x0
  973ba4:	110004b7 	add	w23, w5, #0x1
  973ba8:	9a828273 	csel	x19, x19, x2, hi  // hi = pmore
  973bac:	9ad422d6 	lsl	x22, x22, x20
  973bb0:	cb020266 	sub	x6, x19, x2
  973bb4:	aa1303f8 	mov	x24, x19
  973bb8:	aa3603e0 	mvn	x0, x22
  973bbc:	f90037e1 	str	x1, [sp, #104]
  973bc0:	9ad424c6 	lsr	x6, x6, x20
  973bc4:	f9003fe0 	str	x0, [sp, #120]
  973bc8:	8b264c75 	add	x21, x3, w6, uxtw #3
  973bcc:	b90083e6 	str	w6, [sp, #128]
  973bd0:	b90087e4 	str	w4, [sp, #132]
  973bd4:	295007e0 	ldp	w0, w1, [sp, #128]
  973bd8:	6b01001f 	cmp	w0, w1
  973bdc:	540003c2 	b.cs	973c54 <xlat_tables_map_region+0x10c>  // b.hs, b.nlast
  973be0:	a9401342 	ldp	x2, x4, [x26]
  973be4:	f9400b41 	ldr	x1, [x26, #16]
  973be8:	f94037e5 	ldr	x5, [sp, #104]
  973bec:	f94002a3 	ldr	x3, [x21]
  973bf0:	8b010081 	add	x1, x4, x1
  973bf4:	8b050279 	add	x25, x19, x5
  973bf8:	d1000421 	sub	x1, x1, #0x1
  973bfc:	12000460 	and	w0, w3, #0x3
  973c00:	eb18009f 	cmp	x4, x24
  973c04:	d1000736 	sub	x22, x25, #0x1
  973c08:	540007c8 	b.hi	973d00 <xlat_tables_map_region+0x1b8>  // b.pmore
  973c0c:	eb16003f 	cmp	x1, x22
  973c10:	54000783 	b.cc	973d00 <xlat_tables_map_region+0x1b8>  // b.lo, b.ul, b.last
  973c14:	cb040042 	sub	x2, x2, x4
  973c18:	8b130042 	add	x2, x2, x19
  973c1c:	71000f9f 	cmp	w28, #0x3
  973c20:	540001e1 	b.ne	973c5c <xlat_tables_map_region+0x114>  // b.any
  973c24:	71000c1f 	cmp	w0, #0x3
  973c28:	54000941 	b.ne	973d50 <xlat_tables_map_region+0x208>  // b.any
  973c2c:	b94083e0 	ldr	w0, [sp, #128]
  973c30:	910022b5 	add	x21, x21, #0x8
  973c34:	aa1903f3 	mov	x19, x25
  973c38:	11000400 	add	w0, w0, #0x1
  973c3c:	b90083e0 	str	w0, [sp, #128]
  973c40:	f94037e0 	ldr	x0, [sp, #104]
  973c44:	8b000318 	add	x24, x24, x0
  973c48:	f9403be0 	ldr	x0, [sp, #112]
  973c4c:	eb19001f 	cmp	x0, x25
  973c50:	54fffc28 	b.hi	973bd4 <xlat_tables_map_region+0x8c>  // b.pmore
  973c54:	d1000673 	sub	x19, x19, #0x1
  973c58:	14000022 	b	973ce0 <xlat_tables_map_region+0x198>
  973c5c:	71000c1f 	cmp	w0, #0x3
  973c60:	540005a0 	b.eq	973d14 <xlat_tables_map_region+0x1cc>  // b.none
  973c64:	35fffe40 	cbnz	w0, 973c2c <xlat_tables_map_region+0xe4>
  973c68:	f9403fe0 	ldr	x0, [sp, #120]
  973c6c:	ea00005f 	tst	x2, x0
  973c70:	540000a1 	b.ne	973c84 <xlat_tables_map_region+0x13c>  // b.any
  973c74:	3400009c 	cbz	w28, 973c84 <xlat_tables_map_region+0x13c>
  973c78:	f9401340 	ldr	x0, [x26, #32]
  973c7c:	9ad42400 	lsr	x0, x0, x20
  973c80:	b5000680 	cbnz	x0, 973d50 <xlat_tables_map_region+0x208>
  973c84:	b9402f60 	ldr	w0, [x27, #44]
  973c88:	f9401363 	ldr	x3, [x27, #32]
  973c8c:	11000401 	add	w1, w0, #0x1
  973c90:	b9002f61 	str	w1, [x27, #44]
  973c94:	93747c00 	sbfiz	x0, x0, #12, #32
  973c98:	ab000063 	adds	x3, x3, x0
  973c9c:	54000220 	b.eq	973ce0 <xlat_tables_map_region+0x198>  // b.none
  973ca0:	b2400460 	orr	x0, x3, #0x3
  973ca4:	f90002a0 	str	x0, [x21]
  973ca8:	aa1303e2 	mov	x2, x19
  973cac:	2a1703e5 	mov	w5, w23
  973cb0:	aa1a03e1 	mov	x1, x26
  973cb4:	52804004 	mov	w4, #0x200                 	// #512
  973cb8:	aa1b03e0 	mov	x0, x27
  973cbc:	f90047e3 	str	x3, [sp, #136]
  973cc0:	97ffffa2 	bl	973b48 <xlat_tables_map_region>
  973cc4:	aa0003f3 	mov	x19, x0
  973cc8:	f94047e3 	ldr	x3, [sp, #136]
  973ccc:	d2820001 	mov	x1, #0x1000                	// #4096
  973cd0:	aa0303e0 	mov	x0, x3
  973cd4:	97ffff52 	bl	973a1c <xlat_clean_dcache_range>
  973cd8:	eb1302df 	cmp	x22, x19
  973cdc:	54fffa80 	b.eq	973c2c <xlat_tables_map_region+0xe4>  // b.none
  973ce0:	aa1303e0 	mov	x0, x19
  973ce4:	a94153f3 	ldp	x19, x20, [sp, #16]
  973ce8:	a9425bf5 	ldp	x21, x22, [sp, #32]
  973cec:	a94363f7 	ldp	x23, x24, [sp, #48]
  973cf0:	a9446bf9 	ldp	x25, x26, [sp, #64]
  973cf4:	a94573fb 	ldp	x27, x28, [sp, #80]
  973cf8:	a8c97bfd 	ldp	x29, x30, [sp], #144
  973cfc:	d65f03c0 	ret
  973d00:	eb16009f 	cmp	x4, x22
  973d04:	54000069 	b.ls	973d10 <xlat_tables_map_region+0x1c8>  // b.plast
  973d08:	eb01031f 	cmp	x24, x1
  973d0c:	54fff908 	b.hi	973c2c <xlat_tables_map_region+0xe4>  // b.pmore
  973d10:	34fffba0 	cbz	w0, 973c84 <xlat_tables_map_region+0x13c>
  973d14:	92748c63 	and	x3, x3, #0xfffffffff000
  973d18:	aa1303e2 	mov	x2, x19
  973d1c:	2a1703e5 	mov	w5, w23
  973d20:	aa1a03e1 	mov	x1, x26
  973d24:	52804004 	mov	w4, #0x200                 	// #512
  973d28:	aa1b03e0 	mov	x0, x27
  973d2c:	f90047e3 	str	x3, [sp, #136]
  973d30:	97ffff86 	bl	973b48 <xlat_tables_map_region>
  973d34:	f94047e3 	ldr	x3, [sp, #136]
  973d38:	aa0003f3 	mov	x19, x0
  973d3c:	d2820001 	mov	x1, #0x1000                	// #4096
  973d40:	aa0303e0 	mov	x0, x3
  973d44:	97ffff36 	bl	973a1c <xlat_clean_dcache_range>
  973d48:	eb16027f 	cmp	x19, x22
  973d4c:	17ffffe4 	b	973cdc <xlat_tables_map_region+0x194>
  973d50:	b9401b41 	ldr	w1, [x26, #24]
  973d54:	2a1c03e3 	mov	w3, w28
  973d58:	aa1b03e0 	mov	x0, x27
  973d5c:	97ffff40 	bl	973a5c <xlat_desc>
  973d60:	f90002a0 	str	x0, [x21]
  973d64:	17ffffb2 	b	973c2c <xlat_tables_map_region+0xe4>

0000000000973d68 <mmap_add_region_ctx>:
  973d68:	a9bc7bfd 	stp	x29, x30, [sp, #-64]!
  973d6c:	910003fd 	mov	x29, sp
  973d70:	a9025bf5 	stp	x21, x22, [sp, #32]
  973d74:	aa0103f6 	mov	x22, x1
  973d78:	b9401809 	ldr	w9, [x0, #24]
  973d7c:	f9400025 	ldr	x5, [x1]
  973d80:	a90153f3 	stp	x19, x20, [sp, #16]
  973d84:	aa0003f3 	mov	x19, x0
  973d88:	f9400821 	ldr	x1, [x1, #16]
  973d8c:	f9400802 	ldr	x2, [x0, #16]
  973d90:	f94006c0 	ldr	x0, [x22, #8]
  973d94:	f9001bf7 	str	x23, [sp, #48]
  973d98:	b40008c1 	cbz	x1, 973eb0 <mmap_add_region_ctx+0x148>
  973d9c:	aa0100a4 	orr	x4, x5, x1
  973da0:	aa000084 	orr	x4, x4, x0
  973da4:	f94012c3 	ldr	x3, [x22, #32]
  973da8:	f2402c9f 	tst	x4, #0xfff
  973dac:	54000d41 	b.ne	973f54 <mmap_add_region_ctx+0x1ec>  // b.any
  973db0:	f148007f 	cmp	x3, #0x200, lsl #12
  973db4:	d2a80004 	mov	x4, #0x40000000            	// #1073741824
  973db8:	fa441064 	ccmp	x3, x4, #0x4, ne  // ne = any
  973dbc:	54000060 	b.eq	973dc8 <mmap_add_region_ctx+0x60>  // b.none
  973dc0:	f140047f 	cmp	x3, #0x1, lsl #12
  973dc4:	54000c81 	b.ne	973f54 <mmap_add_region_ctx+0x1ec>  // b.any
  973dc8:	8b0100b5 	add	x21, x5, x1
  973dcc:	8b00002a 	add	x10, x1, x0
  973dd0:	d10006b5 	sub	x21, x21, #0x1
  973dd4:	d1000554 	sub	x20, x10, #0x1
  973dd8:	eb1500bf 	cmp	x5, x21
  973ddc:	fa549002 	ccmp	x0, x20, #0x2, ls  // ls = plast
  973de0:	54000ca8 	b.hi	973f74 <mmap_add_region_ctx+0x20c>  // b.pmore
  973de4:	f9400663 	ldr	x3, [x19, #8]
  973de8:	eb03029f 	cmp	x20, x3
  973dec:	54000c48 	b.hi	973f74 <mmap_add_region_ctx+0x20c>  // b.pmore
  973df0:	f9400263 	ldr	x3, [x19]
  973df4:	eb0302bf 	cmp	x21, x3
  973df8:	54000be8 	b.hi	973f74 <mmap_add_region_ctx+0x20c>  // b.pmore
  973dfc:	52800503 	mov	w3, #0x28                  	// #40
  973e00:	9b230929 	smaddl	x9, w9, w3, x2
  973e04:	f85e8123 	ldur	x3, [x9, #-24]
  973e08:	b5000ba3 	cbnz	x3, 973f7c <mmap_add_region_ctx+0x214>
  973e0c:	aa0203e6 	mov	x6, x2
  973e10:	cb05000b 	sub	x11, x0, x5
  973e14:	f94008c3 	ldr	x3, [x6, #16]
  973e18:	b5000563 	cbnz	x3, 973ec4 <mmap_add_region_ctx+0x15c>
  973e1c:	aa0203e3 	mov	x3, x2
  973e20:	a9409464 	ldp	x4, x5, [x3, #8]
  973e24:	aa0303e0 	mov	x0, x3
  973e28:	9100a063 	add	x3, x3, #0x28
  973e2c:	8b0400a4 	add	x4, x5, x4
  973e30:	d1000484 	sub	x4, x4, #0x1
  973e34:	eb14009f 	cmp	x4, x20
  973e38:	54000042 	b.cs	973e40 <mmap_add_region_ctx+0xd8>  // b.hs, b.nlast
  973e3c:	b5ffff25 	cbnz	x5, 973e20 <mmap_add_region_ctx+0xb8>
  973e40:	a9408c04 	ldp	x4, x3, [x0, #8]
  973e44:	aa0003f7 	mov	x23, x0
  973e48:	9100a000 	add	x0, x0, #0x28
  973e4c:	8b040064 	add	x4, x3, x4
  973e50:	eb04015f 	cmp	x10, x4
  973e54:	54000081 	b.ne	973e64 <mmap_add_region_ctx+0xfc>  // b.any
  973e58:	b4000063 	cbz	x3, 973e64 <mmap_add_region_ctx+0xfc>
  973e5c:	eb03003f 	cmp	x1, x3
  973e60:	54ffff08 	b.hi	973e40 <mmap_add_region_ctx+0xd8>  // b.pmore
  973e64:	f9400841 	ldr	x1, [x2, #16]
  973e68:	b4000061 	cbz	x1, 973e74 <mmap_add_region_ctx+0x10c>
  973e6c:	eb09005f 	cmp	x2, x9
  973e70:	540008a3 	b.cc	973f84 <mmap_add_region_ctx+0x21c>  // b.lo, b.ul, b.last
  973e74:	cb170042 	sub	x2, x2, x23
  973e78:	aa1703e1 	mov	x1, x23
  973e7c:	9400134e 	bl	978bb4 <memmove>
  973e80:	aa1603e1 	mov	x1, x22
  973e84:	aa1703e0 	mov	x0, x23
  973e88:	d2800502 	mov	x2, #0x28                  	// #40
  973e8c:	94001342 	bl	978b94 <memcpy>
  973e90:	f9402260 	ldr	x0, [x19, #64]
  973e94:	eb15001f 	cmp	x0, x21
  973e98:	54000042 	b.cs	973ea0 <mmap_add_region_ctx+0x138>  // b.hs, b.nlast
  973e9c:	f9002275 	str	x21, [x19, #64]
  973ea0:	f9402660 	ldr	x0, [x19, #72]
  973ea4:	eb14001f 	cmp	x0, x20
  973ea8:	54000042 	b.cs	973eb0 <mmap_add_region_ctx+0x148>  // b.hs, b.nlast
  973eac:	f9002674 	str	x20, [x19, #72]
  973eb0:	a94153f3 	ldp	x19, x20, [sp, #16]
  973eb4:	a9425bf5 	ldp	x21, x22, [sp, #32]
  973eb8:	f9401bf7 	ldr	x23, [sp, #48]
  973ebc:	a8c47bfd 	ldp	x29, x30, [sp], #64
  973ec0:	d65f03c0 	ret
  973ec4:	a94010c7 	ldp	x7, x4, [x6]
  973ec8:	8b030088 	add	x8, x4, x3
  973ecc:	d1000508 	sub	x8, x8, #0x1
  973ed0:	eb04001f 	cmp	x0, x4
  973ed4:	54000263 	b.cc	973f20 <mmap_add_region_ctx+0x1b8>  // b.lo, b.ul, b.last
  973ed8:	eb08029f 	cmp	x20, x8
  973edc:	54000269 	b.ls	973f28 <mmap_add_region_ctx+0x1c0>  // b.plast
  973ee0:	eb04001f 	cmp	x0, x4
  973ee4:	54000229 	b.ls	973f28 <mmap_add_region_ctx+0x1c0>  // b.plast
  973ee8:	eb0702bf 	cmp	x21, x7
  973eec:	54000503 	b.cc	973f8c <mmap_add_region_ctx+0x224>  // b.lo, b.ul, b.last
  973ef0:	8b070063 	add	x3, x3, x7
  973ef4:	d1000463 	sub	x3, x3, #0x1
  973ef8:	eb0300bf 	cmp	x5, x3
  973efc:	1a9f97e3 	cset	w3, hi  // hi = pmore
  973f00:	eb04029f 	cmp	x20, x4
  973f04:	54000243 	b.cc	973f4c <mmap_add_region_ctx+0x1e4>  // b.lo, b.ul, b.last
  973f08:	eb08001f 	cmp	x0, x8
  973f0c:	1a9f97e4 	cset	w4, hi  // hi = pmore
  973f10:	6a03009f 	tst	w4, w3
  973f14:	54000180 	b.eq	973f44 <mmap_add_region_ctx+0x1dc>  // b.none
  973f18:	9100a0c6 	add	x6, x6, #0x28
  973f1c:	17ffffbe 	b	973e14 <mmap_add_region_ctx+0xac>
  973f20:	eb08029f 	cmp	x20, x8
  973f24:	54fffe23 	b.cc	973ee8 <mmap_add_region_ctx+0x180>  // b.lo, b.ul, b.last
  973f28:	cb070087 	sub	x7, x4, x7
  973f2c:	eb0b00ff 	cmp	x7, x11
  973f30:	540000a1 	b.ne	973f44 <mmap_add_region_ctx+0x1dc>  // b.any
  973f34:	eb04001f 	cmp	x0, x4
  973f38:	54ffff01 	b.ne	973f18 <mmap_add_region_ctx+0x1b0>  // b.any
  973f3c:	eb03003f 	cmp	x1, x3
  973f40:	54fffec1 	b.ne	973f18 <mmap_add_region_ctx+0x1b0>  // b.any
  973f44:	12800001 	mov	w1, #0xffffffff            	// #-1
  973f48:	14000004 	b	973f58 <mmap_add_region_ctx+0x1f0>
  973f4c:	52800024 	mov	w4, #0x1                   	// #1
  973f50:	17fffff0 	b	973f10 <mmap_add_region_ctx+0x1a8>
  973f54:	128002a1 	mov	w1, #0xffffffea            	// #-22
  973f58:	a94153f3 	ldp	x19, x20, [sp, #16]
  973f5c:	d0000020 	adrp	x0, 979000 <vprintf+0x2b4>
  973f60:	a9425bf5 	ldp	x21, x22, [sp, #32]
  973f64:	912b1400 	add	x0, x0, #0xac5
  973f68:	f9401bf7 	ldr	x23, [sp, #48]
  973f6c:	a8c47bfd 	ldp	x29, x30, [sp], #64
  973f70:	17fff1be 	b	970668 <tf_log>
  973f74:	12800421 	mov	w1, #0xffffffde            	// #-34
  973f78:	17fffff8 	b	973f58 <mmap_add_region_ctx+0x1f0>
  973f7c:	12800161 	mov	w1, #0xfffffff4            	// #-12
  973f80:	17fffff6 	b	973f58 <mmap_add_region_ctx+0x1f0>
  973f84:	9100a042 	add	x2, x2, #0x28
  973f88:	17ffffb7 	b	973e64 <mmap_add_region_ctx+0xfc>
  973f8c:	eb04029f 	cmp	x20, x4
  973f90:	54fffc43 	b.cc	973f18 <mmap_add_region_ctx+0x1b0>  // b.lo, b.ul, b.last
  973f94:	52800023 	mov	w3, #0x1                   	// #1
  973f98:	17ffffdc 	b	973f08 <mmap_add_region_ctx+0x1a0>

0000000000973f9c <mmap_add_ctx>:
  973f9c:	a9be7bfd 	stp	x29, x30, [sp, #-32]!
  973fa0:	910003fd 	mov	x29, sp
  973fa4:	a90153f3 	stp	x19, x20, [sp, #16]
  973fa8:	aa0003f4 	mov	x20, x0
  973fac:	aa0103f3 	mov	x19, x1
  973fb0:	f9401260 	ldr	x0, [x19, #32]
  973fb4:	b5000080 	cbnz	x0, 973fc4 <mmap_add_ctx+0x28>
  973fb8:	a94153f3 	ldp	x19, x20, [sp, #16]
  973fbc:	a8c27bfd 	ldp	x29, x30, [sp], #32
  973fc0:	d65f03c0 	ret
  973fc4:	aa1303e1 	mov	x1, x19
  973fc8:	aa1403e0 	mov	x0, x20
  973fcc:	9100a273 	add	x19, x19, #0x28
  973fd0:	97ffff66 	bl	973d68 <mmap_add_region_ctx>
  973fd4:	17fffff7 	b	973fb0 <mmap_add_ctx+0x14>

0000000000973fd8 <init_xlat_tables_ctx>:
  973fd8:	a9bd7bfd 	stp	x29, x30, [sp, #-48]!
  973fdc:	910003fd 	mov	x29, sp
  973fe0:	a90153f3 	stp	x19, x20, [sp, #16]
  973fe4:	aa0003f3 	mov	x19, x0
  973fe8:	f9400814 	ldr	x20, [x0, #16]
  973fec:	f90013f5 	str	x21, [sp, #32]
  973ff0:	aa1403e0 	mov	x0, x20
  973ff4:	94000039 	bl	9740d8 <xlat_mmap_print>
  973ff8:	b9403a61 	ldr	w1, [x19, #56]
  973ffc:	d2800000 	mov	x0, #0x0                   	// #0
  974000:	6b00003f 	cmp	w1, w0
  974004:	540001c8 	b.hi	97403c <init_xlat_tables_ctx+0x64>  // b.pmore
  974008:	b9402a63 	ldr	w3, [x19, #40]
  97400c:	d2800000 	mov	x0, #0x0                   	// #0
  974010:	6b00007f 	cmp	w3, w0
  974014:	540001cc 	b.gt	97404c <init_xlat_tables_ctx+0x74>
  974018:	f9400a80 	ldr	x0, [x20, #16]
  97401c:	b50002a0 	cbnz	x0, 974070 <init_xlat_tables_ctx+0x98>
  974020:	52800020 	mov	w0, #0x1                   	// #1
  974024:	39015260 	strb	w0, [x19, #84]
  974028:	aa1303e0 	mov	x0, x19
  97402c:	a94153f3 	ldp	x19, x20, [sp, #16]
  974030:	f94013f5 	ldr	x21, [sp, #32]
  974034:	a8c37bfd 	ldp	x29, x30, [sp], #48
  974038:	14000029 	b	9740dc <xlat_tables_print>
  97403c:	f9401a62 	ldr	x2, [x19, #48]
  974040:	f820785f 	str	xzr, [x2, x0, lsl #3]
  974044:	91000400 	add	x0, x0, #0x1
  974048:	17ffffee 	b	974000 <init_xlat_tables_ctx+0x28>
  97404c:	f9401262 	ldr	x2, [x19, #32]
  974050:	d2800001 	mov	x1, #0x0                   	// #0
  974054:	8b003042 	add	x2, x2, x0, lsl #12
  974058:	f821785f 	str	xzr, [x2, x1, lsl #3]
  97405c:	91000421 	add	x1, x1, #0x1
  974060:	f108003f 	cmp	x1, #0x200
  974064:	54ffffa1 	b.ne	974058 <init_xlat_tables_ctx+0x80>  // b.any
  974068:	91000400 	add	x0, x0, #0x1
  97406c:	17ffffe9 	b	974010 <init_xlat_tables_ctx+0x38>
  974070:	b9403a64 	ldr	w4, [x19, #56]
  974074:	aa1403e1 	mov	x1, x20
  974078:	b9405265 	ldr	w5, [x19, #80]
  97407c:	d2800002 	mov	x2, #0x0                   	// #0
  974080:	f9401a63 	ldr	x3, [x19, #48]
  974084:	aa1303e0 	mov	x0, x19
  974088:	97fffeb0 	bl	973b48 <xlat_tables_map_region>
  97408c:	aa0003f5 	mov	x21, x0
  974090:	f9401a60 	ldr	x0, [x19, #48]
  974094:	b9403a61 	ldr	w1, [x19, #56]
  974098:	d37df021 	lsl	x1, x1, #3
  97409c:	97fffe60 	bl	973a1c <xlat_clean_dcache_range>
  9740a0:	a9408e81 	ldp	x1, x3, [x20, #8]
  9740a4:	8b030020 	add	x0, x1, x3
  9740a8:	d1000400 	sub	x0, x0, #0x1
  9740ac:	eb15001f 	cmp	x0, x21
  9740b0:	54000100 	b.eq	9740d0 <init_xlat_tables_ctx+0xf8>  // b.none
  9740b4:	b9401a84 	ldr	w4, [x20, #24]
  9740b8:	b0000020 	adrp	x0, 979000 <vprintf+0x2b4>
  9740bc:	f9400282 	ldr	x2, [x20]
  9740c0:	912bc000 	add	x0, x0, #0xaf0
  9740c4:	97fff169 	bl	970668 <tf_log>
  9740c8:	97fff605 	bl	9718dc <console_flush>
  9740cc:	94000fac 	bl	977f7c <el3_panic>
  9740d0:	9100a294 	add	x20, x20, #0x28
  9740d4:	17ffffd1 	b	974018 <init_xlat_tables_ctx+0x40>

00000000009740d8 <xlat_mmap_print>:
  9740d8:	d65f03c0 	ret

00000000009740dc <xlat_tables_print>:
  9740dc:	d65f03c0 	ret

00000000009740e0 <bl31_plat_runtime_setup>:
  9740e0:	52800040 	mov	w0, #0x2                   	// #2
  9740e4:	17fff5c4 	b	9717f4 <console_switch_state>

00000000009740e8 <plat_get_soc_version>:
  9740e8:	12800000 	mov	w0, #0xffffffff            	// #-1
  9740ec:	d65f03c0 	ret

00000000009740f0 <plat_get_soc_revision>:
  9740f0:	12800000 	mov	w0, #0xffffffff            	// #-1
  9740f4:	d65f03c0 	ret

00000000009740f8 <plat_is_smccc_feature_available>:
  9740f8:	12800000 	mov	w0, #0xffffffff            	// #-1
  9740fc:	d65f03c0 	ret

0000000000974100 <setup_page_tables>:
  974100:	a9be7bfd 	stp	x29, x30, [sp, #-32]!
  974104:	910003fd 	mov	x29, sp
  974108:	f9000bf3 	str	x19, [sp, #16]
  97410c:	aa0103f3 	mov	x19, x1
  974110:	97fffe1e 	bl	973988 <mmap_add>
  974114:	aa1303e0 	mov	x0, x19
  974118:	97fffe1c 	bl	973988 <mmap_add>
  97411c:	f9400bf3 	ldr	x19, [sp, #16]
  974120:	a8c27bfd 	ldp	x29, x30, [sp], #32
  974124:	17fffe1d 	b	973998 <init_xlat_tables>

0000000000974128 <plat_ic_get_pending_interrupt_type>:
  974128:	a9bf7bfd 	stp	x29, x30, [sp, #-16]!
  97412c:	910003fd 	mov	x29, sp
  974130:	97fff3de 	bl	9710a8 <gicv3_get_pending_interrupt_type>
  974134:	510ff000 	sub	w0, w0, #0x3fc
  974138:	71000c1f 	cmp	w0, #0x3
  97413c:	540000c8 	b.hi	974154 <plat_ic_get_pending_interrupt_type+0x2c>  // b.pmore
  974140:	b0000021 	adrp	x1, 979000 <vprintf+0x2b4>
  974144:	912cfc21 	add	x1, x1, #0xb3f
  974148:	38604820 	ldrb	w0, [x1, w0, uxtw]
  97414c:	a8c17bfd 	ldp	x29, x30, [sp], #16
  974150:	d65f03c0 	ret
  974154:	52800020 	mov	w0, #0x1                   	// #1
  974158:	17fffffd 	b	97414c <plat_ic_get_pending_interrupt_type+0x24>

000000000097415c <plat_ic_acknowledge_interrupt>:
  97415c:	d538c800 	mrs	x0, icc_iar0_el1
  974160:	12005c00 	and	w0, w0, #0xffffff
  974164:	d65f03c0 	ret

0000000000974168 <plat_ic_end_of_interrupt>:
  974168:	d5033a9f 	dsb	ishst
  97416c:	2a0003e0 	mov	w0, w0
  974170:	d518c820 	msr	icc_eoir0_el1, x0
  974174:	d65f03c0 	ret

0000000000974178 <plat_interrupt_type_to_line>:
  974178:	7100041f 	cmp	w0, #0x1
  97417c:	540001e0 	b.eq	9741b8 <plat_interrupt_type_to_line+0x40>  // b.none
  974180:	7100081f 	cmp	w0, #0x2
  974184:	540000c0 	b.eq	97419c <plat_interrupt_type_to_line+0x24>  // b.none
  974188:	35000100 	cbnz	w0, 9741a8 <plat_interrupt_type_to_line+0x30>
  97418c:	7100003f 	cmp	w1, #0x0
  974190:	1a9f07e0 	cset	w0, ne  // ne = any
  974194:	11000400 	add	w0, w0, #0x1
  974198:	d65f03c0 	ret
  97419c:	7100003f 	cmp	w1, #0x0
  9741a0:	1a9f0400 	csinc	w0, w0, wzr, eq  // eq = none
  9741a4:	d65f03c0 	ret
  9741a8:	a9bf7bfd 	stp	x29, x30, [sp, #-16]!
  9741ac:	910003fd 	mov	x29, sp
  9741b0:	97fff5cb 	bl	9718dc <console_flush>
  9741b4:	94000f72 	bl	977f7c <el3_panic>
  9741b8:	52800040 	mov	w0, #0x2                   	// #2
  9741bc:	d65f03c0 	ret

00000000009741c0 <plat_ic_has_interrupt_type>:
  9741c0:	7100081f 	cmp	w0, #0x2
  9741c4:	1a9f87e0 	cset	w0, ls  // ls = plast
  9741c8:	d65f03c0 	ret

00000000009741cc <plat_ic_raise_el3_sgi>:
  9741cc:	aa0103e2 	mov	x2, x1
  9741d0:	52800041 	mov	w1, #0x2                   	// #2
  9741d4:	17fff540 	b	9716d4 <gicv3_raise_sgi>

00000000009741d8 <plat_log_get_prefix>:
  9741d8:	7100c81f 	cmp	w0, #0x32
  9741dc:	52800641 	mov	w1, #0x32                  	// #50
  9741e0:	1a819000 	csel	w0, w0, w1, ls  // ls = plast
  9741e4:	52800141 	mov	w1, #0xa                   	// #10
  9741e8:	6b01001f 	cmp	w0, w1
  9741ec:	1a812000 	csel	w0, w0, w1, cs  // cs = hs, nlast
  9741f0:	1ac10800 	udiv	w0, w0, w1
  9741f4:	f0000021 	adrp	x1, 97b000 <__RO_END__>
  9741f8:	9101c021 	add	x1, x1, #0x70
  9741fc:	51000400 	sub	w0, w0, #0x1
  974200:	f8607820 	ldr	x0, [x1, x0, lsl #3]
  974204:	d65f03c0 	ret

0000000000974208 <plat_get_target_pwr_state>:
  974208:	d2800003 	mov	x3, #0x0                   	// #0
  97420c:	52800080 	mov	w0, #0x4                   	// #4
  974210:	38636824 	ldrb	w4, [x1, x3]
  974214:	91000463 	add	x3, x3, #0x1
  974218:	6b00009f 	cmp	w4, w0
  97421c:	1a809080 	csel	w0, w4, w0, ls  // ls = plast
  974220:	12001c00 	and	w0, w0, #0xff
  974224:	6b03005f 	cmp	w2, w3
  974228:	54ffff41 	b.ne	974210 <plat_get_target_pwr_state+0x8>  // b.any
  97422c:	d65f03c0 	ret

0000000000974230 <plat_get_power_domain_tree_desc>:
  974230:	b0000020 	adrp	x0, 979000 <vprintf+0x2b4>
  974234:	912dd400 	add	x0, x0, #0xb75
  974238:	d65f03c0 	ret

000000000097423c <plat_core_pos_by_mpidr>:
  97423c:	92409c01 	and	x1, x0, #0xffffffffff
  974240:	92705c00 	and	x0, x0, #0xffffff0000
  974244:	9260dc21 	and	x1, x1, #0xffffffff00ffffff
  974248:	9260dc00 	and	x0, x0, #0xffffffff00ffffff
  97424c:	b5000120 	cbnz	x0, 974270 <plat_core_pos_by_mpidr+0x34>
  974250:	d348fc22 	lsr	x2, x1, #8
  974254:	53083c20 	ubfx	w0, w1, #8, #8
  974258:	f27f185f 	tst	x2, #0xfe
  97425c:	12001c21 	and	w1, w1, #0xff
  974260:	0b000820 	add	w0, w1, w0, lsl #2
  974264:	7a440822 	ccmp	w1, #0x4, #0x2, eq  // eq = none
  974268:	5a9f9000 	csinv	w0, w0, wzr, ls  // ls = plast
  97426c:	d65f03c0 	ret
  974270:	12800000 	mov	w0, #0xffffffff            	// #-1
  974274:	17fffffe 	b	97426c <plat_core_pos_by_mpidr+0x30>

0000000000974278 <imx_buildinfo_handler>:
  974278:	b50003e1 	cbnz	x1, 9742f4 <imx_buildinfo_handler+0x7c>
  97427c:	a9be7bfd 	stp	x29, x30, [sp, #-32]!
  974280:	b0000020 	adrp	x0, 979000 <vprintf+0x2b4>
  974284:	910003fd 	mov	x29, sp
  974288:	f9468400 	ldr	x0, [x0, #3336]
  97428c:	f9000fff 	str	xzr, [sp, #24]
  974290:	528005a1 	mov	w1, #0x2d                  	// #45
  974294:	940013c6 	bl	9791ac <strchr>
  974298:	aa0003e1 	mov	x1, x0
  97429c:	b4000180 	cbz	x0, 9742cc <imx_buildinfo_handler+0x54>
  9742a0:	39400422 	ldrb	w2, [x1, #1]
  9742a4:	91000400 	add	x0, x0, #0x1
  9742a8:	71019c5f 	cmp	w2, #0x67
  9742ac:	54ffff21 	b.ne	974290 <imx_buildinfo_handler+0x18>  // b.any
  9742b0:	91000821 	add	x1, x1, #0x2
  9742b4:	d28000e2 	mov	x2, #0x7                   	// #7
  9742b8:	910063e0 	add	x0, sp, #0x18
  9742bc:	94001236 	bl	978b94 <memcpy>
  9742c0:	f9400fe0 	ldr	x0, [sp, #24]
  9742c4:	a8c27bfd 	ldp	x29, x30, [sp], #32
  9742c8:	d65f03c0 	ret
  9742cc:	b0000020 	adrp	x0, 979000 <vprintf+0x2b4>
  9742d0:	52800741 	mov	w1, #0x3a                  	// #58
  9742d4:	f9468400 	ldr	x0, [x0, #3336]
  9742d8:	940013b5 	bl	9791ac <strchr>
  9742dc:	b4ffff20 	cbz	x0, 9742c0 <imx_buildinfo_handler+0x48>
  9742e0:	39400401 	ldrb	w1, [x0, #1]
  9742e4:	34fffee1 	cbz	w1, 9742c0 <imx_buildinfo_handler+0x48>
  9742e8:	91000401 	add	x1, x0, #0x1
  9742ec:	d28000e2 	mov	x2, #0x7                   	// #7
  9742f0:	17fffff2 	b	9742b8 <imx_buildinfo_handler+0x40>
  9742f4:	92800000 	mov	x0, #0xffffffffffffffff    	// #-1
  9742f8:	d65f03c0 	ret

00000000009742fc <imx_kernel_entry_handler>:
  9742fc:	b24077e0 	mov	x0, #0x3fffffff            	// #1073741823
  974300:	eb00003f 	cmp	x1, x0
  974304:	540002a9 	b.ls	974358 <imx_kernel_entry_handler+0x5c>  // b.plast
  974308:	a9bf7bfd 	stp	x29, x30, [sp, #-16]!
  97430c:	90000060 	adrp	x0, 980000 <tf_mmap+0x258>
  974310:	91014000 	add	x0, x0, #0x50
  974314:	910003fd 	mov	x29, sp
  974318:	12800422 	mov	w2, #0xffffffde            	// #-34
  97431c:	f9000401 	str	x1, [x0, #8]
  974320:	52803a61 	mov	w1, #0x1d3                 	// #467
  974324:	b9001001 	str	w1, [x0, #16]
  974328:	b9400401 	ldr	w1, [x0, #4]
  97432c:	a901fc1f 	stp	xzr, xzr, [x0, #24]
  974330:	0a020021 	and	w1, w1, w2
  974334:	32000021 	orr	w1, w1, #0x1
  974338:	b9000401 	str	w1, [x0, #4]
  97433c:	f9001403 	str	x3, [x0, #40]
  974340:	97fff646 	bl	971c58 <cm_init_my_context>
  974344:	52800020 	mov	w0, #0x1                   	// #1
  974348:	97fff6a9 	bl	971dec <cm_prepare_el3_exit>
  97434c:	52800000 	mov	w0, #0x0                   	// #0
  974350:	a8c17bfd 	ldp	x29, x30, [sp], #16
  974354:	d65f03c0 	ret
  974358:	12800000 	mov	w0, #0xffffffff            	// #-1
  97435c:	d65f03c0 	ret

0000000000974360 <imx_sip_setup>:
  974360:	52800000 	mov	w0, #0x0                   	// #0
  974364:	d65f03c0 	ret

0000000000974368 <imx_sip_handler>:
  974368:	a9be7bfd 	stp	x29, x30, [sp, #-32]!
  97436c:	2a0003e5 	mov	w5, w0
  974370:	910003fd 	mov	x29, sp
  974374:	f9000bf3 	str	x19, [sp, #16]
  974378:	aa0603f3 	mov	x19, x6
  97437c:	528000e6 	mov	w6, #0x7                   	// #7
  974380:	72b84006 	movk	w6, #0xc200, lsl #16
  974384:	6b06001f 	cmp	w0, w6
  974388:	540001c8 	b.hi	9743c0 <imx_sip_handler+0x58>  // b.pmore
  97438c:	12a7c000 	mov	w0, #0xc1ffffff            	// #-1040187393
  974390:	6b0000bf 	cmp	w5, w0
  974394:	540005e9 	b.ls	974450 <imx_sip_handler+0xe8>  // b.plast
  974398:	52a7c000 	mov	w0, #0x3e000000            	// #1040187392
  97439c:	0b0000a5 	add	w5, w5, w0
  9743a0:	71001cbf 	cmp	w5, #0x7
  9743a4:	54000568 	b.hi	974450 <imx_sip_handler+0xe8>  // b.pmore
  9743a8:	b0000020 	adrp	x0, 979000 <vprintf+0x2b4>
  9743ac:	91167000 	add	x0, x0, #0x59c
  9743b0:	38654800 	ldrb	w0, [x0, w5, uxtw]
  9743b4:	10000065 	adr	x5, 9743c0 <imx_sip_handler+0x58>
  9743b8:	8b2088a0 	add	x0, x5, w0, sxtb #2
  9743bc:	d61f0000 	br	x0
  9743c0:	52801fa6 	mov	w6, #0xfd                  	// #253
  9743c4:	72b84006 	movk	w6, #0xc200, lsl #16
  9743c8:	6b06001f 	cmp	w0, w6
  9743cc:	54000421 	b.ne	974450 <imx_sip_handler+0xe8>  // b.any
  9743d0:	97ffffcb 	bl	9742fc <imx_kernel_entry_handler>
  9743d4:	93407c00 	sxtw	x0, w0
  9743d8:	f9000260 	str	x0, [x19]
  9743dc:	14000009 	b	974400 <imx_sip_handler+0x98>
  9743e0:	52800080 	mov	w0, #0x4                   	// #4
  9743e4:	aa0303e4 	mov	x4, x3
  9743e8:	72b84000 	movk	w0, #0xc200, lsl #16
  9743ec:	aa0203e3 	mov	x3, x2
  9743f0:	aa0103e2 	mov	x2, x1
  9743f4:	aa1303e1 	mov	x1, x19
  9743f8:	940002f8 	bl	974fd8 <dram_dvfs_handler>
  9743fc:	93407c13 	sxtw	x19, w0
  974400:	aa1303e0 	mov	x0, x19
  974404:	f9400bf3 	ldr	x19, [sp, #16]
  974408:	a8c27bfd 	ldp	x29, x30, [sp], #32
  97440c:	d65f03c0 	ret
  974410:	52b84000 	mov	w0, #0xc2000000            	// #-1040187392
  974414:	9400070f 	bl	976050 <imx_gpc_handler>
  974418:	17ffffef 	b	9743d4 <imx_sip_handler+0x6c>
  97441c:	528000a0 	mov	w0, #0x5                   	// #5
  974420:	aa1303e4 	mov	x4, x19
  974424:	72b84000 	movk	w0, #0xc200, lsl #16
  974428:	94000717 	bl	976084 <imx_src_handler>
  97442c:	17ffffea 	b	9743d4 <imx_sip_handler+0x6c>
  974430:	528000e0 	mov	w0, #0x7                   	// #7
  974434:	72b84000 	movk	w0, #0xc200, lsl #16
  974438:	94000b7a 	bl	977220 <imx_hab_handler>
  97443c:	17ffffe6 	b	9743d4 <imx_sip_handler+0x6c>
  974440:	52800060 	mov	w0, #0x3                   	// #3
  974444:	72b84000 	movk	w0, #0xc200, lsl #16
  974448:	97ffff8c 	bl	974278 <imx_buildinfo_handler>
  97444c:	17ffffe3 	b	9743d8 <imx_sip_handler+0x70>
  974450:	92800000 	mov	x0, #0xffffffffffffffff    	// #-1
  974454:	17ffffe1 	b	9743d8 <imx_sip_handler+0x70>

0000000000974458 <plat_imx_mpidr_to_core_pos>:
  974458:	17ffff79 	b	97423c <plat_core_pos_by_mpidr>

000000000097445c <plat_gic_driver_init>:
  97445c:	f0000020 	adrp	x0, 97b000 <__RO_END__>
  974460:	91026000 	add	x0, x0, #0x98
  974464:	17fff27f 	b	970e60 <gicv3_driver_init>

0000000000974468 <plat_gic_init>:
  974468:	d2800281 	mov	x1, #0x14                  	// #20
  97446c:	a9bf7bfd 	stp	x29, x30, [sp, #-16]!
  974470:	f2a71101 	movk	x1, #0x3888, lsl #16
  974474:	910003fd 	mov	x29, sp
  974478:	b9400020 	ldr	w0, [x1]
  97447c:	36f800a0 	tbz	w0, #31, 974490 <plat_gic_init+0x28>
  974480:	121f7800 	and	w0, w0, #0xfffffffe
  974484:	b9000020 	str	w0, [x1]
  974488:	b9400020 	ldr	w0, [x1]
  97448c:	37ffffe0 	tbnz	w0, #31, 974488 <plat_gic_init+0x20>
  974490:	97fff291 	bl	970ed4 <gicv3_distif_init>
  974494:	9400114d 	bl	9789c8 <plat_my_core_pos>
  974498:	97fff2ac 	bl	970f48 <gicv3_rdistif_init>
  97449c:	9400114b 	bl	9789c8 <plat_my_core_pos>
  9744a0:	a8c17bfd 	ldp	x29, x30, [sp], #16
  9744a4:	17fff2cd 	b	970fd8 <gicv3_cpuif_enable>

00000000009744a8 <plat_gic_cpuif_enable>:
  9744a8:	a9bf7bfd 	stp	x29, x30, [sp, #-16]!
  9744ac:	910003fd 	mov	x29, sp
  9744b0:	94001146 	bl	9789c8 <plat_my_core_pos>
  9744b4:	a8c17bfd 	ldp	x29, x30, [sp], #16
  9744b8:	17fff2c8 	b	970fd8 <gicv3_cpuif_enable>

00000000009744bc <plat_gic_cpuif_disable>:
  9744bc:	a9bf7bfd 	stp	x29, x30, [sp, #-16]!
  9744c0:	910003fd 	mov	x29, sp
  9744c4:	94001141 	bl	9789c8 <plat_my_core_pos>
  9744c8:	a8c17bfd 	ldp	x29, x30, [sp], #16
  9744cc:	17fff2e7 	b	971068 <gicv3_cpuif_disable>

00000000009744d0 <plat_gic_pcpu_init>:
  9744d0:	a9bf7bfd 	stp	x29, x30, [sp, #-16]!
  9744d4:	910003fd 	mov	x29, sp
  9744d8:	9400113c 	bl	9789c8 <plat_my_core_pos>
  9744dc:	a8c17bfd 	ldp	x29, x30, [sp], #16
  9744e0:	17fff29a 	b	970f48 <gicv3_rdistif_init>

00000000009744e4 <plat_gic_save>:
  9744e4:	a9bd7bfd 	stp	x29, x30, [sp, #-48]!
  9744e8:	910003fd 	mov	x29, sp
  9744ec:	a90153f3 	stp	x19, x20, [sp, #16]
  9744f0:	aa0103f4 	mov	x20, x1
  9744f4:	d2800013 	mov	x19, #0x0                   	// #0
  9744f8:	f90013f5 	str	x21, [sp, #32]
  9744fc:	d2800b15 	mov	x21, #0x58                  	// #88
  974500:	f100127f 	cmp	x19, #0x4
  974504:	540000c1 	b.ne	97451c <plat_gic_save+0x38>  // b.any
  974508:	91058280 	add	x0, x20, #0x160
  97450c:	a94153f3 	ldp	x19, x20, [sp, #16]
  974510:	f94013f5 	ldr	x21, [sp, #32]
  974514:	a8c37bfd 	ldp	x29, x30, [sp], #48
  974518:	17fff36e 	b	9712d0 <gicv3_distif_save>
  97451c:	d503201f 	nop
  974520:	9b155261 	madd	x1, x19, x21, x20
  974524:	2a1303e0 	mov	w0, w19
  974528:	91000673 	add	x19, x19, #0x1
  97452c:	97fff2e2 	bl	9710b4 <gicv3_rdistif_save>
  974530:	17fffff4 	b	974500 <plat_gic_save+0x1c>

0000000000974534 <plat_gic_restore>:
  974534:	a9bd7bfd 	stp	x29, x30, [sp, #-48]!
  974538:	91058020 	add	x0, x1, #0x160
  97453c:	910003fd 	mov	x29, sp
  974540:	a90153f3 	stp	x19, x20, [sp, #16]
  974544:	d2800013 	mov	x19, #0x0                   	// #0
  974548:	aa0103f4 	mov	x20, x1
  97454c:	f90013f5 	str	x21, [sp, #32]
  974550:	d2800b15 	mov	x21, #0x58                  	// #88
  974554:	97fff3dc 	bl	9714c4 <gicv3_distif_init_restore>
  974558:	f100127f 	cmp	x19, #0x4
  97455c:	540000a1 	b.ne	974570 <plat_gic_restore+0x3c>  // b.any
  974560:	a94153f3 	ldp	x19, x20, [sp, #16]
  974564:	f94013f5 	ldr	x21, [sp, #32]
  974568:	a8c37bfd 	ldp	x29, x30, [sp], #48
  97456c:	d65f03c0 	ret
  974570:	9b155261 	madd	x1, x19, x21, x20
  974574:	2a1303e0 	mov	w0, w19
  974578:	91000673 	add	x19, x19, #0x1
  97457c:	97fff30c 	bl	9711ac <gicv3_rdistif_init_restore>
  974580:	17fffff6 	b	974558 <plat_gic_restore+0x24>

0000000000974584 <ddr_pll_bypass_100mts>:
  974584:	d2940101 	mov	x1, #0xa008                	// #40968
  974588:	52a0e0e0 	mov	w0, #0x7070000             	// #117899264
  97458c:	f2a60701 	movk	x1, #0x3038, lsl #16
  974590:	52a04002 	mov	w2, #0x2000000             	// #33554432
  974594:	b9000020 	str	w0, [x1]
  974598:	b81fc022 	stur	w2, [x1, #-4]
  97459c:	b9008020 	str	w0, [x1, #128]
  9745a0:	d2941080 	mov	x0, #0xa084                	// #41092
  9745a4:	f2a60700 	movk	x0, #0x3038, lsl #16
  9745a8:	52a04021 	mov	w1, #0x2010000             	// #33619968
  9745ac:	d1220000 	sub	x0, x0, #0x880
  9745b0:	b9088001 	str	w1, [x0, #2176]
  9745b4:	52a02001 	mov	w1, #0x1000000             	// #16777216
  9745b8:	b9000001 	str	w1, [x0]
  9745bc:	d65f03c0 	ret

00000000009745c0 <ddr_pll_bypass_400mts>:
  9745c0:	d2940101 	mov	x1, #0xa008                	// #40968
  9745c4:	52a0e0e0 	mov	w0, #0x7070000             	// #117899264
  9745c8:	f2a60701 	movk	x1, #0x3038, lsl #16
  9745cc:	52a02022 	mov	w2, #0x1010000             	// #16842752
  9745d0:	b9000020 	str	w0, [x1]
  9745d4:	b81fc022 	stur	w2, [x1, #-4]
  9745d8:	b9008020 	str	w0, [x1, #128]
  9745dc:	d2941080 	mov	x0, #0xa084                	// #41092
  9745e0:	f2a60700 	movk	x0, #0x3038, lsl #16
  9745e4:	52a06021 	mov	w1, #0x3010000             	// #50397184
  9745e8:	d1220000 	sub	x0, x0, #0x880
  9745ec:	b9088001 	str	w1, [x0, #2176]
  9745f0:	52a02001 	mov	w1, #0x1000000             	// #16777216
  9745f4:	b9000001 	str	w1, [x0]
  9745f8:	d65f03c0 	ret

00000000009745fc <ddr_pll_unbypass>:
  9745fc:	d2930100 	mov	x0, #0x9808                	// #38920
  974600:	52a02001 	mov	w1, #0x1000000             	// #16777216
  974604:	f2a60700 	movk	x0, #0x3038, lsl #16
  974608:	b9000001 	str	w1, [x0]
  97460c:	52a0e0e1 	mov	w1, #0x7070000             	// #117899264
  974610:	b9088001 	str	w1, [x0, #2176]
  974614:	52a08081 	mov	w1, #0x4040000             	// #67371008
  974618:	b9087c01 	str	w1, [x0, #2172]
  97461c:	d65f03c0 	ret

0000000000974620 <dram_pll_init>:
  974620:	d2800a01 	mov	x1, #0x50                  	// #80
  974624:	f2a606c1 	movk	x1, #0x3036, lsl #16
  974628:	b9400022 	ldr	w2, [x1]
  97462c:	32100042 	orr	w2, w2, #0x10000
  974630:	b9000022 	str	w2, [x1]
  974634:	b9400022 	ldr	w2, [x1]
  974638:	12167842 	and	w2, w2, #0xfffffdff
  97463c:	b9000022 	str	w2, [x1]
  974640:	7125801f 	cmp	w0, #0x960
  974644:	54000560 	b.eq	9746f0 <dram_pll_init+0xd0>  // b.none
  974648:	54000248 	b.hi	974690 <dram_pll_init+0x70>  // b.pmore
  97464c:	7110a81f 	cmp	w0, #0x42a
  974650:	54000640 	b.eq	974718 <dram_pll_init+0xf8>  // b.none
  974654:	7119001f 	cmp	w0, #0x640
  974658:	54000560 	b.eq	974704 <dram_pll_init+0xe4>  // b.none
  97465c:	710a6c1f 	cmp	w0, #0x29b
  974660:	54000660 	b.eq	97472c <dram_pll_init+0x10c>  // b.none
  974664:	d2800a00 	mov	x0, #0x50                  	// #80
  974668:	f2a606c0 	movk	x0, #0x3036, lsl #16
  97466c:	b9400001 	ldr	w1, [x0]
  974670:	32170021 	orr	w1, w1, #0x200
  974674:	b9000001 	str	w1, [x0]
  974678:	b9400001 	ldr	w1, [x0]
  97467c:	36ffffe1 	tbz	w1, #31, 974678 <dram_pll_init+0x58>
  974680:	b9400001 	ldr	w1, [x0]
  974684:	120f7821 	and	w1, w1, #0xfffeffff
  974688:	b9000001 	str	w1, [x0]
  97468c:	d65f03c0 	ret
  974690:	713a541f 	cmp	w0, #0xe95
  974694:	54000148 	b.hi	9746bc <dram_pll_init+0x9c>  // b.pmore
  974698:	713a4c1f 	cmp	w0, #0xe93
  97469c:	54000208 	b.hi	9746dc <dram_pll_init+0xbc>  // b.pmore
  9746a0:	7132001f 	cmp	w0, #0xc80
  9746a4:	54fffe01 	b.ne	974664 <dram_pll_init+0x44>  // b.any
  9746a8:	d2800a80 	mov	x0, #0x54                  	// #84
  9746ac:	52900621 	mov	w1, #0x8031                	// #32817
  9746b0:	f2a606c0 	movk	x0, #0x3036, lsl #16
  9746b4:	72a00181 	movk	w1, #0xc, lsl #16
  9746b8:	14000007 	b	9746d4 <dram_pll_init+0xb4>
  9746bc:	713e801f 	cmp	w0, #0xfa0
  9746c0:	54fffd21 	b.ne	974664 <dram_pll_init+0x44>  // b.any
  9746c4:	d2800a80 	mov	x0, #0x54                  	// #84
  9746c8:	52940621 	mov	w1, #0xa031                	// #41009
  9746cc:	f2a606c0 	movk	x0, #0x3036, lsl #16
  9746d0:	72a001e1 	movk	w1, #0xf, lsl #16
  9746d4:	b9000001 	str	w1, [x0]
  9746d8:	17ffffe3 	b	974664 <dram_pll_init+0x44>
  9746dc:	d2800a80 	mov	x0, #0x54                  	// #84
  9746e0:	528e0821 	mov	w1, #0x7041                	// #28737
  9746e4:	f2a606c0 	movk	x0, #0x3036, lsl #16
  9746e8:	72a00261 	movk	w1, #0x13, lsl #16
  9746ec:	17fffffa 	b	9746d4 <dram_pll_init+0xb4>
  9746f0:	d2800a80 	mov	x0, #0x54                  	// #84
  9746f4:	52980641 	mov	w1, #0xc032                	// #49202
  9746f8:	f2a606c0 	movk	x0, #0x3036, lsl #16
  9746fc:	72a00241 	movk	w1, #0x12, lsl #16
  974700:	17fffff5 	b	9746d4 <dram_pll_init+0xb4>
  974704:	d2800a80 	mov	x0, #0x54                  	// #84
  974708:	52800661 	mov	w1, #0x33                  	// #51
  97470c:	f2a606c0 	movk	x0, #0x3036, lsl #16
  974710:	72a00321 	movk	w1, #0x19, lsl #16
  974714:	17fffff0 	b	9746d4 <dram_pll_init+0xb4>
  974718:	d2800a80 	mov	x0, #0x54                  	// #84
  97471c:	52940661 	mov	w1, #0xa033                	// #41011
  974720:	f2a606c0 	movk	x0, #0x3036, lsl #16
  974724:	72a00201 	movk	w1, #0x10, lsl #16
  974728:	17ffffeb 	b	9746d4 <dram_pll_init+0xb4>
  97472c:	d2800a80 	mov	x0, #0x54                  	// #84
  974730:	529c0681 	mov	w1, #0xe034                	// #57396
  974734:	f2a606c0 	movk	x0, #0x3036, lsl #16
  974738:	72a00281 	movk	w1, #0x14, lsl #16
  97473c:	17ffffe6 	b	9746d4 <dram_pll_init+0xb4>

0000000000974740 <dram_clock_switch>:
  974740:	72001c3f 	tst	w1, #0xff
  974744:	54000100 	b.eq	974764 <dram_clock_switch+0x24>  // b.none
  974748:	7101901f 	cmp	w0, #0x64
  97474c:	54000080 	b.eq	97475c <dram_clock_switch+0x1c>  // b.none
  974750:	7106401f 	cmp	w0, #0x190
  974754:	54000061 	b.ne	974760 <dram_clock_switch+0x20>  // b.any
  974758:	17ffff9a 	b	9745c0 <ddr_pll_bypass_400mts>
  97475c:	17ffff8a 	b	974584 <ddr_pll_bypass_100mts>
  974760:	17ffffa7 	b	9745fc <ddr_pll_unbypass>
  974764:	17ffffaf 	b	974620 <dram_pll_init>

0000000000974768 <ddr4_mr_write>:
  974768:	d2800206 	mov	x6, #0x10                  	// #16
  97476c:	f2a7a806 	movk	x6, #0x3d40, lsl #16
  974770:	b94000c5 	ldr	w5, [x6]
  974774:	320100a5 	orr	w5, w5, #0x80000000
  974778:	b90000c5 	str	w5, [x6]
  97477c:	d2800305 	mov	x5, #0x18                  	// #24
  974780:	f2a7a805 	movk	x5, #0x3d40, lsl #16
  974784:	b94000a6 	ldr	w6, [x5]
  974788:	3707ffe6 	tbnz	w6, #0, 974784 <ddr4_mr_write+0x1c>
  97478c:	b94000a6 	ldr	w6, [x5]
  974790:	3707ffa6 	tbnz	w6, #0, 974784 <ddr4_mr_write+0x1c>
  974794:	d2801e05 	mov	x5, #0xf0                  	// #240
  974798:	f2a7a805 	movk	x5, #0x3d40, lsl #16
  97479c:	b94000a5 	ldr	w5, [x5]
  9747a0:	36080485 	tbz	w5, #1, 974830 <ddr4_mr_write+0xc8>
  9747a4:	7100087f 	cmp	w3, #0x2
  9747a8:	54000441 	b.ne	974830 <ddr4_mr_write+0xc8>  // b.any
  9747ac:	d3410406 	ubfx	x6, x0, #1, #1
  9747b0:	531f0005 	ubfiz	w5, w0, #1, #1
  9747b4:	2a0600a5 	orr	w5, w5, w6
  9747b8:	121e0000 	and	w0, w0, #0x4
  9747bc:	53017c26 	lsr	w6, w1, #1
  9747c0:	2a0000a0 	orr	w0, w5, w0
  9747c4:	531f7825 	lsl	w5, w1, #1
  9747c8:	121b00c7 	and	w7, w6, #0x20
  9747cc:	121a00a8 	and	w8, w5, #0x40
  9747d0:	121900c9 	and	w9, w6, #0x80
  9747d4:	2a070108 	orr	w8, w8, w7
  9747d8:	121800a7 	and	w7, w5, #0x100
  9747dc:	2a0900e7 	orr	w7, w7, w9
  9747e0:	121c00a5 	and	w5, w5, #0x10
  9747e4:	121d00c6 	and	w6, w6, #0x8
  9747e8:	2a070108 	orr	w8, w8, w7
  9747ec:	2a0600a6 	orr	w6, w5, w6
  9747f0:	53027c27 	lsr	w7, w1, #2
  9747f4:	531e7425 	lsl	w5, w1, #2
  9747f8:	121500e7 	and	w7, w7, #0x800
  9747fc:	121300a5 	and	w5, w5, #0x2000
  974800:	7100409f 	cmp	w4, #0x10
  974804:	2a0700a5 	orr	w5, w5, w7
  974808:	5282c0e7 	mov	w7, #0x1607                	// #5639
  97480c:	0a070027 	and	w7, w1, w7
  974810:	2a0800a5 	orr	w5, w5, w8
  974814:	2a0600e7 	orr	w7, w7, w6
  974818:	2a0700a5 	orr	w5, w5, w7
  97481c:	529fc0e7 	mov	w7, #0xfe07                	// #65031
  974820:	0a070021 	and	w1, w1, w7
  974824:	2a060021 	orr	w1, w1, w6
  974828:	2a080021 	orr	w1, w1, w8
  97482c:	1a851021 	csel	w1, w1, w5, ne  // ne = any
  974830:	2a031043 	orr	w3, w2, w3, lsl #4
  974834:	d2800202 	mov	x2, #0x10                  	// #16
  974838:	f2a7a802 	movk	x2, #0x3d40, lsl #16
  97483c:	2a003060 	orr	w0, w3, w0, lsl #12
  974840:	b9000040 	str	w0, [x2]
  974844:	d2800280 	mov	x0, #0x14                  	// #20
  974848:	f2a7a800 	movk	x0, #0x3d40, lsl #16
  97484c:	b9000001 	str	w1, [x0]
  974850:	d2800301 	mov	x1, #0x18                  	// #24
  974854:	f2a7a801 	movk	x1, #0x3d40, lsl #16
  974858:	b9400040 	ldr	w0, [x2]
  97485c:	32010000 	orr	w0, w0, #0x80000000
  974860:	b9000040 	str	w0, [x2]
  974864:	b9400020 	ldr	w0, [x1]
  974868:	35ffffe0 	cbnz	w0, 974864 <ddr4_mr_write+0xfc>
  97486c:	d65f03c0 	ret

0000000000974870 <dram_cfg_all_mr>:
  974870:	2a0103e1 	mov	w1, w1
  974874:	5280002c 	mov	w12, #0x1                   	// #1
  974878:	2940380f 	ldp	w15, w14, [x0]
  97487c:	9100042d 	add	x13, x1, #0x1
  974880:	8b01140a 	add	x10, x0, x1, lsl #5
  974884:	8b0d140d 	add	x13, x0, x13, lsl #5
  974888:	6b0c01df 	cmp	w14, w12
  97488c:	54000042 	b.cs	974894 <dram_cfg_all_mr+0x24>  // b.hs, b.nlast
  974890:	d65f03c0 	ret
  974894:	a9bf7bfd 	stp	x29, x30, [sp, #-16]!
  974898:	910003fd 	mov	x29, sp
  97489c:	d280000b 	mov	x11, #0x0                   	// #0
  9748a0:	b86b79a1 	ldr	w1, [x13, x11, lsl #2]
  9748a4:	2a0b03e0 	mov	w0, w11
  9748a8:	2a0f03e4 	mov	w4, w15
  9748ac:	2a0c03e3 	mov	w3, w12
  9748b0:	52800002 	mov	w2, #0x0                   	// #0
  9748b4:	9100056b 	add	x11, x11, #0x1
  9748b8:	97ffffac 	bl	974768 <ddr4_mr_write>
  9748bc:	f100197f 	cmp	x11, #0x6
  9748c0:	54ffff01 	b.ne	9748a0 <dram_cfg_all_mr+0x30>  // b.any
  9748c4:	b9403d41 	ldr	w1, [x10, #60]
  9748c8:	2a0c03e3 	mov	w3, w12
  9748cc:	2a0b03e0 	mov	w0, w11
  9748d0:	1100058c 	add	w12, w12, #0x1
  9748d4:	52800002 	mov	w2, #0x0                   	// #0
  9748d8:	97ffffa4 	bl	974768 <ddr4_mr_write>
  9748dc:	6b0c01df 	cmp	w14, w12
  9748e0:	54fffde2 	b.cs	97489c <dram_cfg_all_mr+0x2c>  // b.hs, b.nlast
  9748e4:	a8c17bfd 	ldp	x29, x30, [sp], #16
  9748e8:	d65f03c0 	ret

00000000009748ec <sw_pstate>:
  9748ec:	a9be7bfd 	stp	x29, x30, [sp, #-32]!
  9748f0:	d2a7a802 	mov	x2, #0x3d400000            	// #1027604480
  9748f4:	910003fd 	mov	x29, sp
  9748f8:	a90153f3 	stp	x19, x20, [sp, #16]
  9748fc:	2a0003f3 	mov	w19, w0
  974900:	2a0103e0 	mov	w0, w1
  974904:	d2806401 	mov	x1, #0x320                 	// #800
  974908:	f2a7a801 	movk	x1, #0x3d40, lsl #16
  97490c:	d10be021 	sub	x1, x1, #0x2f8
  974910:	b902f83f 	str	wzr, [x1, #760]
  974914:	b9000033 	str	w19, [x1]
  974918:	b9400041 	ldr	w1, [x2]
  97491c:	32030021 	orr	w1, w1, #0x20000000
  974920:	b9000041 	str	w1, [x2]
  974924:	d2800c01 	mov	x1, #0x60                  	// #96
  974928:	f2a7a801 	movk	x1, #0x3d40, lsl #16
  97492c:	b9400022 	ldr	w2, [x1]
  974930:	36080462 	tbz	w2, #1, 9749bc <sw_pstate+0xd0>
  974934:	121e7842 	and	w2, w2, #0xfffffffd
  974938:	b9000022 	str	w2, [x1]
  97493c:	d2803601 	mov	x1, #0x1b0                 	// #432
  974940:	f2a7a801 	movk	x1, #0x3d40, lsl #16
  974944:	53185e73 	lsl	w19, w19, #8
  974948:	d2803794 	mov	x20, #0x1bc                 	// #444
  97494c:	321b0262 	orr	w2, w19, #0x20
  974950:	b9000033 	str	w19, [x1]
  974954:	f2a7a814 	movk	x20, #0x3d40, lsl #16
  974958:	b9000022 	str	w2, [x1]
  97495c:	b9400281 	ldr	w1, [x20]
  974960:	3707ffe1 	tbnz	w1, #0, 97495c <sw_pstate+0x70>
  974964:	52800001 	mov	w1, #0x0                   	// #0
  974968:	97ffff76 	bl	974740 <dram_clock_switch>
  97496c:	d2803600 	mov	x0, #0x1b0                 	// #432
  974970:	f2a7a800 	movk	x0, #0x3d40, lsl #16
  974974:	b9000013 	str	w19, [x0]
  974978:	b9400280 	ldr	w0, [x20]
  97497c:	3607ffe0 	tbz	w0, #0, 974978 <sw_pstate+0x8c>
  974980:	528001c0 	mov	w0, #0xe                   	// #14
  974984:	97fff3eb 	bl	971930 <udelay>
  974988:	d2800601 	mov	x1, #0x30                  	// #48
  97498c:	f2a7a801 	movk	x1, #0x3d40, lsl #16
  974990:	d100b021 	sub	x1, x1, #0x2c
  974994:	b9402c20 	ldr	w0, [x1, #44]
  974998:	121a7800 	and	w0, w0, #0xffffffdf
  97499c:	b9002c20 	str	w0, [x1, #44]
  9749a0:	b9400020 	ldr	w0, [x1]
  9749a4:	12001400 	and	w0, w0, #0x3f
  9749a8:	71008c1f 	cmp	w0, #0x23
  9749ac:	54ffffa0 	b.eq	9749a0 <sw_pstate+0xb4>  // b.none
  9749b0:	a94153f3 	ldp	x19, x20, [sp, #16]
  9749b4:	a8c27bfd 	ldp	x29, x30, [sp], #32
  9749b8:	d65f03c0 	ret
  9749bc:	321f0042 	orr	w2, w2, #0x2
  9749c0:	17ffffde 	b	974938 <sw_pstate+0x4c>

00000000009749c4 <ddr4_swffc>:
  9749c4:	a9be7bfd 	stp	x29, x30, [sp, #-32]!
  9749c8:	d2800602 	mov	x2, #0x30                  	// #48
  9749cc:	f2a7a802 	movk	x2, #0x3d40, lsl #16
  9749d0:	910003fd 	mov	x29, sp
  9749d4:	a90153f3 	stp	x19, x20, [sp, #16]
  9749d8:	aa0003f4 	mov	x20, x0
  9749dc:	2a0103f3 	mov	w19, w1
  9749e0:	f9400c00 	ldr	x0, [x0, #24]
  9749e4:	8b334800 	add	x0, x0, w19, uxtw #2
  9749e8:	b9404c01 	ldr	w1, [x0, #76]
  9749ec:	b9400040 	ldr	w0, [x2]
  9749f0:	121f7800 	and	w0, w0, #0xfffffffe
  9749f4:	b9000040 	str	w0, [x2]
  9749f8:	d2806400 	mov	x0, #0x320                 	// #800
  9749fc:	910f3042 	add	x2, x2, #0x3cc
  974a00:	f2a7a800 	movk	x0, #0x3d40, lsl #16
  974a04:	b900001f 	str	wzr, [x0]
  974a08:	b901701f 	str	wzr, [x0, #368]
  974a0c:	b9400040 	ldr	w0, [x2]
  974a10:	7200801f 	tst	w0, #0x10001
  974a14:	54ffffc1 	b.ne	974a0c <ddr4_swffc+0x48>  // b.any
  974a18:	d2806082 	mov	x2, #0x304                 	// #772
  974a1c:	d2806103 	mov	x3, #0x308                 	// #776
  974a20:	f2a7a802 	movk	x2, #0x3d40, lsl #16
  974a24:	f2a7a803 	movk	x3, #0x3d40, lsl #16
  974a28:	b9400040 	ldr	w0, [x2]
  974a2c:	321f0000 	orr	w0, w0, #0x2
  974a30:	b9000040 	str	w0, [x2]
  974a34:	52a0c002 	mov	w2, #0x6000000             	// #100663296
  974a38:	b9400060 	ldr	w0, [x3]
  974a3c:	12070400 	and	w0, w0, #0x6000000
  974a40:	6b02001f 	cmp	w0, w2
  974a44:	54ffffa1 	b.ne	974a38 <ddr4_swffc+0x74>  // b.any
  974a48:	d2800082 	mov	x2, #0x4                   	// #4
  974a4c:	d2800603 	mov	x3, #0x30                  	// #48
  974a50:	f2a7a802 	movk	x2, #0x3d40, lsl #16
  974a54:	f2a7a803 	movk	x3, #0x3d40, lsl #16
  974a58:	b9400040 	ldr	w0, [x2]
  974a5c:	b9400060 	ldr	w0, [x3]
  974a60:	321b0000 	orr	w0, w0, #0x20
  974a64:	b9000060 	str	w0, [x3]
  974a68:	b9400040 	ldr	w0, [x2]
  974a6c:	12001400 	and	w0, w0, #0x3f
  974a70:	71008c1f 	cmp	w0, #0x23
  974a74:	54ffffa1 	b.ne	974a68 <ddr4_swffc+0xa4>  // b.any
  974a78:	2a1303e0 	mov	w0, w19
  974a7c:	97ffff9c 	bl	9748ec <sw_pstate>
  974a80:	2a1303e1 	mov	w1, w19
  974a84:	aa1403e0 	mov	x0, x20
  974a88:	97ffff7a 	bl	974870 <dram_cfg_all_mr>
  974a8c:	d2806081 	mov	x1, #0x304                 	// #772
  974a90:	f2a7a801 	movk	x1, #0x3d40, lsl #16
  974a94:	91007021 	add	x1, x1, #0x1c
  974a98:	b85e4020 	ldur	w0, [x1, #-28]
  974a9c:	121e7800 	and	w0, w0, #0xfffffffd
  974aa0:	b81e4020 	stur	w0, [x1, #-28]
  974aa4:	52800020 	mov	w0, #0x1                   	// #1
  974aa8:	b9017020 	str	w0, [x1, #368]
  974aac:	b9000020 	str	w0, [x1]
  974ab0:	91001021 	add	x1, x1, #0x4
  974ab4:	b9400020 	ldr	w0, [x1]
  974ab8:	3607ffe0 	tbz	w0, #0, 974ab4 <ddr4_swffc+0xf0>
  974abc:	d2800601 	mov	x1, #0x30                  	// #48
  974ac0:	f2a7a801 	movk	x1, #0x3d40, lsl #16
  974ac4:	a94153f3 	ldp	x19, x20, [sp, #16]
  974ac8:	b9400020 	ldr	w0, [x1]
  974acc:	32000000 	orr	w0, w0, #0x1
  974ad0:	b9000020 	str	w0, [x1]
  974ad4:	a8c27bfd 	ldp	x29, x30, [sp], #32
  974ad8:	d65f03c0 	ret

0000000000974adc <waiting_dvfs>:
  974adc:	a9be7bfd 	stp	x29, x30, [sp, #-32]!
  974ae0:	910003fd 	mov	x29, sp
  974ae4:	a90153f3 	stp	x19, x20, [sp, #16]
  974ae8:	d53800b3 	mrs	x19, mpidr_el1
  974aec:	12001e73 	and	w19, w19, #0xff
  974af0:	97fffd9b 	bl	97415c <plat_ic_acknowledge_interrupt>
  974af4:	710ff41f 	cmp	w0, #0x3fd
  974af8:	54000048 	b.hi	974b00 <waiting_dvfs+0x24>  // b.pmore
  974afc:	97fffd9b 	bl	974168 <plat_ic_end_of_interrupt>
  974b00:	d0000074 	adrp	x20, 982000 <imx_gicv3_ctx+0x1e90>
  974b04:	912b6294 	add	x20, x20, #0xad8
  974b08:	aa1403e0 	mov	x0, x20
  974b0c:	94000f5b 	bl	978878 <spin_lock>
  974b10:	d0000060 	adrp	x0, 982000 <imx_gicv3_ctx+0x1e90>
  974b14:	531d7273 	lsl	w19, w19, #3
  974b18:	52800021 	mov	w1, #0x1                   	// #1
  974b1c:	b94adc02 	ldr	w2, [x0, #2780]
  974b20:	1ad32021 	lsl	w1, w1, w19
  974b24:	2a020021 	orr	w1, w1, w2
  974b28:	b90adc01 	str	w1, [x0, #2780]
  974b2c:	d5033f9f 	dsb	sy
  974b30:	aa1403e0 	mov	x0, x20
  974b34:	94000f59 	bl	978898 <spin_unlock>
  974b38:	f0000020 	adrp	x0, 97b000 <__RO_END__>
  974b3c:	910ab400 	add	x0, x0, #0x2ad
  974b40:	39400001 	ldrb	w1, [x0]
  974b44:	72001c3f 	tst	w1, #0xff
  974b48:	54000060 	b.eq	974b54 <waiting_dvfs+0x78>  // b.none
  974b4c:	d503205f 	wfe
  974b50:	17fffffc 	b	974b40 <waiting_dvfs+0x64>
  974b54:	d2800000 	mov	x0, #0x0                   	// #0
  974b58:	a94153f3 	ldp	x19, x20, [sp, #16]
  974b5c:	a8c27bfd 	ldp	x29, x30, [sp], #32
  974b60:	d65f03c0 	ret

0000000000974b64 <lpddr4_mr_read.constprop.0>:
  974b64:	d2800802 	mov	x2, #0x40                  	// #64
  974b68:	f2a7b002 	movk	x2, #0x3d80, lsl #16
  974b6c:	b9400041 	ldr	w1, [x2]
  974b70:	32000021 	orr	w1, w1, #0x1
  974b74:	b9000041 	str	w1, [x2]
  974b78:	d2800302 	mov	x2, #0x18                  	// #24
  974b7c:	f2a7a802 	movk	x2, #0x3d40, lsl #16
  974b80:	b9400041 	ldr	w1, [x2]
  974b84:	3707ffe1 	tbnz	w1, #0, 974b80 <lpddr4_mr_read.constprop.0+0x1c>
  974b88:	d2800201 	mov	x1, #0x10                  	// #16
  974b8c:	52800222 	mov	w2, #0x11                  	// #17
  974b90:	f2a7a801 	movk	x1, #0x3d40, lsl #16
  974b94:	53185c00 	lsl	w0, w0, #8
  974b98:	91002021 	add	x1, x1, #0x8
  974b9c:	b81f8022 	stur	w2, [x1, #-8]
  974ba0:	d2800282 	mov	x2, #0x14                  	// #20
  974ba4:	f2a7a802 	movk	x2, #0x3d40, lsl #16
  974ba8:	b9000040 	str	w0, [x2]
  974bac:	52800220 	mov	w0, #0x11                  	// #17
  974bb0:	72b00000 	movk	w0, #0x8000, lsl #16
  974bb4:	b81f8020 	stur	w0, [x1, #-8]
  974bb8:	b9400020 	ldr	w0, [x1]
  974bbc:	3707ffe0 	tbnz	w0, #0, 974bb8 <lpddr4_mr_read.constprop.0+0x54>
  974bc0:	d2800802 	mov	x2, #0x40                  	// #64
  974bc4:	f2a7b002 	movk	x2, #0x3d80, lsl #16
  974bc8:	b9400040 	ldr	w0, [x2]
  974bcc:	361fffe0 	tbz	w0, #3, 974bc8 <lpddr4_mr_read.constprop.0+0x64>
  974bd0:	d2800880 	mov	x0, #0x44                  	// #68
  974bd4:	d2800401 	mov	x1, #0x20                  	// #32
  974bd8:	f2a7b000 	movk	x0, #0x3d80, lsl #16
  974bdc:	f2a7a801 	movk	x1, #0x3d40, lsl #16
  974be0:	52800083 	mov	w3, #0x4                   	// #4
  974be4:	b9400000 	ldr	w0, [x0]
  974be8:	b9400021 	ldr	w1, [x1]
  974bec:	b9000043 	str	w3, [x2]
  974bf0:	d3442c21 	ubfx	x1, x1, #4, #8
  974bf4:	531d7021 	lsl	w1, w1, #3
  974bf8:	1ac12400 	lsr	w0, w0, w1
  974bfc:	12001c00 	and	w0, w0, #0xff
  974c00:	d65f03c0 	ret

0000000000974c04 <dram_umctl2_init>:
  974c04:	f9400002 	ldr	x2, [x0]
  974c08:	52800001 	mov	w1, #0x0                   	// #0
  974c0c:	b9400803 	ldr	w3, [x0, #8]
  974c10:	6b01007f 	cmp	w3, w1
  974c14:	540000a8 	b.hi	974c28 <dram_umctl2_init+0x24>  // b.pmore
  974c18:	d2800500 	mov	x0, #0x28                  	// #40
  974c1c:	f2a7a800 	movk	x0, #0x3d40, lsl #16
  974c20:	b900001f 	str	wzr, [x0]
  974c24:	d65f03c0 	ret
  974c28:	b9400444 	ldr	w4, [x2, #4]
  974c2c:	11000421 	add	w1, w1, #0x1
  974c30:	b8408443 	ldr	w3, [x2], #8
  974c34:	b9000064 	str	w4, [x3]
  974c38:	17fffff5 	b	974c0c <dram_umctl2_init+0x8>

0000000000974c3c <dram_phy_init>:
  974c3c:	f9400803 	ldr	x3, [x0, #16]
  974c40:	52800002 	mov	w2, #0x0                   	// #0
  974c44:	52a1e004 	mov	w4, #0xf000000             	// #251658240
  974c48:	b9401801 	ldr	w1, [x0, #24]
  974c4c:	6b02003f 	cmp	w1, w2
  974c50:	540001c8 	b.hi	974c88 <dram_phy_init+0x4c>  // b.pmore
  974c54:	f9401803 	ldr	x3, [x0, #48]
  974c58:	52800002 	mov	w2, #0x0                   	// #0
  974c5c:	52a1e004 	mov	w4, #0xf000000             	// #251658240
  974c60:	b9403801 	ldr	w1, [x0, #56]
  974c64:	6b02003f 	cmp	w1, w2
  974c68:	540001e8 	b.hi	974ca4 <dram_phy_init+0x68>  // b.pmore
  974c6c:	f9402003 	ldr	x3, [x0, #64]
  974c70:	52800002 	mov	w2, #0x0                   	// #0
  974c74:	52a1e004 	mov	w4, #0xf000000             	// #251658240
  974c78:	b9404801 	ldr	w1, [x0, #72]
  974c7c:	6b02003f 	cmp	w1, w2
  974c80:	54000208 	b.hi	974cc0 <dram_phy_init+0x84>  // b.pmore
  974c84:	d65f03c0 	ret
  974c88:	b9400465 	ldr	w5, [x3, #4]
  974c8c:	11000442 	add	w2, w2, #0x1
  974c90:	b8408461 	ldr	w1, [x3], #8
  974c94:	0b040021 	add	w1, w1, w4
  974c98:	531e7421 	lsl	w1, w1, #2
  974c9c:	b9000025 	str	w5, [x1]
  974ca0:	17ffffea 	b	974c48 <dram_phy_init+0xc>
  974ca4:	b9400465 	ldr	w5, [x3, #4]
  974ca8:	11000442 	add	w2, w2, #0x1
  974cac:	b8408461 	ldr	w1, [x3], #8
  974cb0:	0b040021 	add	w1, w1, w4
  974cb4:	531e7421 	lsl	w1, w1, #2
  974cb8:	b9000025 	str	w5, [x1]
  974cbc:	17ffffe9 	b	974c60 <dram_phy_init+0x24>
  974cc0:	b9400465 	ldr	w5, [x3, #4]
  974cc4:	11000442 	add	w2, w2, #0x1
  974cc8:	b8408461 	ldr	w1, [x3], #8
  974ccc:	0b040021 	add	w1, w1, w4
  974cd0:	531e7421 	lsl	w1, w1, #2
  974cd4:	b9000025 	str	w5, [x1]
  974cd8:	17ffffe8 	b	974c78 <dram_phy_init+0x3c>

0000000000974cdc <dram_info_init>:
  974cdc:	a9bd7bfd 	stp	x29, x30, [sp, #-48]!
  974ce0:	aa0003e7 	mov	x7, x0
  974ce4:	d2a7a800 	mov	x0, #0x3d400000            	// #1027604480
  974ce8:	910003fd 	mov	x29, sp
  974cec:	b9400000 	ldr	w0, [x0]
  974cf0:	b0000025 	adrp	x5, 979000 <vprintf+0x2b4>
  974cf4:	a90153f3 	stp	x19, x20, [sp, #16]
  974cf8:	90000073 	adrp	x19, 980000 <tf_mmap+0x258>
  974cfc:	12001401 	and	w1, w0, #0x3f
  974d00:	d3586400 	ubfx	x0, x0, #24, #2
  974d04:	b900ca61 	str	w1, [x19, #200]
  974d08:	71000c1f 	cmp	w0, #0x3
  974d0c:	91032261 	add	x1, x19, #0xc8
  974d10:	1a9f17e0 	cset	w0, eq  // eq = none
  974d14:	f90013f5 	str	x21, [sp, #32]
  974d18:	11000400 	add	w0, w0, #0x1
  974d1c:	9116b0a5 	add	x5, x5, #0x5ac
  974d20:	b9000420 	str	w0, [x1, #4]
  974d24:	d2803600 	mov	x0, #0x1b0                 	// #432
  974d28:	f2a7a800 	movk	x0, #0x3d40, lsl #16
  974d2c:	aa0103ea 	mov	x10, x1
  974d30:	aa0103e6 	mov	x6, x1
  974d34:	52800064 	mov	w4, #0x3                   	// #3
  974d38:	b9400014 	ldr	w20, [x0]
  974d3c:	d3482e94 	ubfx	x20, x20, #8, #4
  974d40:	2901d034 	stp	w20, w20, [x1, #12]
  974d44:	aa0603e8 	mov	x8, x6
  974d48:	910080c6 	add	x6, x6, #0x20
  974d4c:	aa0603e1 	mov	x1, x6
  974d50:	aa0503e0 	mov	x0, x5
  974d54:	91010103 	add	x3, x8, #0x40
  974d58:	b8404402 	ldr	w2, [x0], #4
  974d5c:	b9400042 	ldr	w2, [x2]
  974d60:	53107c49 	lsr	w9, w2, #16
  974d64:	12003c42 	and	w2, w2, #0xffff
  974d68:	29000829 	stp	w9, w2, [x1]
  974d6c:	91002021 	add	x1, x1, #0x8
  974d70:	eb03003f 	cmp	x1, x3
  974d74:	54ffff21 	b.ne	974d58 <dram_info_init+0x7c>  // b.any
  974d78:	b940ca60 	ldr	w0, [x19, #200]
  974d7c:	7100801f 	cmp	w0, #0x20
  974d80:	540000e1 	b.ne	974d9c <dram_info_init+0xc0>  // b.any
  974d84:	52800180 	mov	w0, #0xc                   	// #12
  974d88:	97ffff77 	bl	974b64 <lpddr4_mr_read.constprop.0>
  974d8c:	b9003500 	str	w0, [x8, #52]
  974d90:	528001c0 	mov	w0, #0xe                   	// #14
  974d94:	97ffff74 	bl	974b64 <lpddr4_mr_read.constprop.0>
  974d98:	b9003d00 	str	w0, [x8, #60]
  974d9c:	910040a5 	add	x5, x5, #0x10
  974da0:	71000484 	subs	w4, w4, #0x1
  974da4:	54fffd01 	b.ne	974d44 <dram_info_init+0x68>  // b.any
  974da8:	91032260 	add	x0, x19, #0xc8
  974dac:	52800001 	mov	w1, #0x0                   	// #0
  974db0:	d2800002 	mov	x2, #0x0                   	// #0
  974db4:	f9000c07 	str	x7, [x0, #24]
  974db8:	910130e0 	add	x0, x7, #0x4c
  974dbc:	b8627805 	ldr	w5, [x0, x2, lsl #2]
  974dc0:	2a0103e3 	mov	w3, w1
  974dc4:	2a0203e1 	mov	w1, w2
  974dc8:	340000c5 	cbz	w5, 974de0 <dram_info_init+0x104>
  974dcc:	91000442 	add	x2, x2, #0x1
  974dd0:	f100105f 	cmp	x2, #0x4
  974dd4:	54ffff41 	b.ne	974dbc <dram_info_init+0xe0>  // b.any
  974dd8:	2a0203e1 	mov	w1, w2
  974ddc:	52800063 	mov	w3, #0x3                   	// #3
  974de0:	91032260 	add	x0, x19, #0xc8
  974de4:	71000c3f 	cmp	w1, #0x3
  974de8:	52800062 	mov	w2, #0x3                   	// #3
  974dec:	1a829022 	csel	w2, w1, w2, ls  // ls = plast
  974df0:	b9000802 	str	w2, [x0, #8]
  974df4:	34000701 	cbz	w1, 974ed4 <dram_info_init+0x1f8>
  974df8:	b940ca65 	ldr	w5, [x19, #200]
  974dfc:	52802106 	mov	w6, #0x108                 	// #264
  974e00:	52802488 	mov	w8, #0x124                 	// #292
  974e04:	52801e89 	mov	w9, #0xf4                  	// #244
  974e08:	72a7a806 	movk	w6, #0x3d40, lsl #16
  974e0c:	72a7a808 	movk	w8, #0x3d40, lsl #16
  974e10:	72a7a809 	movk	w9, #0x3d40, lsl #16
  974e14:	6b04005f 	cmp	w2, w4
  974e18:	540001e1 	b.ne	974e54 <dram_info_init+0x178>  // b.any
  974e1c:	8b2348e3 	add	x3, x7, w3, uxtw #2
  974e20:	91032275 	add	x21, x19, #0xc8
  974e24:	90000001 	adrp	x1, 974000 <init_xlat_tables_ctx+0x28>
  974e28:	52800042 	mov	w2, #0x2                   	// #2
  974e2c:	912b7021 	add	x1, x1, #0xadc
  974e30:	b9404c60 	ldr	w0, [x3, #76]
  974e34:	710a641f 	cmp	w0, #0x299
  974e38:	1a9f87e0 	cset	w0, ls  // ls = plast
  974e3c:	390052a0 	strb	w0, [x21, #20]
  974e40:	52800020 	mov	w0, #0x1                   	// #1
  974e44:	97ffed93 	bl	970490 <register_interrupt_type_handler>
  974e48:	34000280 	cbz	w0, 974e98 <dram_info_init+0x1bc>
  974e4c:	97fff2a4 	bl	9718dc <console_flush>
  974e50:	94000c4b 	bl	977f7c <el3_panic>
  974e54:	11000480 	add	w0, w4, #0x1
  974e58:	34000044 	cbz	w4, 974e60 <dram_info_init+0x184>
  974e5c:	53144c04 	lsl	w4, w0, #12
  974e60:	0b060081 	add	w1, w4, w6
  974e64:	b9400021 	ldr	w1, [x1]
  974e68:	b9008141 	str	w1, [x10, #128]
  974e6c:	710080bf 	cmp	w5, #0x20
  974e70:	54000080 	b.eq	974e80 <dram_info_init+0x1a4>  // b.none
  974e74:	0b080081 	add	w1, w4, w8
  974e78:	b9400021 	ldr	w1, [x1]
  974e7c:	b9008541 	str	w1, [x10, #132]
  974e80:	0b090084 	add	w4, w4, w9
  974e84:	9100314a 	add	x10, x10, #0xc
  974e88:	b9400084 	ldr	w4, [x4]
  974e8c:	b9007d44 	str	w4, [x10, #124]
  974e90:	2a0003e4 	mov	w4, w0
  974e94:	17ffffe0 	b	974e14 <dram_info_init+0x138>
  974e98:	b940ca60 	ldr	w0, [x19, #200]
  974e9c:	7100801f 	cmp	w0, #0x20
  974ea0:	54000221 	b.ne	974ee4 <dram_info_init+0x208>  // b.any
  974ea4:	34000194 	cbz	w20, 974ed4 <dram_info_init+0x1f8>
  974ea8:	f0000033 	adrp	x19, 97b000 <__RO_END__>
  974eac:	d2800040 	mov	x0, #0x2                   	// #2
  974eb0:	94000ca8 	bl	978150 <dcsw_op_all>
  974eb4:	b9422a61 	ldr	w1, [x19, #552]
  974eb8:	aa1503e0 	mov	x0, x21
  974ebc:	52800002 	mov	w2, #0x0                   	// #0
  974ec0:	940001b0 	bl	975580 <lpddr4_swffc>
  974ec4:	b9422a60 	ldr	w0, [x19, #552]
  974ec8:	2a2003e0 	mvn	w0, w0
  974ecc:	12000000 	and	w0, w0, #0x1
  974ed0:	b9022a60 	str	w0, [x19, #552]
  974ed4:	a94153f3 	ldp	x19, x20, [sp, #16]
  974ed8:	f94013f5 	ldr	x21, [sp, #32]
  974edc:	a8c37bfd 	ldp	x29, x30, [sp], #48
  974ee0:	d65f03c0 	ret
  974ee4:	34ffff94 	cbz	w20, 974ed4 <dram_info_init+0x1f8>
  974ee8:	d2800040 	mov	x0, #0x2                   	// #2
  974eec:	94000c99 	bl	978150 <dcsw_op_all>
  974ef0:	aa1503e0 	mov	x0, x21
  974ef4:	52800001 	mov	w1, #0x0                   	// #0
  974ef8:	a94153f3 	ldp	x19, x20, [sp, #16]
  974efc:	f94013f5 	ldr	x21, [sp, #32]
  974f00:	a8c37bfd 	ldp	x29, x30, [sp], #48
  974f04:	17fffeb0 	b	9749c4 <ddr4_swffc>

0000000000974f08 <dram_dvfs_get_freq_info>:
  974f08:	f1000c3f 	cmp	x1, #0x3
  974f0c:	54000628 	b.hi	974fd0 <dram_dvfs_get_freq_info+0xc8>  // b.pmore
  974f10:	71000c3f 	cmp	w1, #0x3
  974f14:	540005e8 	b.hi	974fd0 <dram_dvfs_get_freq_info+0xc8>  // b.pmore
  974f18:	b0000023 	adrp	x3, 979000 <vprintf+0x2b4>
  974f1c:	90000062 	adrp	x2, 980000 <tf_mmap+0x258>
  974f20:	9116a063 	add	x3, x3, #0x5a8
  974f24:	38614863 	ldrb	w3, [x3, w1, uxtw]
  974f28:	10000061 	adr	x1, 974f34 <dram_dvfs_get_freq_info+0x2c>
  974f2c:	8b238823 	add	x3, x1, w3, sxtb #2
  974f30:	d61f0060 	br	x3
  974f34:	91032042 	add	x2, x2, #0xc8
  974f38:	d28000a1 	mov	x1, #0x5                   	// #5
  974f3c:	a901041f 	stp	xzr, x1, [x0, #16]
  974f40:	d2800021 	mov	x1, #0x1                   	// #1
  974f44:	f9000401 	str	x1, [x0, #8]
  974f48:	f9400c41 	ldr	x1, [x2, #24]
  974f4c:	b9404c21 	ldr	w1, [x1, #76]
  974f50:	f9000001 	str	x1, [x0]
  974f54:	d65f03c0 	ret
  974f58:	91032042 	add	x2, x2, #0xc8
  974f5c:	f9400c41 	ldr	x1, [x2, #24]
  974f60:	39405042 	ldrb	w2, [x2, #20]
  974f64:	b9405021 	ldr	w1, [x1, #80]
  974f68:	35000082 	cbnz	w2, 974f78 <dram_dvfs_get_freq_info+0x70>
  974f6c:	d2800022 	mov	x2, #0x1                   	// #1
  974f70:	a9017c1f 	stp	xzr, xzr, [x0, #16]
  974f74:	14000005 	b	974f88 <dram_dvfs_get_freq_info+0x80>
  974f78:	d2800082 	mov	x2, #0x4                   	// #4
  974f7c:	f9000c02 	str	x2, [x0, #24]
  974f80:	d2800042 	mov	x2, #0x2                   	// #2
  974f84:	f9000802 	str	x2, [x0, #16]
  974f88:	f9000402 	str	x2, [x0, #8]
  974f8c:	17fffff1 	b	974f50 <dram_dvfs_get_freq_info+0x48>
  974f90:	91032042 	add	x2, x2, #0xc8
  974f94:	f9400c41 	ldr	x1, [x2, #24]
  974f98:	39405042 	ldrb	w2, [x2, #20]
  974f9c:	b9405421 	ldr	w1, [x1, #84]
  974fa0:	34fffe62 	cbz	w2, 974f6c <dram_dvfs_get_freq_info+0x64>
  974fa4:	d2800062 	mov	x2, #0x3                   	// #3
  974fa8:	a9010802 	stp	x2, x2, [x0, #16]
  974fac:	d2800042 	mov	x2, #0x2                   	// #2
  974fb0:	17fffff6 	b	974f88 <dram_dvfs_get_freq_info+0x80>
  974fb4:	91032042 	add	x2, x2, #0xc8
  974fb8:	d2800021 	mov	x1, #0x1                   	// #1
  974fbc:	a900fc01 	stp	x1, xzr, [x0, #8]
  974fc0:	f9400c41 	ldr	x1, [x2, #24]
  974fc4:	f9000c1f 	str	xzr, [x0, #24]
  974fc8:	b9405821 	ldr	w1, [x1, #88]
  974fcc:	17ffffe1 	b	974f50 <dram_dvfs_get_freq_info+0x48>
  974fd0:	92800041 	mov	x1, #0xfffffffffffffffd    	// #-3
  974fd4:	17ffffdf 	b	974f50 <dram_dvfs_get_freq_info+0x48>

0000000000974fd8 <dram_dvfs_handler>:
  974fd8:	a9bb7bfd 	stp	x29, x30, [sp, #-80]!
  974fdc:	910003fd 	mov	x29, sp
  974fe0:	a90153f3 	stp	x19, x20, [sp, #16]
  974fe4:	aa0103f3 	mov	x19, x1
  974fe8:	a9025bf5 	stp	x21, x22, [sp, #32]
  974fec:	a90363f7 	stp	x23, x24, [sp, #48]
  974ff0:	a9046bf9 	stp	x25, x26, [sp, #64]
  974ff4:	d53800b5 	mrs	x21, mpidr_el1
  974ff8:	f100405f 	cmp	x2, #0x10
  974ffc:	54000161 	b.ne	975028 <dram_dvfs_handler+0x50>  // b.any
  975000:	f0000040 	adrp	x0, 980000 <tf_mmap+0x258>
  975004:	b940d000 	ldr	w0, [x0, #208]
  975008:	f9000020 	str	x0, [x1]
  97500c:	2a1303e0 	mov	w0, w19
  975010:	a94153f3 	ldp	x19, x20, [sp, #16]
  975014:	a9425bf5 	ldp	x21, x22, [sp, #32]
  975018:	a94363f7 	ldp	x23, x24, [sp, #48]
  97501c:	a9446bf9 	ldp	x25, x26, [sp, #64]
  975020:	a8c57bfd 	ldp	x29, x30, [sp], #80
  975024:	d65f03c0 	ret
  975028:	aa0203f4 	mov	x20, x2
  97502c:	aa0303f8 	mov	x24, x3
  975030:	f100445f 	cmp	x2, #0x11
  975034:	54000121 	b.ne	975058 <dram_dvfs_handler+0x80>  // b.any
  975038:	aa1303e0 	mov	x0, x19
  97503c:	aa0303e1 	mov	x1, x3
  975040:	a94153f3 	ldp	x19, x20, [sp, #16]
  975044:	a9425bf5 	ldp	x21, x22, [sp, #32]
  975048:	a94363f7 	ldp	x23, x24, [sp, #48]
  97504c:	a9446bf9 	ldp	x25, x26, [sp, #64]
  975050:	a8c57bfd 	ldp	x29, x30, [sp], #80
  975054:	17ffffad 	b	974f08 <dram_dvfs_get_freq_info>
  975058:	f100085f 	cmp	x2, #0x2
  97505c:	54000688 	b.hi	97512c <dram_dvfs_handler+0x154>  // b.pmore
  975060:	d0000037 	adrp	x23, 97b000 <__RO_END__>
  975064:	52800020 	mov	w0, #0x1                   	// #1
  975068:	12001eb5 	and	w21, w21, #0xff
  97506c:	2a0303f9 	mov	w25, w3
  975070:	390ab6e0 	strb	w0, [x23, #685]
  975074:	d5033f9f 	dsb	sy
  975078:	d2800016 	mov	x22, #0x0                   	// #0
  97507c:	5280003a 	mov	w26, #0x1                   	// #1
  975080:	6b1602bf 	cmp	w21, w22
  975084:	54000100 	b.eq	9750a4 <dram_dvfs_handler+0xcc>  // b.none
  975088:	531d72c0 	lsl	w0, w22, #3
  97508c:	1ac02340 	lsl	w0, w26, w0
  975090:	6a19001f 	tst	w0, w25
  975094:	54000080 	b.eq	9750a4 <dram_dvfs_handler+0xcc>  // b.none
  975098:	aa1603e1 	mov	x1, x22
  97509c:	52800100 	mov	w0, #0x8                   	// #8
  9750a0:	97fffc4b 	bl	9741cc <plat_ic_raise_el3_sgi>
  9750a4:	910006d6 	add	x22, x22, #0x1
  9750a8:	f10012df 	cmp	x22, #0x4
  9750ac:	54fffea1 	b.ne	975080 <dram_dvfs_handler+0xa8>  // b.any
  9750b0:	531d72b5 	lsl	w21, w21, #3
  9750b4:	52800020 	mov	w0, #0x1                   	// #1
  9750b8:	b0000076 	adrp	x22, 982000 <imx_gicv3_ctx+0x1e90>
  9750bc:	912b72c1 	add	x1, x22, #0xadc
  9750c0:	1ad52000 	lsl	w0, w0, w21
  9750c4:	0a200303 	bic	w3, w24, w0
  9750c8:	b9400020 	ldr	w0, [x1]
  9750cc:	6b03001f 	cmp	w0, w3
  9750d0:	54ffffc1 	b.ne	9750c8 <dram_dvfs_handler+0xf0>  // b.any
  9750d4:	f0000055 	adrp	x21, 980000 <tf_mmap+0x258>
  9750d8:	d2800040 	mov	x0, #0x2                   	// #2
  9750dc:	94000c1d 	bl	978150 <dcsw_op_all>
  9750e0:	b940caa1 	ldr	w1, [x21, #200]
  9750e4:	910322a0 	add	x0, x21, #0xc8
  9750e8:	7100803f 	cmp	w1, #0x20
  9750ec:	54000241 	b.ne	975134 <dram_dvfs_handler+0x15c>  // b.any
  9750f0:	d0000038 	adrp	x24, 97b000 <__RO_END__>
  9750f4:	2a1403e2 	mov	w2, w20
  9750f8:	b9422b01 	ldr	w1, [x24, #552]
  9750fc:	94000121 	bl	975580 <lpddr4_swffc>
  975100:	b9422b00 	ldr	w0, [x24, #552]
  975104:	2a2003e0 	mvn	w0, w0
  975108:	12000000 	and	w0, w0, #0x1
  97510c:	b9022b00 	str	w0, [x24, #552]
  975110:	910322b5 	add	x21, x21, #0xc8
  975114:	390ab6ff 	strb	wzr, [x23, #685]
  975118:	b90adedf 	str	wzr, [x22, #2780]
  97511c:	b9000eb4 	str	w20, [x21, #12]
  975120:	d5033f9f 	dsb	sy
  975124:	d503209f 	sev
  975128:	d5033fdf 	isb
  97512c:	f900027f 	str	xzr, [x19]
  975130:	17ffffb7 	b	97500c <dram_dvfs_handler+0x34>
  975134:	2a1403e1 	mov	w1, w20
  975138:	97fffe23 	bl	9749c4 <ddr4_swffc>
  97513c:	17fffff5 	b	975110 <dram_dvfs_handler+0x138>

0000000000975140 <rank_setting_update>:
  975140:	90000024 	adrp	x4, 979000 <vprintf+0x2b4>
  975144:	52802105 	mov	w5, #0x108                 	// #264
  975148:	52802487 	mov	w7, #0x124                 	// #292
  97514c:	52801e88 	mov	w8, #0xf4                  	// #244
  975150:	f9470081 	ldr	x1, [x4, #3584]
  975154:	52800062 	mov	w2, #0x3                   	// #3
  975158:	72a7a805 	movk	w5, #0x3d40, lsl #16
  97515c:	72a7a807 	movk	w7, #0x3d40, lsl #16
  975160:	aa0103e6 	mov	x6, x1
  975164:	72a7a808 	movk	w8, #0x3d40, lsl #16
  975168:	b9400820 	ldr	w0, [x1, #8]
  97516c:	71000c1f 	cmp	w0, #0x3
  975170:	1a829002 	csel	w2, w0, w2, ls  // ls = plast
  975174:	52800000 	mov	w0, #0x0                   	// #0
  975178:	6b02001f 	cmp	w0, w2
  97517c:	54000041 	b.ne	975184 <rank_setting_update+0x44>  // b.any
  975180:	d65f03c0 	ret
  975184:	11000403 	add	w3, w0, #0x1
  975188:	34000040 	cbz	w0, 975190 <rank_setting_update+0x50>
  97518c:	53144c60 	lsl	w0, w3, #12
  975190:	0b050004 	add	w4, w0, w5
  975194:	b9408029 	ldr	w9, [x1, #128]
  975198:	b9000089 	str	w9, [x4]
  97519c:	b94000c4 	ldr	w4, [x6]
  9751a0:	7100809f 	cmp	w4, #0x20
  9751a4:	54000080 	b.eq	9751b4 <rank_setting_update+0x74>  // b.none
  9751a8:	0b070004 	add	w4, w0, w7
  9751ac:	b9408429 	ldr	w9, [x1, #132]
  9751b0:	b9000089 	str	w9, [x4]
  9751b4:	0b080000 	add	w0, w0, w8
  9751b8:	b9408824 	ldr	w4, [x1, #136]
  9751bc:	91003021 	add	x1, x1, #0xc
  9751c0:	b9000004 	str	w4, [x0]
  9751c4:	2a0303e0 	mov	w0, w3
  9751c8:	17ffffec 	b	975178 <rank_setting_update+0x38>

00000000009751cc <dram_enter_retention>:
  9751cc:	d2806102 	mov	x2, #0x308                 	// #776
  9751d0:	52a6c000 	mov	w0, #0x36000000            	// #905969664
  9751d4:	f2a7a802 	movk	x2, #0x3d40, lsl #16
  9751d8:	b9400041 	ldr	w1, [x2]
  9751dc:	6b00003f 	cmp	w1, w0
  9751e0:	54ffffc1 	b.ne	9751d8 <dram_enter_retention+0xc>  // b.any
  9751e4:	d2809200 	mov	x0, #0x490                 	// #1168
  9751e8:	d2807f81 	mov	x1, #0x3fc                 	// #1020
  9751ec:	f2a7a800 	movk	x0, #0x3d40, lsl #16
  9751f0:	f2a7a801 	movk	x1, #0x3d40, lsl #16
  9751f4:	b900001f 	str	wzr, [x0]
  9751f8:	b9400020 	ldr	w0, [x1]
  9751fc:	7200801f 	tst	w0, #0x10001
  975200:	54ffffc1 	b.ne	9751f8 <dram_enter_retention+0x2c>  // b.any
  975204:	d2800600 	mov	x0, #0x30                  	// #48
  975208:	52801541 	mov	w1, #0xaa                  	// #170
  97520c:	f2a7a800 	movk	x0, #0x3d40, lsl #16
  975210:	b9000001 	str	w1, [x0]
  975214:	90000020 	adrp	x0, 979000 <vprintf+0x2b4>
  975218:	d2800081 	mov	x1, #0x4                   	// #4
  97521c:	f9470000 	ldr	x0, [x0, #3584]
  975220:	f2a7a801 	movk	x1, #0x3d40, lsl #16
  975224:	b9400000 	ldr	w0, [x0]
  975228:	7100801f 	cmp	w0, #0x20
  97522c:	54000841 	b.ne	975334 <dram_enter_retention+0x168>  // b.any
  975230:	528067e2 	mov	w2, #0x33f                 	// #831
  975234:	b9400020 	ldr	w0, [x1]
  975238:	0a020000 	and	w0, w0, w2
  97523c:	71088c1f 	cmp	w0, #0x223
  975240:	54ffffa1 	b.ne	975234 <dram_enter_retention+0x68>  // b.any
  975244:	d2803600 	mov	x0, #0x1b0                 	// #432
  975248:	d2806401 	mov	x1, #0x320                 	// #800
  97524c:	f2a7a800 	movk	x0, #0x3d40, lsl #16
  975250:	f2a7a801 	movk	x1, #0x3d40, lsl #16
  975254:	b900001f 	str	wzr, [x0]
  975258:	b900003f 	str	wzr, [x1]
  97525c:	5283e001 	mov	w1, #0x1f00                	// #7936
  975260:	b9000001 	str	w1, [x0]
  975264:	5283e401 	mov	w1, #0x1f20                	// #7968
  975268:	b9000001 	str	w1, [x0]
  97526c:	d2803781 	mov	x1, #0x1bc                 	// #444
  975270:	f2a7a801 	movk	x1, #0x3d40, lsl #16
  975274:	b9400022 	ldr	w2, [x1]
  975278:	3707ffe2 	tbnz	w2, #0, 975274 <dram_enter_retention+0xa8>
  97527c:	5283e002 	mov	w2, #0x1f00                	// #7936
  975280:	b9000002 	str	w2, [x0]
  975284:	b9400020 	ldr	w0, [x1]
  975288:	3607ffe0 	tbz	w0, #0, 975284 <dram_enter_retention+0xb8>
  97528c:	d2806400 	mov	x0, #0x320                 	// #800
  975290:	52800021 	mov	w1, #0x1                   	// #1
  975294:	f2a7a800 	movk	x0, #0x3d40, lsl #16
  975298:	d2801402 	mov	x2, #0xa0                  	// #160
  97529c:	f2a78482 	movk	x2, #0x3c24, lsl #16
  9752a0:	b9000001 	str	w1, [x0]
  9752a4:	d2a78680 	mov	x0, #0x3c340000            	// #1010040832
  9752a8:	b900001f 	str	wzr, [x0]
  9752ac:	b9400042 	ldr	w2, [x2]
  9752b0:	b9000001 	str	w1, [x0]
  9752b4:	d2803200 	mov	x0, #0x190                 	// #400
  9752b8:	f2a60740 	movk	x0, #0x303a, lsl #16
  9752bc:	b9400001 	ldr	w1, [x0]
  9752c0:	12147821 	and	w1, w1, #0xfffff7ff
  9752c4:	b9000001 	str	w1, [x0]
  9752c8:	b9400001 	ldr	w1, [x0]
  9752cc:	37dfffe1 	tbnz	w1, #27, 9752c8 <dram_enter_retention+0xfc>
  9752d0:	b9400001 	ldr	w1, [x0]
  9752d4:	32150021 	orr	w1, w1, #0x800
  9752d8:	b9000001 	str	w1, [x0]
  9752dc:	d2820000 	mov	x0, #0x1000                	// #4096
  9752e0:	52800101 	mov	w1, #0x8                   	// #8
  9752e4:	f2a60720 	movk	x0, #0x3039, lsl #16
  9752e8:	72b1e001 	movk	w1, #0x8f00, lsl #16
  9752ec:	b9000001 	str	w1, [x0]
  9752f0:	d2880a00 	mov	x0, #0x4050                	// #16464
  9752f4:	f2a60700 	movk	x0, #0x3038, lsl #16
  9752f8:	52800041 	mov	w1, #0x2                   	// #2
  9752fc:	b900001f 	str	wzr, [x0]
  975300:	d2811e00 	mov	x0, #0x8f0                 	// #2288
  975304:	f2a60700 	movk	x0, #0x3038, lsl #16
  975308:	b9000001 	str	w1, [x0]
  97530c:	d281f801 	mov	x1, #0xfc0                 	// #4032
  975310:	f2a60741 	movk	x1, #0x303a, lsl #16
  975314:	d13b7021 	sub	x1, x1, #0xedc
  975318:	b94edc20 	ldr	w0, [x1, #3804]
  97531c:	32000000 	orr	w0, w0, #0x1
  975320:	b90edc20 	str	w0, [x1, #3804]
  975324:	b9400020 	ldr	w0, [x1]
  975328:	320d0000 	orr	w0, w0, #0x80000
  97532c:	b9000020 	str	w0, [x1]
  975330:	d65f03c0 	ret
  975334:	b9400020 	ldr	w0, [x1]
  975338:	12001400 	and	w0, w0, #0x3f
  97533c:	71008c1f 	cmp	w0, #0x23
  975340:	54ffffa1 	b.ne	975334 <dram_enter_retention+0x168>  // b.any
  975344:	17ffffc0 	b	975244 <dram_enter_retention+0x78>

0000000000975348 <dram_exit_retention>:
  975348:	a9be7bfd 	stp	x29, x30, [sp, #-32]!
  97534c:	d2820000 	mov	x0, #0x1000                	// #4096
  975350:	f2a60720 	movk	x0, #0x3039, lsl #16
  975354:	910003fd 	mov	x29, sp
  975358:	528003e1 	mov	w1, #0x1f                  	// #31
  97535c:	d2880a02 	mov	x2, #0x4050                	// #16464
  975360:	f9000bf3 	str	x19, [sp, #16]
  975364:	72b1e001 	movk	w1, #0x8f00, lsl #16
  975368:	f2a60702 	movk	x2, #0x3038, lsl #16
  97536c:	b9000001 	str	w1, [x0]
  975370:	51004021 	sub	w1, w1, #0x10
  975374:	b9000001 	str	w1, [x0]
  975378:	52800041 	mov	w1, #0x2                   	// #2
  97537c:	b9000041 	str	w1, [x2]
  975380:	d2811e02 	mov	x2, #0x8f0                 	// #2288
  975384:	f2a60702 	movk	x2, #0x3038, lsl #16
  975388:	b9000041 	str	w1, [x2]
  97538c:	d2941101 	mov	x1, #0xa088                	// #41096
  975390:	f2a60701 	movk	x1, #0x3038, lsl #16
  975394:	52a0e0e2 	mov	w2, #0x7070000             	// #117899264
  975398:	b9000022 	str	w2, [x1]
  97539c:	52a08062 	mov	w2, #0x4030000             	// #67305472
  9753a0:	b81fc022 	stur	w2, [x1, #-4]
  9753a4:	d2801b02 	mov	x2, #0xd8                  	// #216
  9753a8:	f2a60742 	movk	x2, #0x303a, lsl #16
  9753ac:	b9400041 	ldr	w1, [x2]
  9753b0:	320d0021 	orr	w1, w1, #0x80000
  9753b4:	b9000041 	str	w1, [x2]
  9753b8:	528000c1 	mov	w1, #0x6                   	// #6
  9753bc:	72b1e001 	movk	w1, #0x8f00, lsl #16
  9753c0:	b9000001 	str	w1, [x0]
  9753c4:	d2800a01 	mov	x1, #0x50                  	// #80
  9753c8:	f2a606c1 	movk	x1, #0x3036, lsl #16
  9753cc:	b9400020 	ldr	w0, [x1]
  9753d0:	36ffffe0 	tbz	w0, #31, 9753cc <dram_exit_retention+0x84>
  9753d4:	90000020 	adrp	x0, 979000 <vprintf+0x2b4>
  9753d8:	f9470013 	ldr	x19, [x0, #3584]
  9753dc:	f9400e60 	ldr	x0, [x19, #24]
  9753e0:	97fffe09 	bl	974c04 <dram_umctl2_init>
  9753e4:	d2801a01 	mov	x1, #0xd0                  	// #208
  9753e8:	f2a7a801 	movk	x1, #0x3d40, lsl #16
  9753ec:	b9400020 	ldr	w0, [x1]
  9753f0:	32020400 	orr	w0, w0, #0xc0000000
  9753f4:	b9000020 	str	w0, [x1]
  9753f8:	d2800600 	mov	x0, #0x30                  	// #48
  9753fc:	52801541 	mov	w1, #0xaa                  	// #170
  975400:	f2a7a800 	movk	x0, #0x3d40, lsl #16
  975404:	b9000001 	str	w1, [x0]
  975408:	52800081 	mov	w1, #0x4                   	// #4
  97540c:	b902d41f 	str	wzr, [x0, #724]
  975410:	d2820000 	mov	x0, #0x1000                	// #4096
  975414:	f2a60720 	movk	x0, #0x3039, lsl #16
  975418:	72b1e001 	movk	w1, #0x8f00, lsl #16
  97541c:	b9000001 	str	w1, [x0]
  975420:	52b1e001 	mov	w1, #0x8f000000            	// #-1895825408
  975424:	b9000001 	str	w1, [x0]
  975428:	d2806400 	mov	x0, #0x320                 	// #800
  97542c:	f2a7a800 	movk	x0, #0x3d40, lsl #16
  975430:	b900001f 	str	wzr, [x0]
  975434:	b9400260 	ldr	w0, [x19]
  975438:	7100801f 	cmp	w0, #0x20
  97543c:	54000081 	b.ne	97544c <dram_exit_retention+0x104>  // b.any
  975440:	d2a7a000 	mov	x0, #0x3d000000            	// #1023410176
  975444:	52800021 	mov	w1, #0x1                   	// #1
  975448:	b9000001 	str	w1, [x0]
  97544c:	d2803600 	mov	x0, #0x1b0                 	// #432
  975450:	f2a7a800 	movk	x0, #0x3d40, lsl #16
  975454:	b900001f 	str	wzr, [x0]
  975458:	90000020 	adrp	x0, 979000 <vprintf+0x2b4>
  97545c:	f9470000 	ldr	x0, [x0, #3584]
  975460:	f9400c00 	ldr	x0, [x0, #24]
  975464:	97fffdf6 	bl	974c3c <dram_phy_init>
  975468:	97ffff36 	bl	975140 <rank_setting_update>
  97546c:	d2a78680 	mov	x0, #0x3c340000            	// #1010040832
  975470:	d2804b81 	mov	x1, #0x25c                 	// #604
  975474:	f2a78101 	movk	x1, #0x3c08, lsl #16
  975478:	b900001f 	str	wzr, [x0]
  97547c:	b9400020 	ldr	w0, [x1]
  975480:	35ffffe0 	cbnz	w0, 97547c <dram_exit_retention+0x134>
  975484:	d2a78680 	mov	x0, #0x3c340000            	// #1010040832
  975488:	52800021 	mov	w1, #0x1                   	// #1
  97548c:	d2803782 	mov	x2, #0x1bc                 	// #444
  975490:	b9000001 	str	w1, [x0]
  975494:	d2806400 	mov	x0, #0x320                 	// #800
  975498:	f2a7a800 	movk	x0, #0x3d40, lsl #16
  97549c:	d105c000 	sub	x0, x0, #0x170
  9754a0:	52800401 	mov	w1, #0x20                  	// #32
  9754a4:	f2a7a802 	movk	x2, #0x3d40, lsl #16
  9754a8:	b901701f 	str	wzr, [x0, #368]
  9754ac:	b9000001 	str	w1, [x0]
  9754b0:	b9400041 	ldr	w1, [x2]
  9754b4:	3607ffe1 	tbz	w1, #0, 9754b0 <dram_exit_retention+0x168>
  9754b8:	b900001f 	str	wzr, [x0]
  9754bc:	52800021 	mov	w1, #0x1                   	// #1
  9754c0:	b9000001 	str	w1, [x0]
  9754c4:	d2806400 	mov	x0, #0x320                 	// #800
  9754c8:	f2a7a800 	movk	x0, #0x3d40, lsl #16
  9754cc:	b9000001 	str	w1, [x0]
  9754d0:	d2806481 	mov	x1, #0x324                 	// #804
  9754d4:	f2a7a801 	movk	x1, #0x3d40, lsl #16
  9754d8:	b9400020 	ldr	w0, [x1]
  9754dc:	3607ffe0 	tbz	w0, #0, 9754d8 <dram_exit_retention+0x190>
  9754e0:	d2800600 	mov	x0, #0x30                  	// #48
  9754e4:	52801101 	mov	w1, #0x88                  	// #136
  9754e8:	f2a7a800 	movk	x0, #0x3d40, lsl #16
  9754ec:	b9000001 	str	w1, [x0]
  9754f0:	d2800081 	mov	x1, #0x4                   	// #4
  9754f4:	f2a7a801 	movk	x1, #0x3d40, lsl #16
  9754f8:	b9400020 	ldr	w0, [x1]
  9754fc:	12000800 	and	w0, w0, #0x7
  975500:	7100041f 	cmp	w0, #0x1
  975504:	54ffffa1 	b.ne	9754f8 <dram_exit_retention+0x1b0>  // b.any
  975508:	d2809201 	mov	x1, #0x490                 	// #1168
  97550c:	d2801402 	mov	x2, #0xa0                  	// #160
  975510:	f2a7a801 	movk	x1, #0x3d40, lsl #16
  975514:	d110c021 	sub	x1, x1, #0x430
  975518:	f9400bf3 	ldr	x19, [sp, #16]
  97551c:	b9043020 	str	w0, [x1, #1072]
  975520:	b900003f 	str	wzr, [x1]
  975524:	d2a78681 	mov	x1, #0x3c340000            	// #1010040832
  975528:	f2a78482 	movk	x2, #0x3c24, lsl #16
  97552c:	b900003f 	str	wzr, [x1]
  975530:	b9400042 	ldr	w2, [x2]
  975534:	b9000020 	str	w0, [x1]
  975538:	a8c27bfd 	ldp	x29, x30, [sp], #32
  97553c:	d65f03c0 	ret

0000000000975540 <lpddr4_mr_write.constprop.0>:
  975540:	d2800303 	mov	x3, #0x18                  	// #24
  975544:	f2a7a803 	movk	x3, #0x3d40, lsl #16
  975548:	b9400062 	ldr	w2, [x3]
  97554c:	3707ffe2 	tbnz	w2, #0, 975548 <lpddr4_mr_write.constprop.0+0x8>
  975550:	d2800202 	mov	x2, #0x10                  	// #16
  975554:	2a002020 	orr	w0, w1, w0, lsl #8
  975558:	f2a7a802 	movk	x2, #0x3d40, lsl #16
  97555c:	d2800281 	mov	x1, #0x14                  	// #20
  975560:	f2a7a801 	movk	x1, #0x3d40, lsl #16
  975564:	52800603 	mov	w3, #0x30                  	// #48
  975568:	b9000043 	str	w3, [x2]
  97556c:	b9000020 	str	w0, [x1]
  975570:	b9400040 	ldr	w0, [x2]
  975574:	32010000 	orr	w0, w0, #0x80000000
  975578:	b9000040 	str	w0, [x2]
  97557c:	d65f03c0 	ret

0000000000975580 <lpddr4_swffc>:
  975580:	2a0203e4 	mov	w4, w2
  975584:	2a0103e6 	mov	w6, w1
  975588:	aa0003e5 	mov	x5, x0
  97558c:	91008001 	add	x1, x0, #0x20
  975590:	d37b7c80 	ubfiz	x0, x4, #5, #32
  975594:	a9bc7bfd 	stp	x29, x30, [sp, #-64]!
  975598:	8b000022 	add	x2, x1, x0
  97559c:	910003fd 	mov	x29, sp
  9755a0:	710004df 	cmp	w6, #0x1
  9755a4:	b860682d 	ldr	w13, [x1, x0]
  9755a8:	52800801 	mov	w1, #0x40                  	// #64
  9755ac:	a90153f3 	stp	x19, x20, [sp, #16]
  9755b0:	52801000 	mov	w0, #0x80                  	// #128
  9755b4:	2941a853 	ldp	w19, w10, [x2, #12]
  9755b8:	1a810000 	csel	w0, w0, w1, eq  // eq = none
  9755bc:	d2800601 	mov	x1, #0x30                  	// #48
  9755c0:	a9025bf5 	stp	x21, x22, [sp, #32]
  9755c4:	f2a7a801 	movk	x1, #0x3d40, lsl #16
  9755c8:	12001673 	and	w19, w19, #0x3f
  9755cc:	a90363f7 	stp	x23, x24, [sp, #48]
  9755d0:	2a000273 	orr	w19, w19, w0
  9755d4:	b9400020 	ldr	w0, [x1]
  9755d8:	aa0403f4 	mov	x20, x4
  9755dc:	2940ac4c 	ldp	w12, w11, [x2, #4]
  9755e0:	121c6c00 	and	w0, w0, #0xfffffff0
  9755e4:	29429c49 	ldp	w9, w7, [x2, #20]
  9755e8:	b9401c48 	ldr	w8, [x2, #28]
  9755ec:	b9000020 	str	w0, [x1]
  9755f0:	d2803880 	mov	x0, #0x1c4                 	// #452
  9755f4:	f2a7a800 	movk	x0, #0x3d40, lsl #16
  9755f8:	b9400018 	ldr	w24, [x0]
  9755fc:	b9400001 	ldr	w1, [x0]
  975600:	121f7821 	and	w1, w1, #0xfffffffe
  975604:	b9000001 	str	w1, [x0]
  975608:	528001a0 	mov	w0, #0xd                   	// #13
  97560c:	5281a001 	mov	w1, #0xd00                 	// #3328
  975610:	2a010261 	orr	w1, w19, w1
  975614:	97ffffcb 	bl	975540 <lpddr4_mr_write.constprop.0>
  975618:	2a0d03e1 	mov	w1, w13
  97561c:	52800020 	mov	w0, #0x1                   	// #1
  975620:	97ffffc8 	bl	975540 <lpddr4_mr_write.constprop.0>
  975624:	2a0c03e1 	mov	w1, w12
  975628:	52800040 	mov	w0, #0x2                   	// #2
  97562c:	97ffffc5 	bl	975540 <lpddr4_mr_write.constprop.0>
  975630:	2a0b03e1 	mov	w1, w11
  975634:	52800060 	mov	w0, #0x3                   	// #3
  975638:	97ffffc2 	bl	975540 <lpddr4_mr_write.constprop.0>
  97563c:	2a0a03e1 	mov	w1, w10
  975640:	52800160 	mov	w0, #0xb                   	// #11
  975644:	97ffffbf 	bl	975540 <lpddr4_mr_write.constprop.0>
  975648:	2a0903e1 	mov	w1, w9
  97564c:	52800180 	mov	w0, #0xc                   	// #12
  975650:	97ffffbc 	bl	975540 <lpddr4_mr_write.constprop.0>
  975654:	2a0803e1 	mov	w1, w8
  975658:	528001c0 	mov	w0, #0xe                   	// #14
  97565c:	97ffffb9 	bl	975540 <lpddr4_mr_write.constprop.0>
  975660:	2a0703e1 	mov	w1, w7
  975664:	528002c0 	mov	w0, #0x16                  	// #22
  975668:	97ffffb6 	bl	975540 <lpddr4_mr_write.constprop.0>
  97566c:	d2800301 	mov	x1, #0x18                  	// #24
  975670:	f2a7a801 	movk	x1, #0x3d40, lsl #16
  975674:	b9400020 	ldr	w0, [x1]
  975678:	3707ffe0 	tbnz	w0, #0, 975674 <lpddr4_swffc+0xf4>
  97567c:	d2809200 	mov	x0, #0x490                 	// #1168
  975680:	d2807f81 	mov	x1, #0x3fc                 	// #1020
  975684:	f2a7a800 	movk	x0, #0x3d40, lsl #16
  975688:	f2a7a801 	movk	x1, #0x3d40, lsl #16
  97568c:	b900001f 	str	wzr, [x0]
  975690:	b9400020 	ldr	w0, [x1]
  975694:	35ffffe0 	cbnz	w0, 975690 <lpddr4_swffc+0x110>
  975698:	d2800080 	mov	x0, #0x4                   	// #4
  97569c:	f2a7a800 	movk	x0, #0x3d40, lsl #16
  9756a0:	b9400002 	ldr	w2, [x0]
  9756a4:	12000842 	and	w2, w2, #0x7
  9756a8:	51000442 	sub	w2, w2, #0x1
  9756ac:	7100045f 	cmp	w2, #0x1
  9756b0:	54ffff88 	b.hi	9756a0 <lpddr4_swffc+0x120>  // b.pmore
  9756b4:	d2800400 	mov	x0, #0x20                  	// #32
  9756b8:	d2800083 	mov	x3, #0x4                   	// #4
  9756bc:	f2a7a800 	movk	x0, #0x3d40, lsl #16
  9756c0:	f2a7a803 	movk	x3, #0x3d40, lsl #16
  9756c4:	b9400017 	ldr	w23, [x0]
  9756c8:	b9400001 	ldr	w1, [x0]
  9756cc:	121f7821 	and	w1, w1, #0xfffffffe
  9756d0:	b9000001 	str	w1, [x0]
  9756d4:	b9600016 	ldr	w22, [x0, #8192]
  9756d8:	b9600001 	ldr	w1, [x0, #8192]
  9756dc:	121f7821 	and	w1, w1, #0xfffffffe
  9756e0:	b9200001 	str	w1, [x0, #8192]
  9756e4:	b9700015 	ldr	w21, [x0, #12288]
  9756e8:	b9700001 	ldr	w1, [x0, #12288]
  9756ec:	121f7821 	and	w1, w1, #0xfffffffe
  9756f0:	b9300001 	str	w1, [x0, #12288]
  9756f4:	d2803001 	mov	x1, #0x180                 	// #384
  9756f8:	f2a7a801 	movk	x1, #0x3d40, lsl #16
  9756fc:	b9400020 	ldr	w0, [x1]
  975700:	32010000 	orr	w0, w0, #0x80000000
  975704:	b9000020 	str	w0, [x1]
  975708:	b9600020 	ldr	w0, [x1, #8192]
  97570c:	32010000 	orr	w0, w0, #0x80000000
  975710:	b9200020 	str	w0, [x1, #8192]
  975714:	b9700020 	ldr	w0, [x1, #12288]
  975718:	32010000 	orr	w0, w0, #0x80000000
  97571c:	b9300020 	str	w0, [x1, #12288]
  975720:	d2800600 	mov	x0, #0x30                  	// #48
  975724:	f2a7a800 	movk	x0, #0x3d40, lsl #16
  975728:	b9400001 	ldr	w1, [x0]
  97572c:	121f7821 	and	w1, w1, #0xfffffffe
  975730:	b9000001 	str	w1, [x0]
  975734:	b9400062 	ldr	w2, [x3]
  975738:	12000842 	and	w2, w2, #0x7
  97573c:	51000442 	sub	w2, w2, #0x1
  975740:	7100045f 	cmp	w2, #0x1
  975744:	54ffff88 	b.hi	975734 <lpddr4_swffc+0x1b4>  // b.pmore
  975748:	b9400001 	ldr	w1, [x0]
  97574c:	321b0421 	orr	w1, w1, #0x60
  975750:	b9000001 	str	w1, [x0]
  975754:	b9400060 	ldr	w0, [x3]
  975758:	12180400 	and	w0, w0, #0x300
  97575c:	7104001f 	cmp	w0, #0x100
  975760:	54ffffa1 	b.ne	975754 <lpddr4_swffc+0x1d4>  // b.any
  975764:	d2806081 	mov	x1, #0x304                 	// #772
  975768:	d2806102 	mov	x2, #0x308                 	// #776
  97576c:	f2a7a801 	movk	x1, #0x3d40, lsl #16
  975770:	f2a7a802 	movk	x2, #0x3d40, lsl #16
  975774:	b9400020 	ldr	w0, [x1]
  975778:	32000000 	orr	w0, w0, #0x1
  97577c:	b9000020 	str	w0, [x1]
  975780:	52a60001 	mov	w1, #0x30000000            	// #805306368
  975784:	b9400040 	ldr	w0, [x2]
  975788:	12040400 	and	w0, w0, #0x30000000
  97578c:	6b01001f 	cmp	w0, w1
  975790:	54ffffa1 	b.ne	975784 <lpddr4_swffc+0x204>  // b.any
  975794:	f24000df 	tst	x6, #0x1
  975798:	52800101 	mov	w1, #0x8                   	// #8
  97579c:	52801100 	mov	w0, #0x88                  	// #136
  9757a0:	1a810000 	csel	w0, w0, w1, eq  // eq = none
  9757a4:	52800ee1 	mov	w1, #0x77                  	// #119
  9757a8:	0a010273 	and	w19, w19, w1
  9757ac:	2a000273 	orr	w19, w19, w0
  9757b0:	5281a001 	mov	w1, #0xd00                 	// #3328
  9757b4:	528001a0 	mov	w0, #0xd                   	// #13
  9757b8:	2a010261 	orr	w1, w19, w1
  9757bc:	97ffff61 	bl	975540 <lpddr4_mr_write.constprop.0>
  9757c0:	d2800600 	mov	x0, #0x30                  	// #48
  9757c4:	f2a7a800 	movk	x0, #0x3d40, lsl #16
  9757c8:	b9400001 	ldr	w1, [x0]
  9757cc:	12197421 	and	w1, w1, #0xffffff9f
  9757d0:	321b0021 	orr	w1, w1, #0x20
  9757d4:	b9000001 	str	w1, [x0]
  9757d8:	d2800081 	mov	x1, #0x4                   	// #4
  9757dc:	f2a7a801 	movk	x1, #0x3d40, lsl #16
  9757e0:	b9400020 	ldr	w0, [x1]
  9757e4:	12180400 	and	w0, w0, #0x300
  9757e8:	7108001f 	cmp	w0, #0x200
  9757ec:	54ffffa1 	b.ne	9757e0 <lpddr4_swffc+0x260>  // b.any
  9757f0:	d2806400 	mov	x0, #0x320                 	// #800
  9757f4:	d2800c01 	mov	x1, #0x60                  	// #96
  9757f8:	f2a7a800 	movk	x0, #0x3d40, lsl #16
  9757fc:	d10be000 	sub	x0, x0, #0x2f8
  975800:	f2a7a801 	movk	x1, #0x3d40, lsl #16
  975804:	b902f81f 	str	wzr, [x0, #760]
  975808:	b9000014 	str	w20, [x0]
  97580c:	b9400020 	ldr	w0, [x1]
  975810:	521f0000 	eor	w0, w0, #0x2
  975814:	b9000020 	str	w0, [x1]
  975818:	d2803600 	mov	x0, #0x1b0                 	// #432
  97581c:	f2a7a800 	movk	x0, #0x3d40, lsl #16
  975820:	b9400001 	ldr	w1, [x0]
  975824:	121f1821 	and	w1, w1, #0xfe
  975828:	2a142021 	orr	w1, w1, w20, lsl #8
  97582c:	b9000001 	str	w1, [x0]
  975830:	321b0021 	orr	w1, w1, #0x20
  975834:	b9000001 	str	w1, [x0]
  975838:	d2803781 	mov	x1, #0x1bc                 	// #444
  97583c:	f2a7a801 	movk	x1, #0x3d40, lsl #16
  975840:	b9400020 	ldr	w0, [x1]
  975844:	3707ffe0 	tbnz	w0, #0, 975840 <lpddr4_swffc+0x2c0>
  975848:	f9400ca0 	ldr	x0, [x5, #24]
  97584c:	394050a1 	ldrb	w1, [x5, #20]
  975850:	8b040804 	add	x4, x0, x4, lsl #2
  975854:	b9404c80 	ldr	w0, [x4, #76]
  975858:	97fffbba 	bl	974740 <dram_clock_switch>
  97585c:	d2803601 	mov	x1, #0x1b0                 	// #432
  975860:	f2a7a801 	movk	x1, #0x3d40, lsl #16
  975864:	91003021 	add	x1, x1, #0xc
  975868:	b85f4020 	ldur	w0, [x1, #-12]
  97586c:	121a7800 	and	w0, w0, #0xffffffdf
  975870:	b81f4020 	stur	w0, [x1, #-12]
  975874:	b9400020 	ldr	w0, [x1]
  975878:	3607ffe0 	tbz	w0, #0, 975874 <lpddr4_swffc+0x2f4>
  97587c:	35000b14 	cbnz	w20, 9759dc <lpddr4_swffc+0x45c>
  975880:	d2803001 	mov	x1, #0x180                 	// #384
  975884:	f2a7a801 	movk	x1, #0x3d40, lsl #16
  975888:	b9400020 	ldr	w0, [x1]
  97588c:	32020000 	orr	w0, w0, #0x40000000
  975890:	b9000020 	str	w0, [x1]
  975894:	d2800601 	mov	x1, #0x30                  	// #48
  975898:	f2a7a801 	movk	x1, #0x3d40, lsl #16
  97589c:	d100b021 	sub	x1, x1, #0x2c
  9758a0:	b9402c20 	ldr	w0, [x1, #44]
  9758a4:	12197400 	and	w0, w0, #0xffffff9f
  9758a8:	321a0000 	orr	w0, w0, #0x40
  9758ac:	b9002c20 	str	w0, [x1, #44]
  9758b0:	b9400020 	ldr	w0, [x1]
  9758b4:	12180400 	and	w0, w0, #0x300
  9758b8:	710c001f 	cmp	w0, #0x300
  9758bc:	54ffffa1 	b.ne	9758b0 <lpddr4_swffc+0x330>  // b.any
  9758c0:	52801ee0 	mov	w0, #0xf7                  	// #247
  9758c4:	0a000273 	and	w19, w19, w0
  9758c8:	5281a001 	mov	w1, #0xd00                 	// #3328
  9758cc:	528001a0 	mov	w0, #0xd                   	// #13
  9758d0:	2a010261 	orr	w1, w19, w1
  9758d4:	97ffff1b 	bl	975540 <lpddr4_mr_write.constprop.0>
  9758d8:	d2803880 	mov	x0, #0x1c4                 	// #452
  9758dc:	d2806181 	mov	x1, #0x30c                 	// #780
  9758e0:	f2a7a800 	movk	x0, #0x3d40, lsl #16
  9758e4:	f2a7a801 	movk	x1, #0x3d40, lsl #16
  9758e8:	91001021 	add	x1, x1, #0x4
  9758ec:	b9000018 	str	w24, [x0]
  9758f0:	b85fc020 	ldur	w0, [x1, #-4]
  9758f4:	321c0000 	orr	w0, w0, #0x10
  9758f8:	b81fc020 	stur	w0, [x1, #-4]
  9758fc:	b9400020 	ldr	w0, [x1]
  975900:	3727ffe0 	tbnz	w0, #4, 9758fc <lpddr4_swffc+0x37c>
  975904:	7100069f 	cmp	w20, #0x1
  975908:	54000761 	b.ne	9759f4 <lpddr4_swffc+0x474>  // b.any
  97590c:	d2843001 	mov	x1, #0x2180                	// #8576
  975910:	f2a7a801 	movk	x1, #0x3d40, lsl #16
  975914:	b9400020 	ldr	w0, [x1]
  975918:	12017800 	and	w0, w0, #0xbfffffff
  97591c:	b9000020 	str	w0, [x1]
  975920:	d2806400 	mov	x0, #0x320                 	// #800
  975924:	52800021 	mov	w1, #0x1                   	// #1
  975928:	f2a7a800 	movk	x0, #0x3d40, lsl #16
  97592c:	b9000001 	str	w1, [x0]
  975930:	d2806481 	mov	x1, #0x324                 	// #804
  975934:	f2a7a801 	movk	x1, #0x3d40, lsl #16
  975938:	b9400020 	ldr	w0, [x1]
  97593c:	3607ffe0 	tbz	w0, #0, 975938 <lpddr4_swffc+0x3b8>
  975940:	d2800601 	mov	x1, #0x30                  	// #48
  975944:	f2a7a801 	movk	x1, #0x3d40, lsl #16
  975948:	d100b021 	sub	x1, x1, #0x2c
  97594c:	b9402c20 	ldr	w0, [x1, #44]
  975950:	12197800 	and	w0, w0, #0xffffffbf
  975954:	b9002c20 	str	w0, [x1, #44]
  975958:	b9400020 	ldr	w0, [x1]
  97595c:	7218041f 	tst	w0, #0x300
  975960:	54ffffc1 	b.ne	975958 <lpddr4_swffc+0x3d8>  // b.any
  975964:	d2806081 	mov	x1, #0x304                 	// #772
  975968:	f2a7a801 	movk	x1, #0x3d40, lsl #16
  97596c:	d10b5021 	sub	x1, x1, #0x2d4
  975970:	b942d420 	ldr	w0, [x1, #724]
  975974:	121f7800 	and	w0, w0, #0xfffffffe
  975978:	b902d420 	str	w0, [x1, #724]
  97597c:	b9400020 	ldr	w0, [x1]
  975980:	32000000 	orr	w0, w0, #0x1
  975984:	b9000020 	str	w0, [x1]
  975988:	7100069f 	cmp	w20, #0x1
  97598c:	54000401 	b.ne	975a0c <lpddr4_swffc+0x48c>  // b.any
  975990:	d2843001 	mov	x1, #0x2180                	// #8576
  975994:	f2a7a801 	movk	x1, #0x3d40, lsl #16
  975998:	a94153f3 	ldp	x19, x20, [sp, #16]
  97599c:	b9400020 	ldr	w0, [x1]
  9759a0:	12007800 	and	w0, w0, #0x7fffffff
  9759a4:	b9000020 	str	w0, [x1]
  9759a8:	d2800400 	mov	x0, #0x20                  	// #32
  9759ac:	52800021 	mov	w1, #0x1                   	// #1
  9759b0:	f2a7a800 	movk	x0, #0x3d40, lsl #16
  9759b4:	b9000017 	str	w23, [x0]
  9759b8:	b9200016 	str	w22, [x0, #8192]
  9759bc:	b9300015 	str	w21, [x0, #12288]
  9759c0:	d2809200 	mov	x0, #0x490                 	// #1168
  9759c4:	f2a7a800 	movk	x0, #0x3d40, lsl #16
  9759c8:	a9425bf5 	ldp	x21, x22, [sp, #32]
  9759cc:	a94363f7 	ldp	x23, x24, [sp, #48]
  9759d0:	b9000001 	str	w1, [x0]
  9759d4:	a8c47bfd 	ldp	x29, x30, [sp], #64
  9759d8:	d65f03c0 	ret
  9759dc:	7100069f 	cmp	w20, #0x1
  9759e0:	54000061 	b.ne	9759ec <lpddr4_swffc+0x46c>  // b.any
  9759e4:	d2843001 	mov	x1, #0x2180                	// #8576
  9759e8:	17ffffa7 	b	975884 <lpddr4_swffc+0x304>
  9759ec:	d2863001 	mov	x1, #0x3180                	// #12672
  9759f0:	17ffffa5 	b	975884 <lpddr4_swffc+0x304>
  9759f4:	71000a9f 	cmp	w20, #0x2
  9759f8:	54000061 	b.ne	975a04 <lpddr4_swffc+0x484>  // b.any
  9759fc:	d2863001 	mov	x1, #0x3180                	// #12672
  975a00:	17ffffc4 	b	975910 <lpddr4_swffc+0x390>
  975a04:	d2803001 	mov	x1, #0x180                 	// #384
  975a08:	17ffffc2 	b	975910 <lpddr4_swffc+0x390>
  975a0c:	71000a9f 	cmp	w20, #0x2
  975a10:	54000061 	b.ne	975a1c <lpddr4_swffc+0x49c>  // b.any
  975a14:	d2863001 	mov	x1, #0x3180                	// #12672
  975a18:	17ffffdf 	b	975994 <lpddr4_swffc+0x414>
  975a1c:	d2803001 	mov	x1, #0x180                 	// #384
  975a20:	17ffffdd 	b	975994 <lpddr4_swffc+0x414>

0000000000975a24 <imx_m4_lpa_active>:
  975a24:	d2801300 	mov	x0, #0x98                  	// #152
  975a28:	f2a60720 	movk	x0, #0x3039, lsl #16
  975a2c:	b9400000 	ldr	w0, [x0]
  975a30:	121b7801 	and	w1, w0, #0xffffffef
  975a34:	7100343f 	cmp	w1, #0xd
  975a38:	528aaaa1 	mov	w1, #0x5555                	// #21845
  975a3c:	7a411004 	ccmp	w0, w1, #0x4, ne  // ne = any
  975a40:	1a9f17e0 	cset	w0, eq  // eq = none
  975a44:	d65f03c0 	ret

0000000000975a48 <imx_is_m4_enabled>:
  975a48:	d2800b00 	mov	x0, #0x58                  	// #88
  975a4c:	f2a60680 	movk	x0, #0x3034, lsl #16
  975a50:	b9400000 	ldr	w0, [x0]
  975a54:	2a2003e0 	mvn	w0, w0
  975a58:	12000000 	and	w0, w0, #0x1
  975a5c:	d65f03c0 	ret

0000000000975a60 <imx_set_cpu_secure_entry>:
  975a60:	52800e82 	mov	w2, #0x74                  	// #116
  975a64:	d3589c23 	ubfx	x3, x1, #24, #16
  975a68:	72a60722 	movk	w2, #0x3039, lsl #16
  975a6c:	53025c21 	ubfx	w1, w1, #2, #22
  975a70:	0b000c42 	add	w2, w2, w0, lsl #3
  975a74:	b9000043 	str	w3, [x2]
  975a78:	52800f02 	mov	w2, #0x78                  	// #120
  975a7c:	72a60722 	movk	w2, #0x3039, lsl #16
  975a80:	0b000c40 	add	w0, w2, w0, lsl #3
  975a84:	b9000001 	str	w1, [x0]
  975a88:	d65f03c0 	ret

0000000000975a8c <imx_set_cpu_pwr_off>:
  975a8c:	a9be7bfd 	stp	x29, x30, [sp, #-32]!
  975a90:	910003fd 	mov	x29, sp
  975a94:	a90153f3 	stp	x19, x20, [sp, #16]
  975a98:	d00000b4 	adrp	x20, 98b000 <psci_locks>
  975a9c:	91008294 	add	x20, x20, #0x20
  975aa0:	2a0003f3 	mov	w19, w0
  975aa4:	aa1403e0 	mov	x0, x20
  975aa8:	97fff11c 	bl	971f18 <bakery_lock_get>
  975aac:	11001a62 	add	w2, w19, #0x6
  975ab0:	531f7a60 	lsl	w0, w19, #1
  975ab4:	52800021 	mov	w1, #0x1                   	// #1
  975ab8:	7100067f 	cmp	w19, #0x1
  975abc:	531f7842 	lsl	w2, w2, #1
  975ac0:	1ac02020 	lsl	w0, w1, w0
  975ac4:	11703a73 	add	w19, w19, #0xc0e, lsl #12
  975ac8:	1ac22021 	lsl	w1, w1, w2
  975acc:	1a808021 	csel	w1, w1, w0, hi  // hi = pmore
  975ad0:	d2800080 	mov	x0, #0x4                   	// #4
  975ad4:	11208273 	add	w19, w19, #0x820
  975ad8:	f2a60740 	movk	x0, #0x303a, lsl #16
  975adc:	531a6673 	lsl	w19, w19, #6
  975ae0:	b9400002 	ldr	w2, [x0]
  975ae4:	2a020021 	orr	w1, w1, w2
  975ae8:	b9000001 	str	w1, [x0]
  975aec:	aa1403e0 	mov	x0, x20
  975af0:	97fff139 	bl	971fd4 <bakery_lock_release>
  975af4:	b9400260 	ldr	w0, [x19]
  975af8:	32000000 	orr	w0, w0, #0x1
  975afc:	b9000260 	str	w0, [x19]
  975b00:	a94153f3 	ldp	x19, x20, [sp, #16]
  975b04:	a8c27bfd 	ldp	x29, x30, [sp], #32
  975b08:	d65f03c0 	ret

0000000000975b0c <imx_set_cpu_pwr_on>:
  975b0c:	a9bd7bfd 	stp	x29, x30, [sp, #-48]!
  975b10:	910003fd 	mov	x29, sp
  975b14:	f90013f5 	str	x21, [sp, #32]
  975b18:	d00000b5 	adrp	x21, 98b000 <psci_locks>
  975b1c:	910082b5 	add	x21, x21, #0x20
  975b20:	a90153f3 	stp	x19, x20, [sp, #16]
  975b24:	2a0003f3 	mov	w19, w0
  975b28:	aa1503e0 	mov	x0, x21
  975b2c:	97fff0fb 	bl	971f18 <bakery_lock_get>
  975b30:	11001a61 	add	w1, w19, #0x6
  975b34:	531f7a60 	lsl	w0, w19, #1
  975b38:	52800034 	mov	w20, #0x1                   	// #1
  975b3c:	6b14027f 	cmp	w19, w20
  975b40:	531f7821 	lsl	w1, w1, #1
  975b44:	1ac02280 	lsl	w0, w20, w0
  975b48:	1ac12281 	lsl	w1, w20, w1
  975b4c:	1a808021 	csel	w1, w1, w0, hi  // hi = pmore
  975b50:	d2800080 	mov	x0, #0x4                   	// #4
  975b54:	f2a60740 	movk	x0, #0x303a, lsl #16
  975b58:	b9400002 	ldr	w2, [x0]
  975b5c:	0a210041 	bic	w1, w2, w1
  975b60:	b9000001 	str	w1, [x0]
  975b64:	aa1503e0 	mov	x0, x21
  975b68:	97fff11b 	bl	971fd4 <bakery_lock_release>
  975b6c:	d2800102 	mov	x2, #0x8                   	// #8
  975b70:	1ad32280 	lsl	w0, w20, w19
  975b74:	f2a60722 	movk	x2, #0x3039, lsl #16
  975b78:	11703a73 	add	w19, w19, #0xc0e, lsl #12
  975b7c:	11208273 	add	w19, w19, #0x820
  975b80:	b9400041 	ldr	w1, [x2]
  975b84:	531a6673 	lsl	w19, w19, #6
  975b88:	0a200021 	bic	w1, w1, w0
  975b8c:	b9000041 	str	w1, [x2]
  975b90:	b9400261 	ldr	w1, [x19]
  975b94:	2a140021 	orr	w1, w1, w20
  975b98:	b9000261 	str	w1, [x19]
  975b9c:	d2801a01 	mov	x1, #0xd0                  	// #208
  975ba0:	f2a60741 	movk	x1, #0x303a, lsl #16
  975ba4:	b9400022 	ldr	w2, [x1]
  975ba8:	2a020002 	orr	w2, w0, w2
  975bac:	b9000022 	str	w2, [x1]
  975bb0:	b9400022 	ldr	w2, [x1]
  975bb4:	6a02001f 	tst	w0, w2
  975bb8:	54ffffc1 	b.ne	975bb0 <imx_set_cpu_pwr_on+0xa4>  // b.any
  975bbc:	b9400261 	ldr	w1, [x19]
  975bc0:	f94013f5 	ldr	x21, [sp, #32]
  975bc4:	121f7821 	and	w1, w1, #0xfffffffe
  975bc8:	b9000261 	str	w1, [x19]
  975bcc:	d2800101 	mov	x1, #0x8                   	// #8
  975bd0:	f2a60721 	movk	x1, #0x3039, lsl #16
  975bd4:	a94153f3 	ldp	x19, x20, [sp, #16]
  975bd8:	b9400022 	ldr	w2, [x1]
  975bdc:	2a020000 	orr	w0, w0, w2
  975be0:	b9000020 	str	w0, [x1]
  975be4:	a8c37bfd 	ldp	x29, x30, [sp], #48
  975be8:	d65f03c0 	ret

0000000000975bec <imx_set_cpu_lpm>:
  975bec:	a9bd7bfd 	stp	x29, x30, [sp, #-48]!
  975bf0:	910003fd 	mov	x29, sp
  975bf4:	a90153f3 	stp	x19, x20, [sp, #16]
  975bf8:	2a0003f3 	mov	w19, w0
  975bfc:	d00000b4 	adrp	x20, 98b000 <psci_locks>
  975c00:	91008280 	add	x0, x20, #0x20
  975c04:	f90013f5 	str	x21, [sp, #32]
  975c08:	12001c35 	and	w21, w1, #0xff
  975c0c:	97fff0c3 	bl	971f18 <bakery_lock_get>
  975c10:	11703a62 	add	w2, w19, #0xc0e, lsl #12
  975c14:	d2800083 	mov	x3, #0x4                   	// #4
  975c18:	11208042 	add	w2, w2, #0x820
  975c1c:	52800020 	mov	w0, #0x1                   	// #1
  975c20:	f2a60743 	movk	x3, #0x303a, lsl #16
  975c24:	340002d5 	cbz	w21, 975c7c <imx_set_cpu_lpm+0x90>
  975c28:	6b00027f 	cmp	w19, w0
  975c2c:	54000248 	b.hi	975c74 <imx_set_cpu_lpm+0x88>  // b.pmore
  975c30:	531f7a73 	lsl	w19, w19, #1
  975c34:	b9400064 	ldr	w4, [x3]
  975c38:	531a6442 	lsl	w2, w2, #6
  975c3c:	1ad32001 	lsl	w1, w0, w19
  975c40:	11002273 	add	w19, w19, #0x8
  975c44:	1ad32000 	lsl	w0, w0, w19
  975c48:	2a010000 	orr	w0, w0, w1
  975c4c:	2a040000 	orr	w0, w0, w4
  975c50:	b9000060 	str	w0, [x3]
  975c54:	b9400040 	ldr	w0, [x2]
  975c58:	32000000 	orr	w0, w0, #0x1
  975c5c:	f94013f5 	ldr	x21, [sp, #32]
  975c60:	b9000040 	str	w0, [x2]
  975c64:	91008280 	add	x0, x20, #0x20
  975c68:	a94153f3 	ldp	x19, x20, [sp, #16]
  975c6c:	a8c37bfd 	ldp	x29, x30, [sp], #48
  975c70:	17fff0d9 	b	971fd4 <bakery_lock_release>
  975c74:	11001a73 	add	w19, w19, #0x6
  975c78:	17ffffee 	b	975c30 <imx_set_cpu_lpm+0x44>
  975c7c:	7100067f 	cmp	w19, #0x1
  975c80:	540001a8 	b.hi	975cb4 <imx_set_cpu_lpm+0xc8>  // b.pmore
  975c84:	531f7a73 	lsl	w19, w19, #1
  975c88:	b9400064 	ldr	w4, [x3]
  975c8c:	531a6442 	lsl	w2, w2, #6
  975c90:	1ad32001 	lsl	w1, w0, w19
  975c94:	11002273 	add	w19, w19, #0x8
  975c98:	1ad32000 	lsl	w0, w0, w19
  975c9c:	2a010000 	orr	w0, w0, w1
  975ca0:	0a200080 	bic	w0, w4, w0
  975ca4:	b9000060 	str	w0, [x3]
  975ca8:	b9400040 	ldr	w0, [x2]
  975cac:	121f7800 	and	w0, w0, #0xfffffffe
  975cb0:	17ffffeb 	b	975c5c <imx_set_cpu_lpm+0x70>
  975cb4:	11001a73 	add	w19, w19, #0x6
  975cb8:	17fffff3 	b	975c84 <imx_set_cpu_lpm+0x98>

0000000000975cbc <imx_set_cluster_powerdown>:
  975cbc:	12001c21 	and	w1, w1, #0xff
  975cc0:	51000c21 	sub	w1, w1, #0x3
  975cc4:	7100043f 	cmp	w1, #0x1
  975cc8:	54000488 	b.hi	975d58 <imx_set_cluster_powerdown+0x9c>  // b.pmore
  975ccc:	d2a60741 	mov	x1, #0x303a0000            	// #809107456
  975cd0:	52800142 	mov	w2, #0xa                   	// #10
  975cd4:	d2804003 	mov	x3, #0x200                 	// #512
  975cd8:	b9400020 	ldr	w0, [x1]
  975cdc:	f2a60743 	movk	x3, #0x303a, lsl #16
  975ce0:	12117800 	and	w0, w0, #0xffffbfff
  975ce4:	2a020000 	orr	w0, w0, w2
  975ce8:	b9000020 	str	w0, [x1]
  975cec:	b9418020 	ldr	w0, [x1, #384]
  975cf0:	2a020000 	orr	w0, w0, w2
  975cf4:	d2800082 	mov	x2, #0x4                   	// #4
  975cf8:	f2a60742 	movk	x2, #0x303a, lsl #16
  975cfc:	b9018020 	str	w0, [x1, #384]
  975d00:	52800201 	mov	w1, #0x10                  	// #16
  975d04:	b9400040 	ldr	w0, [x2]
  975d08:	72b00001 	movk	w1, #0x8000, lsl #16
  975d0c:	121a7800 	and	w0, w0, #0xffffffdf
  975d10:	2a010000 	orr	w0, w0, w1
  975d14:	b9400061 	ldr	w1, [x3]
  975d18:	32180021 	orr	w1, w1, #0x100
  975d1c:	b9000061 	str	w1, [x3]
  975d20:	b9400c61 	ldr	w1, [x3, #12]
  975d24:	32170021 	orr	w1, w1, #0x200
  975d28:	b9000c61 	str	w1, [x3, #12]
  975d2c:	d2800481 	mov	x1, #0x24                  	// #36
  975d30:	52806003 	mov	w3, #0x300                 	// #768
  975d34:	f2a60741 	movk	x1, #0x303a, lsl #16
  975d38:	b9000023 	str	w3, [x1]
  975d3c:	d2812003 	mov	x3, #0x900                 	// #2304
  975d40:	f2a60743 	movk	x3, #0x303a, lsl #16
  975d44:	b9400061 	ldr	w1, [x3]
  975d48:	32000021 	orr	w1, w1, #0x1
  975d4c:	b9000061 	str	w1, [x3]
  975d50:	b9000040 	str	w0, [x2]
  975d54:	d65f03c0 	ret
  975d58:	d2804001 	mov	x1, #0x200                 	// #512
  975d5c:	f2a60741 	movk	x1, #0x303a, lsl #16
  975d60:	b9400020 	ldr	w0, [x1]
  975d64:	12177800 	and	w0, w0, #0xfffffeff
  975d68:	b9000020 	str	w0, [x1]
  975d6c:	b9400c20 	ldr	w0, [x1, #12]
  975d70:	12167800 	and	w0, w0, #0xfffffdff
  975d74:	b9000c20 	str	w0, [x1, #12]
  975d78:	d2800480 	mov	x0, #0x24                  	// #36
  975d7c:	52b80001 	mov	w1, #0xc0000000            	// #-1073741824
  975d80:	f2a60740 	movk	x0, #0x303a, lsl #16
  975d84:	b9000001 	str	w1, [x0]
  975d88:	d2812001 	mov	x1, #0x900                 	// #2304
  975d8c:	f2a60741 	movk	x1, #0x303a, lsl #16
  975d90:	b9400020 	ldr	w0, [x1]
  975d94:	121f7800 	and	w0, w0, #0xfffffffe
  975d98:	b9000020 	str	w0, [x1]
  975d9c:	d2a60741 	mov	x1, #0x303a0000            	// #809107456
  975da0:	91001021 	add	x1, x1, #0x4
  975da4:	b85fc020 	ldur	w0, [x1, #-4]
  975da8:	121c6c00 	and	w0, w0, #0xfffffff0
  975dac:	32120000 	orr	w0, w0, #0x4000
  975db0:	b81fc020 	stur	w0, [x1, #-4]
  975db4:	b9417c20 	ldr	w0, [x1, #380]
  975db8:	121c6c00 	and	w0, w0, #0xfffffff0
  975dbc:	b9017c20 	str	w0, [x1, #380]
  975dc0:	b9400020 	ldr	w0, [x1]
  975dc4:	12007800 	and	w0, w0, #0x7fffffff
  975dc8:	121b7800 	and	w0, w0, #0xffffffef
  975dcc:	321b0000 	orr	w0, w0, #0x20
  975dd0:	b9000020 	str	w0, [x1]
  975dd4:	17ffffe0 	b	975d54 <imx_set_cluster_powerdown+0x98>

0000000000975dd8 <imx_set_sys_wakeup>:
  975dd8:	a9bf7bfd 	stp	x29, x30, [sp, #-16]!
  975ddc:	11007003 	add	w3, w0, #0x1c
  975de0:	11005004 	add	w4, w0, #0x14
  975de4:	52800022 	mov	w2, #0x1                   	// #1
  975de8:	910003fd 	mov	x29, sp
  975dec:	1ac32043 	lsl	w3, w2, w3
  975df0:	72001c21 	ands	w1, w1, #0xff
  975df4:	1ac42042 	lsl	w2, w2, w4
  975df8:	540004c0 	b.eq	975e90 <imx_set_sys_wakeup+0xb8>  // b.none
  975dfc:	7100041f 	cmp	w0, #0x1
  975e00:	1a838042 	csel	w2, w2, w3, hi  // hi = pmore
  975e04:	d2a60743 	mov	x3, #0x303a0000            	// #809107456
  975e08:	b9400064 	ldr	w4, [x3]
  975e0c:	0a220082 	bic	w2, w4, w2
  975e10:	32020042 	orr	w2, w2, #0x40000000
  975e14:	b9000062 	str	w2, [x3]
  975e18:	90000022 	adrp	x2, 979000 <vprintf+0x2b4>
  975e1c:	91177042 	add	x2, x2, #0x5dc
  975e20:	52802006 	mov	w6, #0x100                 	// #256
  975e24:	52800404 	mov	w4, #0x20                  	// #32
  975e28:	72a71006 	movk	w6, #0x3880, lsl #16
  975e2c:	b8605842 	ldr	w2, [x2, w0, uxtw #2]
  975e30:	52a60740 	mov	w0, #0x303a0000            	// #809107456
  975e34:	0b000040 	add	w0, w2, w0
  975e38:	340003c1 	cbz	w1, 975eb0 <imx_set_sys_wakeup+0xd8>
  975e3c:	53057c83 	lsr	w3, w4, #5
  975e40:	0b0308c3 	add	w3, w6, w3, lsl #2
  975e44:	b9400063 	ldr	w3, [x3]
  975e48:	2a2303e3 	mvn	w3, w3
  975e4c:	2a0003e5 	mov	w5, w0
  975e50:	11008084 	add	w4, w4, #0x20
  975e54:	11001000 	add	w0, w0, #0x4
  975e58:	b90000a3 	str	w3, [x5]
  975e5c:	7103009f 	cmp	w4, #0xc0
  975e60:	54fffec1 	b.ne	975e38 <imx_set_sys_wakeup+0x60>  // b.any
  975e64:	97fffef9 	bl	975a48 <imx_is_m4_enabled>
  975e68:	72001c1f 	tst	w0, #0xff
  975e6c:	540000e0 	b.eq	975e88 <imx_set_sys_wakeup+0xb0>  // b.none
  975e70:	52800100 	mov	w0, #0x8                   	// #8
  975e74:	72a60740 	movk	w0, #0x303a, lsl #16
  975e78:	0b000042 	add	w2, w2, w0
  975e7c:	b9400040 	ldr	w0, [x2]
  975e80:	12077800 	and	w0, w0, #0xfeffffff
  975e84:	b9000040 	str	w0, [x2]
  975e88:	a8c17bfd 	ldp	x29, x30, [sp], #16
  975e8c:	d65f03c0 	ret
  975e90:	d2a60744 	mov	x4, #0x303a0000            	// #809107456
  975e94:	7100041f 	cmp	w0, #0x1
  975e98:	1a838042 	csel	w2, w2, w3, hi  // hi = pmore
  975e9c:	b9400083 	ldr	w3, [x4]
  975ea0:	12017863 	and	w3, w3, #0xbfffffff
  975ea4:	2a020062 	orr	w2, w3, w2
  975ea8:	b9000082 	str	w2, [x4]
  975eac:	17ffffdb 	b	975e18 <imx_set_sys_wakeup+0x40>
  975eb0:	12800003 	mov	w3, #0xffffffff            	// #-1
  975eb4:	17ffffe6 	b	975e4c <imx_set_sys_wakeup+0x74>

0000000000975eb8 <imx_noc_slot_config>:
  975eb8:	d2804081 	mov	x1, #0x204                 	// #516
  975ebc:	72001c1f 	tst	w0, #0xff
  975ec0:	f2a60741 	movk	x1, #0x303a, lsl #16
  975ec4:	d2804100 	mov	x0, #0x208                 	// #520
  975ec8:	f2a60740 	movk	x0, #0x303a, lsl #16
  975ecc:	b9400022 	ldr	w2, [x1]
  975ed0:	54000200 	b.eq	975f10 <imx_noc_slot_config+0x58>  // b.none
  975ed4:	32140042 	orr	w2, w2, #0x1000
  975ed8:	b9000022 	str	w2, [x1]
  975edc:	b9400001 	ldr	w1, [x0]
  975ee0:	32130021 	orr	w1, w1, #0x2000
  975ee4:	b9000001 	str	w1, [x0]
  975ee8:	d2800481 	mov	x1, #0x24                  	// #36
  975eec:	f2a60741 	movk	x1, #0x303a, lsl #16
  975ef0:	b9400020 	ldr	w0, [x1]
  975ef4:	12177800 	and	w0, w0, #0xfffffeff
  975ef8:	32140000 	orr	w0, w0, #0x1000
  975efc:	b9000020 	str	w0, [x1]
  975f00:	b94a1c20 	ldr	w0, [x1, #2588]
  975f04:	32000000 	orr	w0, w0, #0x1
  975f08:	b90a1c20 	str	w0, [x1, #2588]
  975f0c:	d65f03c0 	ret
  975f10:	12137842 	and	w2, w2, #0xffffefff
  975f14:	b9000022 	str	w2, [x1]
  975f18:	b9400001 	ldr	w1, [x0]
  975f1c:	12127821 	and	w1, w1, #0xffffdfff
  975f20:	b9000001 	str	w1, [x0]
  975f24:	d2800480 	mov	x0, #0x24                  	// #36
  975f28:	52b80001 	mov	w1, #0xc0000000            	// #-1073741824
  975f2c:	f2a60740 	movk	x0, #0x303a, lsl #16
  975f30:	b9000001 	str	w1, [x0]
  975f34:	d2814801 	mov	x1, #0xa40                 	// #2624
  975f38:	f2a60741 	movk	x1, #0x303a, lsl #16
  975f3c:	b9400020 	ldr	w0, [x1]
  975f40:	121f7800 	and	w0, w0, #0xfffffffe
  975f44:	b9000020 	str	w0, [x1]
  975f48:	17fffff1 	b	975f0c <imx_noc_slot_config+0x54>

0000000000975f4c <imx_set_sys_lpm>:
  975f4c:	d2800283 	mov	x3, #0x14                  	// #20
  975f50:	a9bf7bfd 	stp	x29, x30, [sp, #-16]!
  975f54:	f2a60743 	movk	x3, #0x303a, lsl #16
  975f58:	910003fd 	mov	x29, sp
  975f5c:	b9400062 	ldr	w2, [x3]
  975f60:	2a0003e4 	mov	w4, w0
  975f64:	72001c21 	ands	w1, w1, #0xff
  975f68:	540001e0 	b.eq	975fa4 <imx_set_sys_lpm+0x58>  // b.none
  975f6c:	120e7842 	and	w2, w2, #0xfffdffff
  975f70:	32010c42 	orr	w2, w2, #0x80000007
  975f74:	b9000062 	str	w2, [x3]
  975f78:	97fffeb4 	bl	975a48 <imx_is_m4_enabled>
  975f7c:	72001c1f 	tst	w0, #0xff
  975f80:	540000c1 	b.ne	975f98 <imx_set_sys_lpm+0x4c>  // b.any
  975f84:	d2800102 	mov	x2, #0x8                   	// #8
  975f88:	f2a60742 	movk	x2, #0x303a, lsl #16
  975f8c:	b9400040 	ldr	w0, [x2]
  975f90:	32010000 	orr	w0, w0, #0x80000000
  975f94:	b9000040 	str	w0, [x2]
  975f98:	a8c17bfd 	ldp	x29, x30, [sp], #16
  975f9c:	2a0403e0 	mov	w0, w4
  975fa0:	17ffff8e 	b	975dd8 <imx_set_sys_wakeup>
  975fa4:	121d6c42 	and	w2, w2, #0x7ffffff8
  975fa8:	320f0042 	orr	w2, w2, #0x20000
  975fac:	17fffff2 	b	975f74 <imx_set_sys_lpm+0x28>

0000000000975fb0 <imx_set_rbc_count>:
  975fb0:	d2800281 	mov	x1, #0x14                  	// #20
  975fb4:	52a90002 	mov	w2, #0x48000000            	// #1207959552
  975fb8:	f2a60741 	movk	x1, #0x303a, lsl #16
  975fbc:	b9400020 	ldr	w0, [x1]
  975fc0:	2a020000 	orr	w0, w0, w2
  975fc4:	b9000020 	str	w0, [x1]
  975fc8:	d65f03c0 	ret

0000000000975fcc <imx_clear_rbc_count>:
  975fcc:	d2800281 	mov	x1, #0x14                  	// #20
  975fd0:	f2a60741 	movk	x1, #0x303a, lsl #16
  975fd4:	b9400020 	ldr	w0, [x1]
  975fd8:	12016000 	and	w0, w0, #0x80ffffff
  975fdc:	b9000020 	str	w0, [x1]
  975fe0:	d65f03c0 	ret

0000000000975fe4 <imx_anamix_override>:
  975fe4:	d0000021 	adrp	x1, 97b000 <__RO_END__>
  975fe8:	12001c00 	and	w0, w0, #0xff
  975fec:	9108b021 	add	x1, x1, #0x22c
  975ff0:	52800143 	mov	w3, #0xa                   	// #10
  975ff4:	52a606c4 	mov	w4, #0x30360000            	// #808845312
  975ff8:	b9400022 	ldr	w2, [x1]
  975ffc:	0b040042 	add	w2, w2, w4
  976000:	b9400045 	ldr	w5, [x2]
  976004:	34000180 	cbz	w0, 976034 <imx_anamix_override+0x50>
  976008:	321c00a5 	orr	w5, w5, #0x10
  97600c:	b9000045 	str	w5, [x2]
  976010:	29401822 	ldp	w2, w6, [x1]
  976014:	0b040042 	add	w2, w2, w4
  976018:	b9400045 	ldr	w5, [x2]
  97601c:	2a0600a5 	orr	w5, w5, w6
  976020:	b9000045 	str	w5, [x2]
  976024:	91002021 	add	x1, x1, #0x8
  976028:	71000463 	subs	w3, w3, #0x1
  97602c:	54fffe61 	b.ne	975ff8 <imx_anamix_override+0x14>  // b.any
  976030:	d65f03c0 	ret
  976034:	121b78a5 	and	w5, w5, #0xffffffef
  976038:	b9000045 	str	w5, [x2]
  97603c:	29401422 	ldp	w2, w5, [x1]
  976040:	0b040042 	add	w2, w2, w4
  976044:	b9400046 	ldr	w6, [x2]
  976048:	0a2500c5 	bic	w5, w6, w5
  97604c:	17fffff5 	b	976020 <imx_anamix_override+0x3c>

0000000000976050 <imx_gpc_handler>:
  976050:	f1000c3f 	cmp	x1, #0x3
  976054:	54000141 	b.ne	97607c <imx_gpc_handler+0x2c>  // b.any
  976058:	f100007f 	cmp	x3, #0x0
  97605c:	a9bf7bfd 	stp	x29, x30, [sp, #-16]!
  976060:	aa0203e0 	mov	x0, x2
  976064:	910003fd 	mov	x29, sp
  976068:	1a9f07e1 	cset	w1, ne  // ne = any
  97606c:	940001cf 	bl	9767a8 <imx_gpc_pm_domain_enable>
  976070:	52800000 	mov	w0, #0x0                   	// #0
  976074:	a8c17bfd 	ldp	x29, x30, [sp], #16
  976078:	d65f03c0 	ret
  97607c:	12800000 	mov	w0, #0xffffffff            	// #-1
  976080:	d65f03c0 	ret

0000000000976084 <imx_src_handler>:
  976084:	a9bd7bfd 	stp	x29, x30, [sp, #-48]!
  976088:	910003fd 	mov	x29, sp
  97608c:	a90153f3 	stp	x19, x20, [sp, #16]
  976090:	f0000013 	adrp	x19, 979000 <vprintf+0x2b4>
  976094:	912e1673 	add	x19, x19, #0xb85
  976098:	aa0403f4 	mov	x20, x4
  97609c:	aa1303e0 	mov	x0, x19
  9760a0:	a9025bf5 	stp	x21, x22, [sp, #32]
  9760a4:	aa0103f6 	mov	x22, x1
  9760a8:	94000c4a 	bl	9791d0 <strlen>
  9760ac:	f10006df 	cmp	x22, #0x1
  9760b0:	540002e0 	b.eq	97610c <imx_src_handler+0x88>  // b.none
  9760b4:	91000c15 	add	x21, x0, #0x3
  9760b8:	927ef6b5 	and	x21, x21, #0xfffffffffffffffc
  9760bc:	f1000adf 	cmp	x22, #0x2
  9760c0:	54000380 	b.eq	976130 <imx_src_handler+0xac>  // b.none
  9760c4:	b5000c56 	cbnz	x22, 97624c <imx_src_handler+0x1c8>
  9760c8:	aa1303e0 	mov	x0, x19
  9760cc:	94000c41 	bl	9791d0 <strlen>
  9760d0:	aa0003e2 	mov	x2, x0
  9760d4:	d28c0000 	mov	x0, #0x6000                	// #24576
  9760d8:	aa1303e1 	mov	x1, x19
  9760dc:	f2a00300 	movk	x0, #0x18, lsl #16
  9760e0:	94000aa0 	bl	978b60 <memcmp>
  9760e4:	35000060 	cbnz	w0, 9760f0 <imx_src_handler+0x6c>
  9760e8:	91461aa0 	add	x0, x21, #0x186, lsl #12
  9760ec:	9400048f 	bl	977328 <imx_rdc_init>
  9760f0:	d2800b01 	mov	x1, #0x58                  	// #88
  9760f4:	f2a60681 	movk	x1, #0x3034, lsl #16
  9760f8:	b9400020 	ldr	w0, [x1]
  9760fc:	121f7800 	and	w0, w0, #0xfffffffe
  976100:	b9000020 	str	w0, [x1]
  976104:	52800000 	mov	w0, #0x0                   	// #0
  976108:	14000006 	b	976120 <imx_src_handler+0x9c>
  97610c:	d2800b00 	mov	x0, #0x58                  	// #88
  976110:	f2a60680 	movk	x0, #0x3034, lsl #16
  976114:	b9400000 	ldr	w0, [x0]
  976118:	2a2003e0 	mvn	w0, w0
  97611c:	12000000 	and	w0, w0, #0x1
  976120:	a94153f3 	ldp	x19, x20, [sp, #16]
  976124:	a9425bf5 	ldp	x21, x22, [sp, #32]
  976128:	a8c37bfd 	ldp	x29, x30, [sp], #48
  97612c:	d65f03c0 	ret
  976130:	aa1303e0 	mov	x0, x19
  976134:	94000c27 	bl	9791d0 <strlen>
  976138:	aa0003e2 	mov	x2, x0
  97613c:	d28c0000 	mov	x0, #0x6000                	// #24576
  976140:	aa1303e1 	mov	x1, x19
  976144:	f2a00300 	movk	x0, #0x18, lsl #16
  976148:	94000a86 	bl	978b60 <memcmp>
  97614c:	35000060 	cbnz	w0, 976158 <imx_src_handler+0xd4>
  976150:	91461ea0 	add	x0, x21, #0x187, lsl #12
  976154:	94000475 	bl	977328 <imx_rdc_init>
  976158:	d2801d81 	mov	x1, #0xec                  	// #236
  97615c:	f2a60741 	movk	x1, #0x303a, lsl #16
  976160:	b9400020 	ldr	w0, [x1]
  976164:	7208041f 	tst	w0, #0x3000000
  976168:	54000400 	b.eq	9761e8 <imx_src_handler+0x164>  // b.none
  97616c:	d2800001 	mov	x1, #0x0                   	// #0
  976170:	d2800b02 	mov	x2, #0x58                  	// #88
  976174:	d2800183 	mov	x3, #0xc                   	// #12
  976178:	f2a60682 	movk	x2, #0x3034, lsl #16
  97617c:	f2a60723 	movk	x3, #0x3039, lsl #16
  976180:	b9400040 	ldr	w0, [x2]
  976184:	32000000 	orr	w0, w0, #0x1
  976188:	b9000040 	str	w0, [x2]
  97618c:	d2800582 	mov	x2, #0x2c                  	// #44
  976190:	f2a60742 	movk	x2, #0x303a, lsl #16
  976194:	b9400040 	ldr	w0, [x2]
  976198:	32000000 	orr	w0, w0, #0x1
  97619c:	b9000040 	str	w0, [x2]
  9761a0:	b9400060 	ldr	w0, [x3]
  9761a4:	321f0800 	orr	w0, w0, #0xe
  9761a8:	b9000060 	str	w0, [x3]
  9761ac:	d53be000 	mrs	x0, cntfrq_el0
  9761b0:	d53be022 	mrs	x2, cntpct_el0
  9761b4:	d284e204 	mov	x4, #0x2710                	// #10000
  9761b8:	9b047c00 	mul	x0, x0, x4
  9761bc:	d2884804 	mov	x4, #0x4240                	// #16960
  9761c0:	f2a001e4 	movk	x4, #0xf, lsl #16
  9761c4:	9ac40800 	udiv	x0, x0, x4
  9761c8:	8b020000 	add	x0, x0, x2
  9761cc:	b9400062 	ldr	w2, [x3]
  9761d0:	12000c42 	and	w2, w2, #0xf
  9761d4:	7100205f 	cmp	w2, #0x8
  9761d8:	54000301 	b.ne	976238 <imx_src_handler+0x1b4>  // b.any
  9761dc:	d2800000 	mov	x0, #0x0                   	// #0
  9761e0:	a9008281 	stp	x1, x0, [x20, #8]
  9761e4:	17ffffc8 	b	976104 <imx_src_handler+0x80>
  9761e8:	d2800582 	mov	x2, #0x2c                  	// #44
  9761ec:	f2a60742 	movk	x2, #0x303a, lsl #16
  9761f0:	b9400040 	ldr	w0, [x2]
  9761f4:	121f7800 	and	w0, w0, #0xfffffffe
  9761f8:	b9000040 	str	w0, [x2]
  9761fc:	d53be000 	mrs	x0, cntfrq_el0
  976200:	d53be022 	mrs	x2, cntpct_el0
  976204:	d284e203 	mov	x3, #0x2710                	// #10000
  976208:	9b037c00 	mul	x0, x0, x3
  97620c:	d2884803 	mov	x3, #0x4240                	// #16960
  976210:	f2a001e3 	movk	x3, #0xf, lsl #16
  976214:	9ac30800 	udiv	x0, x0, x3
  976218:	8b020000 	add	x0, x0, x2
  97621c:	b9400022 	ldr	w2, [x1]
  976220:	360ffa62 	tbz	w2, #1, 97616c <imx_src_handler+0xe8>
  976224:	d53be022 	mrs	x2, cntpct_el0
  976228:	eb00005f 	cmp	x2, x0
  97622c:	54ffff89 	b.ls	97621c <imx_src_handler+0x198>  // b.plast
  976230:	92800761 	mov	x1, #0xffffffffffffffc4    	// #-60
  976234:	17ffffcf 	b	976170 <imx_src_handler+0xec>
  976238:	d53be022 	mrs	x2, cntpct_el0
  97623c:	eb00005f 	cmp	x2, x0
  976240:	54fffc69 	b.ls	9761cc <imx_src_handler+0x148>  // b.plast
  976244:	92800760 	mov	x0, #0xffffffffffffffc4    	// #-60
  976248:	17ffffe6 	b	9761e0 <imx_src_handler+0x15c>
  97624c:	12800000 	mov	w0, #0xffffffff            	// #-1
  976250:	17ffffb4 	b	976120 <imx_src_handler+0x9c>

0000000000976254 <imx8m_caam_init>:
  976254:	a9bf7bfd 	stp	x29, x30, [sp, #-16]!
  976258:	d2837c80 	mov	x0, #0x1be4                	// #7140
  97625c:	f2a61200 	movk	x0, #0x3090, lsl #16
  976260:	910003fd 	mov	x29, sp
  976264:	52800061 	mov	w1, #0x3                   	// #3
  976268:	b9000001 	str	w1, [x0]
  97626c:	52804061 	mov	w1, #0x203                 	// #515
  976270:	b9000001 	str	w1, [x0]
  976274:	d2800200 	mov	x0, #0x10                  	// #16
  976278:	52900221 	mov	w1, #0x8011                	// #32785
  97627c:	f2a61200 	movk	x0, #0x3090, lsl #16
  976280:	b9400002 	ldr	w2, [x0]
  976284:	6b01005f 	cmp	w2, w1
  976288:	54000321 	b.ne	9762ec <imx8m_caam_init+0x98>  // b.any
  97628c:	f0000000 	adrp	x0, 979000 <vprintf+0x2b4>
  976290:	912e3400 	add	x0, x0, #0xb8d
  976294:	97ffe8f5 	bl	970668 <tf_log>
  976298:	d2800301 	mov	x1, #0x18                  	// #24
  97629c:	52800020 	mov	w0, #0x1                   	// #1
  9762a0:	f2a61201 	movk	x1, #0x3090, lsl #16
  9762a4:	52801fe2 	mov	w2, #0xff                  	// #255
  9762a8:	b9000020 	str	w0, [x1]
  9762ac:	b9000820 	str	w0, [x1, #8]
  9762b0:	d2834081 	mov	x1, #0x1a04                	// #6660
  9762b4:	f2a61201 	movk	x1, #0x3090, lsl #16
  9762b8:	b9000022 	str	w2, [x1]
  9762bc:	d2834102 	mov	x2, #0x1a08                	// #6664
  9762c0:	f2a61202 	movk	x2, #0x3090, lsl #16
  9762c4:	12800001 	mov	w1, #0xffffffff            	// #-1
  9762c8:	b9000041 	str	w1, [x2]
  9762cc:	b9000441 	str	w1, [x2, #4]
  9762d0:	d2837c81 	mov	x1, #0x1be4                	// #7140
  9762d4:	f2a61201 	movk	x1, #0x3090, lsl #16
  9762d8:	b9000020 	str	w0, [x1]
  9762dc:	320083e0 	mov	w0, #0x10001               	// #65537
  9762e0:	b9000020 	str	w0, [x1]
  9762e4:	a8c17bfd 	ldp	x29, x30, [sp], #16
  9762e8:	d65f03c0 	ret
  9762ec:	52800021 	mov	w1, #0x1                   	// #1
  9762f0:	b9000001 	str	w1, [x0]
  9762f4:	17ffffe9 	b	976298 <imx8m_caam_init+0x44>

00000000009762f8 <imx_csu_init>:
  9762f8:	f0000005 	adrp	x5, 979000 <vprintf+0x2b4>
  9762fc:	52806b06 	mov	w6, #0x358                 	// #856
  976300:	52804307 	mov	w7, #0x218                 	// #536
  976304:	52804008 	mov	w8, #0x200                 	// #512
  976308:	9117b0a5 	add	x5, x5, #0x5ec
  97630c:	72a607c6 	movk	w6, #0x303e, lsl #16
  976310:	52800022 	mov	w2, #0x1                   	// #1
  976314:	72a607c7 	movk	w7, #0x303e, lsl #16
  976318:	72a607c8 	movk	w8, #0x303e, lsl #16
  97631c:	52a607c9 	mov	w9, #0x303e0000            	// #809369600
  976320:	52801fea 	mov	w10, #0xff                  	// #255
  976324:	b9400001 	ldr	w1, [x0]
  976328:	35000041 	cbnz	w1, 976330 <imx_csu_init+0x38>
  97632c:	d65f03c0 	ret
  976330:	51000423 	sub	w3, w1, #0x1
  976334:	71000c7f 	cmp	w3, #0x3
  976338:	54000308 	b.hi	976398 <imx_csu_init+0xa0>  // b.pmore
  97633c:	79400801 	ldrh	w1, [x0, #4]
  976340:	386348a3 	ldrb	w3, [x5, w3, uxtw]
  976344:	10000064 	adr	x4, 976350 <imx_csu_init+0x58>
  976348:	8b238883 	add	x3, x4, w3, sxtb #2
  97634c:	d61f0060 	br	x3
  976350:	53017c23 	lsr	w3, w1, #1
  976354:	531c0021 	ubfiz	w1, w1, #4, #1
  976358:	11002024 	add	w4, w1, #0x8
  97635c:	0b030923 	add	w3, w9, w3, lsl #2
  976360:	1ac42044 	lsl	w4, w2, w4
  976364:	b940006b 	ldr	w11, [x3]
  976368:	6a0b009f 	tst	w4, w11
  97636c:	54000161 	b.ne	976398 <imx_csu_init+0xa0>  // b.any
  976370:	b940040b 	ldr	w11, [x0, #4]
  976374:	b940006c 	ldr	w12, [x3]
  976378:	d3504164 	ubfx	x4, x11, #16, #1
  97637c:	d351616b 	ubfx	x11, x11, #17, #8
  976380:	2a042164 	orr	w4, w11, w4, lsl #8
  976384:	1ac12084 	lsl	w4, w4, w1
  976388:	1ac12141 	lsl	w1, w10, w1
  97638c:	0a210181 	bic	w1, w12, w1
  976390:	2a010081 	orr	w1, w4, w1
  976394:	b9000061 	str	w1, [x3]
  976398:	91002000 	add	x0, x0, #0x8
  97639c:	17ffffe2 	b	976324 <imx_csu_init+0x2c>
  9763a0:	53047c23 	lsr	w3, w1, #4
  9763a4:	531f0c21 	ubfiz	w1, w1, #1, #4
  9763a8:	11000424 	add	w4, w1, #0x1
  9763ac:	0b030903 	add	w3, w8, w3, lsl #2
  9763b0:	1ac42044 	lsl	w4, w2, w4
  9763b4:	b940006b 	ldr	w11, [x3]
  9763b8:	6a0b009f 	tst	w4, w11
  9763bc:	54fffee1 	b.ne	976398 <imx_csu_init+0xa0>  // b.any
  9763c0:	b940040b 	ldr	w11, [x0, #4]
  9763c4:	b940006c 	ldr	w12, [x3]
  9763c8:	d3504164 	ubfx	x4, x11, #16, #1
  9763cc:	d359656b 	ubfx	x11, x11, #25, #1
  9763d0:	2a040564 	orr	w4, w11, w4, lsl #1
  9763d4:	1ac12084 	lsl	w4, w4, w1
  9763d8:	1ac12041 	lsl	w1, w2, w1
  9763dc:	17ffffec 	b	97638c <imx_csu_init+0x94>
  9763e0:	53047c23 	lsr	w3, w1, #4
  9763e4:	531f0c21 	ubfiz	w1, w1, #1, #4
  9763e8:	11000424 	add	w4, w1, #0x1
  9763ec:	0b0308e3 	add	w3, w7, w3, lsl #2
  9763f0:	1ac42044 	lsl	w4, w2, w4
  9763f4:	b940006b 	ldr	w11, [x3]
  9763f8:	6a0b009f 	tst	w4, w11
  9763fc:	54fffce1 	b.ne	976398 <imx_csu_init+0xa0>  // b.any
  976400:	b940040b 	ldr	w11, [x0, #4]
  976404:	b940006c 	ldr	w12, [x3]
  976408:	d3504164 	ubfx	x4, x11, #16, #1
  97640c:	d35a696b 	ubfx	x11, x11, #26, #1
  976410:	17fffff0 	b	9763d0 <imx_csu_init+0xd8>
  976414:	53047c23 	lsr	w3, w1, #4
  976418:	531f0c21 	ubfiz	w1, w1, #1, #4
  97641c:	11000424 	add	w4, w1, #0x1
  976420:	0b0308c3 	add	w3, w6, w3, lsl #2
  976424:	1ac42044 	lsl	w4, w2, w4
  976428:	b940006b 	ldr	w11, [x3]
  97642c:	6a0b009f 	tst	w4, w11
  976430:	54fffb41 	b.ne	976398 <imx_csu_init+0xa0>  // b.any
  976434:	b940040b 	ldr	w11, [x0, #4]
  976438:	b940006c 	ldr	w12, [x3]
  97643c:	d3504164 	ubfx	x4, x11, #16, #1
  976440:	d35b6d6b 	ubfx	x11, x11, #27, #1
  976444:	17ffffe3 	b	9763d0 <imx_csu_init+0xd8>

0000000000976448 <imx_validate_ns_entrypoint>:
  976448:	12b7fc01 	mov	w1, #0x401fffff            	// #1075838975
  97644c:	eb01001f 	cmp	x0, x1
  976450:	12800020 	mov	w0, #0xfffffffe            	// #-2
  976454:	1a9f9000 	csel	w0, w0, wzr, ls  // ls = plast
  976458:	d65f03c0 	ret

000000000097645c <imx_pwr_domain_on>:
  97645c:	a9be7bfd 	stp	x29, x30, [sp, #-32]!
  976460:	f0000001 	adrp	x1, 979000 <vprintf+0x2b4>
  976464:	910003fd 	mov	x29, sp
  976468:	f946b821 	ldr	x1, [x1, #3440]
  97646c:	f9000bf3 	str	x19, [sp, #16]
  976470:	12001c13 	and	w19, w0, #0xff
  976474:	2a1303e0 	mov	w0, w19
  976478:	97fffd7a 	bl	975a60 <imx_set_cpu_secure_entry>
  97647c:	2a1303e0 	mov	w0, w19
  976480:	97fffda3 	bl	975b0c <imx_set_cpu_pwr_on>
  976484:	52800000 	mov	w0, #0x0                   	// #0
  976488:	f9400bf3 	ldr	x19, [sp, #16]
  97648c:	a8c27bfd 	ldp	x29, x30, [sp], #32
  976490:	d65f03c0 	ret

0000000000976494 <imx_pwr_domain_on_finish>:
  976494:	a9bf7bfd 	stp	x29, x30, [sp, #-16]!
  976498:	910003fd 	mov	x29, sp
  97649c:	97fff80d 	bl	9744d0 <plat_gic_pcpu_init>
  9764a0:	a8c17bfd 	ldp	x29, x30, [sp], #16
  9764a4:	17fff801 	b	9744a8 <plat_gic_cpuif_enable>

00000000009764a8 <imx_pwr_domain_off>:
  9764a8:	a9be7bfd 	stp	x29, x30, [sp, #-32]!
  9764ac:	910003fd 	mov	x29, sp
  9764b0:	f9000bf3 	str	x19, [sp, #16]
  9764b4:	d53800b3 	mrs	x19, mpidr_el1
  9764b8:	97fff801 	bl	9744bc <plat_gic_cpuif_disable>
  9764bc:	12001e60 	and	w0, w19, #0xff
  9764c0:	f9400bf3 	ldr	x19, [sp, #16]
  9764c4:	a8c27bfd 	ldp	x29, x30, [sp], #32
  9764c8:	17fffd71 	b	975a8c <imx_set_cpu_pwr_off>

00000000009764cc <imx_validate_power_state>:
  9764cc:	d3504002 	ubfx	x2, x0, #16, #1
  9764d0:	12003c03 	and	w3, w0, #0xffff
  9764d4:	d3586400 	ubfx	x0, x0, #24, #2
  9764d8:	71000c1f 	cmp	w0, #0x3
  9764dc:	540001e0 	b.eq	976518 <imx_validate_power_state+0x4c>  // b.none
  9764e0:	35000082 	cbnz	w2, 9764f0 <imx_validate_power_state+0x24>
  9764e4:	52800040 	mov	w0, #0x2                   	// #2
  9764e8:	39000020 	strb	w0, [x1]
  9764ec:	39000420 	strb	w0, [x1, #1]
  9764f0:	7100cc7f 	cmp	w3, #0x33
  9764f4:	1a9f17e0 	cset	w0, eq  // eq = none
  9764f8:	6a02001f 	tst	w0, w2
  9764fc:	540000a0 	b.eq	976510 <imx_validate_power_state+0x44>  // b.none
  976500:	52800080 	mov	w0, #0x4                   	// #4
  976504:	39000020 	strb	w0, [x1]
  976508:	52800020 	mov	w0, #0x1                   	// #1
  97650c:	39000420 	strb	w0, [x1, #1]
  976510:	52800000 	mov	w0, #0x0                   	// #0
  976514:	14000002 	b	97651c <imx_validate_power_state+0x50>
  976518:	12800020 	mov	w0, #0xfffffffe            	// #-2
  97651c:	d65f03c0 	ret

0000000000976520 <imx_cpu_standby>:
  976520:	d5033f9f 	dsb	sy
  976524:	d53e1100 	mrs	x0, scr_el3
  976528:	b27e0000 	orr	x0, x0, #0x4
  97652c:	d51e1100 	msr	scr_el3, x0
  976530:	d5033fdf 	isb
  976534:	d503207f 	wfi
  976538:	d53e1100 	mrs	x0, scr_el3
  97653c:	927df800 	and	x0, x0, #0xfffffffffffffffb
  976540:	d51e1100 	msr	scr_el3, x0
  976544:	d5033fdf 	isb
  976548:	d65f03c0 	ret

000000000097654c <imx_domain_suspend>:
  97654c:	a9be7bfd 	stp	x29, x30, [sp, #-32]!
  976550:	910003fd 	mov	x29, sp
  976554:	a90153f3 	stp	x19, x20, [sp, #16]
  976558:	aa0003f4 	mov	x20, x0
  97655c:	d53800b3 	mrs	x19, mpidr_el1
  976560:	39400000 	ldrb	w0, [x0]
  976564:	12001e73 	and	w19, w19, #0xff
  976568:	51000c00 	sub	w0, w0, #0x3
  97656c:	7100041f 	cmp	w0, #0x1
  976570:	54000428 	b.hi	9765f4 <imx_domain_suspend+0xa8>  // b.pmore
  976574:	97fff7d2 	bl	9744bc <plat_gic_cpuif_disable>
  976578:	f0000001 	adrp	x1, 979000 <vprintf+0x2b4>
  97657c:	2a1303e0 	mov	w0, w19
  976580:	f946b821 	ldr	x1, [x1, #3440]
  976584:	97fffd37 	bl	975a60 <imx_set_cpu_secure_entry>
  976588:	2a1303e0 	mov	w0, w19
  97658c:	52800021 	mov	w1, #0x1                   	// #1
  976590:	97fffd97 	bl	975bec <imx_set_cpu_lpm>
  976594:	39400681 	ldrb	w1, [x20, #1]
  976598:	34000061 	cbz	w1, 9765a4 <imx_domain_suspend+0x58>
  97659c:	2a1303e0 	mov	w0, w19
  9765a0:	97fffdc7 	bl	975cbc <imx_set_cluster_powerdown>
  9765a4:	39400a80 	ldrb	w0, [x20, #2]
  9765a8:	51000c00 	sub	w0, w0, #0x3
  9765ac:	7100041f 	cmp	w0, #0x1
  9765b0:	540003c8 	b.hi	976628 <imx_domain_suspend+0xdc>  // b.pmore
  9765b4:	97fffd1c 	bl	975a24 <imx_m4_lpa_active>
  9765b8:	72001c1f 	tst	w0, #0xff
  9765bc:	54000281 	b.ne	97660c <imx_domain_suspend+0xc0>  // b.any
  9765c0:	2a1303e0 	mov	w0, w19
  9765c4:	52800021 	mov	w1, #0x1                   	// #1
  9765c8:	97fffe61 	bl	975f4c <imx_set_sys_lpm>
  9765cc:	97fffb00 	bl	9751cc <dram_enter_retention>
  9765d0:	52800020 	mov	w0, #0x1                   	// #1
  9765d4:	97fffe84 	bl	975fe4 <imx_anamix_override>
  9765d8:	2a1303e0 	mov	w0, w19
  9765dc:	94000197 	bl	976c38 <imx_noc_wrapper_pre_suspend>
  9765e0:	2a1303e0 	mov	w0, w19
  9765e4:	52800021 	mov	w1, #0x1                   	// #1
  9765e8:	a94153f3 	ldp	x19, x20, [sp, #16]
  9765ec:	a8c27bfd 	ldp	x29, x30, [sp], #32
  9765f0:	17fffdfa 	b	975dd8 <imx_set_sys_wakeup>
  9765f4:	d5033f9f 	dsb	sy
  9765f8:	d53e1100 	mrs	x0, scr_el3
  9765fc:	b27e0000 	orr	x0, x0, #0x4
  976600:	d51e1100 	msr	scr_el3, x0
  976604:	d5033fdf 	isb
  976608:	17ffffe3 	b	976594 <imx_domain_suspend+0x48>
  97660c:	d2801300 	mov	x0, #0x98                  	// #152
  976610:	f2a60720 	movk	x0, #0x3039, lsl #16
  976614:	b9400000 	ldr	w0, [x0]
  976618:	7100341f 	cmp	w0, #0xd
  97661c:	54fffe21 	b.ne	9765e0 <imx_domain_suspend+0x94>  // b.any
  976620:	97fffaeb 	bl	9751cc <dram_enter_retention>
  976624:	17ffffef 	b	9765e0 <imx_domain_suspend+0x94>
  976628:	a94153f3 	ldp	x19, x20, [sp, #16]
  97662c:	a8c27bfd 	ldp	x29, x30, [sp], #32
  976630:	d65f03c0 	ret

0000000000976634 <imx_domain_suspend_finish>:
  976634:	a9be7bfd 	stp	x29, x30, [sp, #-32]!
  976638:	910003fd 	mov	x29, sp
  97663c:	a90153f3 	stp	x19, x20, [sp, #16]
  976640:	aa0003f4 	mov	x20, x0
  976644:	d53800b3 	mrs	x19, mpidr_el1
  976648:	39400800 	ldrb	w0, [x0, #2]
  97664c:	12001e73 	and	w19, w19, #0xff
  976650:	51000c00 	sub	w0, w0, #0x3
  976654:	7100041f 	cmp	w0, #0x1
  976658:	540001e8 	b.hi	976694 <imx_domain_suspend_finish+0x60>  // b.pmore
  97665c:	97fffcf2 	bl	975a24 <imx_m4_lpa_active>
  976660:	72001c1f 	tst	w0, #0xff
  976664:	54000381 	b.ne	9766d4 <imx_domain_suspend_finish+0xa0>  // b.any
  976668:	2a1303e0 	mov	w0, w19
  97666c:	94000189 	bl	976c90 <imx_noc_wrapper_post_resume>
  976670:	52800000 	mov	w0, #0x0                   	// #0
  976674:	97fffe5c 	bl	975fe4 <imx_anamix_override>
  976678:	97fffb34 	bl	975348 <dram_exit_retention>
  97667c:	2a1303e0 	mov	w0, w19
  976680:	52800001 	mov	w1, #0x0                   	// #0
  976684:	97fffe32 	bl	975f4c <imx_set_sys_lpm>
  976688:	2a1303e0 	mov	w0, w19
  97668c:	52800001 	mov	w1, #0x0                   	// #0
  976690:	97fffdd2 	bl	975dd8 <imx_set_sys_wakeup>
  976694:	39400680 	ldrb	w0, [x20, #1]
  976698:	340000a0 	cbz	w0, 9766ac <imx_domain_suspend_finish+0x78>
  97669c:	97fffe4c 	bl	975fcc <imx_clear_rbc_count>
  9766a0:	2a1303e0 	mov	w0, w19
  9766a4:	52800001 	mov	w1, #0x0                   	// #0
  9766a8:	97fffd85 	bl	975cbc <imx_set_cluster_powerdown>
  9766ac:	39400280 	ldrb	w0, [x20]
  9766b0:	51000c00 	sub	w0, w0, #0x3
  9766b4:	7100041f 	cmp	w0, #0x1
  9766b8:	540001c8 	b.hi	9766f0 <imx_domain_suspend_finish+0xbc>  // b.pmore
  9766bc:	2a1303e0 	mov	w0, w19
  9766c0:	52800001 	mov	w1, #0x0                   	// #0
  9766c4:	97fffd4a 	bl	975bec <imx_set_cpu_lpm>
  9766c8:	a94153f3 	ldp	x19, x20, [sp, #16]
  9766cc:	a8c27bfd 	ldp	x29, x30, [sp], #32
  9766d0:	17fff776 	b	9744a8 <plat_gic_cpuif_enable>
  9766d4:	d2801300 	mov	x0, #0x98                  	// #152
  9766d8:	f2a60720 	movk	x0, #0x3039, lsl #16
  9766dc:	b9400000 	ldr	w0, [x0]
  9766e0:	7100341f 	cmp	w0, #0xd
  9766e4:	54fffd21 	b.ne	976688 <imx_domain_suspend_finish+0x54>  // b.any
  9766e8:	97fffb18 	bl	975348 <dram_exit_retention>
  9766ec:	17ffffe7 	b	976688 <imx_domain_suspend_finish+0x54>
  9766f0:	d53e1100 	mrs	x0, scr_el3
  9766f4:	927df800 	and	x0, x0, #0xfffffffffffffffb
  9766f8:	d51e1100 	msr	scr_el3, x0
  9766fc:	d5033fdf 	isb
  976700:	a94153f3 	ldp	x19, x20, [sp, #16]
  976704:	a8c27bfd 	ldp	x29, x30, [sp], #32
  976708:	d65f03c0 	ret

000000000097670c <imx_get_sys_suspend_power_state>:
  97670c:	52800061 	mov	w1, #0x3                   	// #3
  976710:	39000001 	strb	w1, [x0]
  976714:	39000401 	strb	w1, [x0, #1]
  976718:	39000801 	strb	w1, [x0, #2]
  97671c:	d65f03c0 	ret

0000000000976720 <imx_system_reset>:
  976720:	d2a60501 	mov	x1, #0x30280000            	// #807927808
  976724:	52800140 	mov	w0, #0xa                   	// #10
  976728:	79400022 	ldrh	w2, [x1]
  97672c:	0a020000 	and	w0, w0, w2
  976730:	52800282 	mov	w2, #0x14                  	// #20
  976734:	2a020000 	orr	w0, w0, w2
  976738:	79000020 	strh	w0, [x1]
  97673c:	d2800040 	mov	x0, #0x2                   	// #2
  976740:	528aaaa1 	mov	w1, #0x5555                	// #21845
  976744:	f2a60500 	movk	x0, #0x3028, lsl #16
  976748:	79000001 	strh	w1, [x0]
  97674c:	128aaaa1 	mov	w1, #0xffffaaaa            	// #-21846
  976750:	79000001 	strh	w1, [x0]
  976754:	14000000 	b	976754 <imx_system_reset+0x34>

0000000000976758 <imx_system_off>:
  976758:	d2800701 	mov	x1, #0x38                  	// #56
  97675c:	52800c22 	mov	w2, #0x61                  	// #97
  976760:	f2a606e1 	movk	x1, #0x3037, lsl #16
  976764:	b9400020 	ldr	w0, [x1]
  976768:	2a020000 	orr	w0, w0, w2
  97676c:	b9000020 	str	w0, [x1]
  976770:	14000000 	b	976770 <imx_system_off+0x18>

0000000000976774 <imx_pwr_domain_pwr_down_wfi>:
  976774:	39400400 	ldrb	w0, [x0, #1]
  976778:	51000c00 	sub	w0, w0, #0x3
  97677c:	7100041f 	cmp	w0, #0x1
  976780:	54000108 	b.hi	9767a0 <imx_pwr_domain_pwr_down_wfi+0x2c>  // b.pmore
  976784:	a9bf7bfd 	stp	x29, x30, [sp, #-16]!
  976788:	910003fd 	mov	x29, sp
  97678c:	97fffe09 	bl	975fb0 <imx_set_rbc_count>
  976790:	528003c0 	mov	w0, #0x1e                  	// #30
  976794:	97ffec67 	bl	971930 <udelay>
  976798:	d503207f 	wfi
  97679c:	17ffffff 	b	976798 <imx_pwr_domain_pwr_down_wfi+0x24>
  9767a0:	d503207f 	wfi
  9767a4:	17ffffff 	b	9767a0 <imx_pwr_domain_pwr_down_wfi+0x2c>

00000000009767a8 <imx_gpc_pm_domain_enable>:
  9767a8:	71004c1f 	cmp	w0, #0x13
  9767ac:	54002448 	b.hi	976c34 <imx_gpc_pm_domain_enable+0x48c>  // b.pmore
  9767b0:	a9bc7bfd 	stp	x29, x30, [sp, #-64]!
  9767b4:	12001c21 	and	w1, w1, #0xff
  9767b8:	910003fd 	mov	x29, sp
  9767bc:	a90153f3 	stp	x19, x20, [sp, #16]
  9767c0:	2a0003f3 	mov	w19, w0
  9767c4:	a9025bf5 	stp	x21, x22, [sp, #32]
  9767c8:	a90363f7 	stp	x23, x24, [sp, #48]
  9767cc:	35000280 	cbnz	w0, 97681c <imx_gpc_pm_domain_enable+0x74>
  9767d0:	b0000020 	adrp	x0, 97b000 <__RO_END__>
  9767d4:	52800063 	mov	w3, #0x3                   	// #3
  9767d8:	9109f000 	add	x0, x0, #0x27c
  9767dc:	2a0303e6 	mov	w6, w3
  9767e0:	52a60708 	mov	w8, #0x30380000            	// #808976384
  9767e4:	52a20007 	mov	w7, #0x10000000            	// #268435456
  9767e8:	b9400002 	ldr	w2, [x0]
  9767ec:	91003000 	add	x0, x0, #0xc
  9767f0:	0b080042 	add	w2, w2, w8
  9767f4:	b9400044 	ldr	w4, [x2]
  9767f8:	b81f8004 	stur	w4, [x0, #-8]
  9767fc:	b85fc004 	ldur	w4, [x0, #-4]
  976800:	7100009f 	cmp	w4, #0x0
  976804:	b9400044 	ldr	w4, [x2]
  976808:	1a8600e5 	csel	w5, w7, w6, eq  // eq = none
  97680c:	71000463 	subs	w3, w3, #0x1
  976810:	2a050084 	orr	w4, w4, w5
  976814:	b9000044 	str	w4, [x2]
  976818:	54fffe81 	b.ne	9767e8 <imx_gpc_pm_domain_enable+0x40>  // b.any
  97681c:	2a1303f5 	mov	w21, w19
  976820:	f0000014 	adrp	x20, 979000 <vprintf+0x2b4>
  976824:	d2800280 	mov	x0, #0x14                  	// #20
  976828:	34001541 	cbz	w1, 976ad0 <imx_gpc_pm_domain_enable+0x328>
  97682c:	911c4281 	add	x1, x20, #0x710
  976830:	9b0006a0 	madd	x0, x21, x0, x1
  976834:	39404000 	ldrb	w0, [x0, #16]
  976838:	340000e0 	cbz	w0, 976854 <imx_gpc_pm_domain_enable+0xac>
  97683c:	90000061 	adrp	x1, 982000 <imx_gicv3_ctx+0x1e90>
  976840:	52800020 	mov	w0, #0x1                   	// #1
  976844:	1ad32000 	lsl	w0, w0, w19
  976848:	b94ae022 	ldr	w2, [x1, #2784]
  97684c:	2a020000 	orr	w0, w0, w2
  976850:	b90ae020 	str	w0, [x1, #2784]
  976854:	7100467f 	cmp	w19, #0x11
  976858:	54000ce1 	b.ne	9769f4 <imx_gpc_pm_domain_enable+0x24c>  // b.any
  97685c:	d2800400 	mov	x0, #0x20                  	// #32
  976860:	12800001 	mov	w1, #0xffffffff            	// #-1
  976864:	f2a65f80 	movk	x0, #0x32fc, lsl #16
  976868:	b900001f 	str	wzr, [x0]
  97686c:	b9002001 	str	w1, [x0, #32]
  976870:	529f0fc1 	mov	w1, #0xf87e                	// #63614
  976874:	72afffe1 	movk	w1, #0x7fff, lsl #16
  976878:	b9003001 	str	w1, [x0, #48]
  97687c:	d2800280 	mov	x0, #0x14                  	// #20
  976880:	911c4281 	add	x1, x20, #0x710
  976884:	52a60743 	mov	w3, #0x303a0000            	// #809107456
  976888:	9b007ea0 	mul	x0, x21, x0
  97688c:	8b000022 	add	x2, x1, x0
  976890:	b8606821 	ldr	w1, [x1, x0]
  976894:	b9400c42 	ldr	w2, [x2, #12]
  976898:	0b030042 	add	w2, w2, w3
  97689c:	b9400043 	ldr	w3, [x2]
  9768a0:	121f7863 	and	w3, w3, #0xfffffffe
  9768a4:	b9000043 	str	w3, [x2]
  9768a8:	d2801b02 	mov	x2, #0xd8                  	// #216
  9768ac:	f2a60742 	movk	x2, #0x303a, lsl #16
  9768b0:	b9400043 	ldr	w3, [x2]
  9768b4:	2a010060 	orr	w0, w3, w1
  9768b8:	b9000040 	str	w0, [x2]
  9768bc:	b9400040 	ldr	w0, [x2]
  9768c0:	6a01001f 	tst	w0, w1
  9768c4:	54ffffc1 	b.ne	9768bc <imx_gpc_pm_domain_enable+0x114>  // b.any
  9768c8:	7100467f 	cmp	w19, #0x11
  9768cc:	54000a41 	b.ne	976a14 <imx_gpc_pm_domain_enable+0x26c>  // b.any
  9768d0:	d2801281 	mov	x1, #0x94                  	// #148
  9768d4:	f2a60721 	movk	x1, #0x3039, lsl #16
  9768d8:	b9400020 	ldr	w0, [x1]
  9768dc:	3647ffe0 	tbz	w0, #8, 9768d8 <imx_gpc_pm_domain_enable+0x130>
  9768e0:	d2800801 	mov	x1, #0x40                  	// #64
  9768e4:	d2800a00 	mov	x0, #0x50                  	// #80
  9768e8:	f2a65f81 	movk	x1, #0x32fc, lsl #16
  9768ec:	f2a65f80 	movk	x0, #0x32fc, lsl #16
  9768f0:	d2800403 	mov	x3, #0x20                  	// #32
  9768f4:	12800002 	mov	w2, #0xffffffff            	// #-1
  9768f8:	f2a65f83 	movk	x3, #0x32fc, lsl #16
  9768fc:	b900003f 	str	wzr, [x1]
  976900:	b900001f 	str	wzr, [x0]
  976904:	b9000062 	str	w2, [x3]
  976908:	b9000022 	str	w2, [x1]
  97690c:	529f0fc1 	mov	w1, #0xf87e                	// #63614
  976910:	72afffe1 	movk	w1, #0x7fff, lsl #16
  976914:	b9000001 	str	w1, [x0]
  976918:	911c4294 	add	x20, x20, #0x710
  97691c:	d2800280 	mov	x0, #0x14                  	// #20
  976920:	9b0052b4 	madd	x20, x21, x0, x20
  976924:	39404280 	ldrb	w0, [x20, #16]
  976928:	34000160 	cbz	w0, 976954 <imx_gpc_pm_domain_enable+0x1ac>
  97692c:	d2803200 	mov	x0, #0x190                 	// #400
  976930:	b9400682 	ldr	w2, [x20, #4]
  976934:	f2a60740 	movk	x0, #0x303a, lsl #16
  976938:	b9400001 	ldr	w1, [x0]
  97693c:	2a020021 	orr	w1, w1, w2
  976940:	b9000001 	str	w1, [x0]
  976944:	b9400a81 	ldr	w1, [x20, #8]
  976948:	b9400002 	ldr	w2, [x0]
  97694c:	6a01005f 	tst	w2, w1
  976950:	54ffffc0 	b.eq	976948 <imx_gpc_pm_domain_enable+0x1a0>  // b.none
  976954:	7100467f 	cmp	w19, #0x11
  976958:	54000761 	b.ne	976a44 <imx_gpc_pm_domain_enable+0x29c>  // b.any
  97695c:	d2804400 	mov	x0, #0x220                 	// #544
  976960:	52840301 	mov	w1, #0x2018                	// #8216
  976964:	f2a65f80 	movk	x0, #0x32fc, lsl #16
  976968:	72a00041 	movk	w1, #0x2, lsl #16
  97696c:	528e0002 	mov	w2, #0x7000                	// #28672
  976970:	b9000001 	str	w1, [x0]
  976974:	51002021 	sub	w1, w1, #0x8
  976978:	b9000001 	str	w1, [x0]
  97697c:	d2804001 	mov	x1, #0x200                 	// #512
  976980:	f2a65f81 	movk	x1, #0x32fc, lsl #16
  976984:	72a000e2 	movk	w2, #0x7, lsl #16
  976988:	b9400020 	ldr	w0, [x1]
  97698c:	2a020000 	orr	w0, w0, w2
  976990:	b9000020 	str	w0, [x1]
  976994:	f0000014 	adrp	x20, 979000 <vprintf+0x2b4>
  976998:	52800116 	mov	w22, #0x8                   	// #8
  97699c:	52800197 	mov	w23, #0xc                   	// #12
  9769a0:	52800318 	mov	w24, #0x18                  	// #24
  9769a4:	9117c294 	add	x20, x20, #0x5f0
  9769a8:	52800195 	mov	w21, #0xc                   	// #12
  9769ac:	72a64e16 	movk	w22, #0x3270, lsl #16
  9769b0:	72a64e17 	movk	w23, #0x3270, lsl #16
  9769b4:	72a64e18 	movk	w24, #0x3270, lsl #16
  9769b8:	b9400280 	ldr	w0, [x20]
  9769bc:	6b00027f 	cmp	w19, w0
  9769c0:	54000680 	b.eq	976a90 <imx_gpc_pm_domain_enable+0x2e8>  // b.none
  9769c4:	91006294 	add	x20, x20, #0x18
  9769c8:	710006b5 	subs	w21, w21, #0x1
  9769cc:	54ffff61 	b.ne	9769b8 <imx_gpc_pm_domain_enable+0x210>  // b.any
  9769d0:	7100167f 	cmp	w19, #0x5
  9769d4:	54000fe1 	b.ne	976bd0 <imx_gpc_pm_domain_enable+0x428>  // b.any
  9769d8:	a94153f3 	ldp	x19, x20, [sp, #16]
  9769dc:	b0000020 	adrp	x0, 97b000 <__RO_END__>
  9769e0:	a9425bf5 	ldp	x21, x22, [sp, #32]
  9769e4:	91032000 	add	x0, x0, #0xc8
  9769e8:	a94363f7 	ldp	x23, x24, [sp, #48]
  9769ec:	a8c47bfd 	ldp	x29, x30, [sp], #64
  9769f0:	140001fa 	b	9771d8 <imx_aipstz_init>
  9769f4:	7100327f 	cmp	w19, #0xc
  9769f8:	54fff421 	b.ne	97687c <imx_gpc_pm_domain_enable+0xd4>  // b.any
  9769fc:	d2800081 	mov	x1, #0x4                   	// #4
  976a00:	f2a70661 	movk	x1, #0x3833, lsl #16
  976a04:	b9400020 	ldr	w0, [x1]
  976a08:	121d7800 	and	w0, w0, #0xfffffffb
  976a0c:	b9000020 	str	w0, [x1]
  976a10:	17ffff9b 	b	97687c <imx_gpc_pm_domain_enable+0xd4>
  976a14:	35000093 	cbnz	w19, 976a24 <imx_gpc_pm_domain_enable+0x27c>
  976a18:	d2a65e20 	mov	x0, #0x32f10000            	// #854654976
  976a1c:	52800041 	mov	w1, #0x2                   	// #2
  976a20:	17ffffbd 	b	976914 <imx_gpc_pm_domain_enable+0x16c>
  976a24:	7100327f 	cmp	w19, #0xc
  976a28:	54fff781 	b.ne	976918 <imx_gpc_pm_domain_enable+0x170>  // b.any
  976a2c:	d2800081 	mov	x1, #0x4                   	// #4
  976a30:	f2a70661 	movk	x1, #0x3833, lsl #16
  976a34:	b9400020 	ldr	w0, [x1]
  976a38:	321e0000 	orr	w0, w0, #0x4
  976a3c:	b9000020 	str	w0, [x1]
  976a40:	17ffffb6 	b	976918 <imx_gpc_pm_domain_enable+0x170>
  976a44:	7100367f 	cmp	w19, #0xd
  976a48:	54fffa61 	b.ne	976994 <imx_gpc_pm_domain_enable+0x1ec>  // b.any
  976a4c:	d2a65d81 	mov	x1, #0x32ec0000            	// #854327296
  976a50:	12bfc000 	mov	w0, #0x1ffffff             	// #33554431
  976a54:	b9000020 	str	w0, [x1]
  976a58:	b9000420 	str	w0, [x1, #4]
  976a5c:	d2800100 	mov	x0, #0x8                   	// #8
  976a60:	f2a65d80 	movk	x0, #0x32ec, lsl #16
  976a64:	52a80061 	mov	w1, #0x40030000            	// #1073938432
  976a68:	b9000001 	str	w1, [x0]
  976a6c:	d2800981 	mov	x1, #0x4c                  	// #76
  976a70:	f2a65d81 	movk	x1, #0x32ec, lsl #16
  976a74:	b9400020 	ldr	w0, [x1]
  976a78:	32161400 	orr	w0, w0, #0xfc00
  976a7c:	b9000020 	str	w0, [x1]
  976a80:	b9400420 	ldr	w0, [x1, #4]
  976a84:	320c2000 	orr	w0, w0, #0x1ff00000
  976a88:	b9000420 	str	w0, [x1, #4]
  976a8c:	17ffffc2 	b	976994 <imx_gpc_pm_domain_enable+0x1ec>
  976a90:	52800640 	mov	w0, #0x32                  	// #50
  976a94:	97ffeba7 	bl	971930 <udelay>
  976a98:	29408680 	ldp	w0, w1, [x20, #4]
  976a9c:	6b01001f 	cmp	w0, w1
  976aa0:	54fff928 	b.hi	9769c4 <imx_gpc_pm_domain_enable+0x21c>  // b.pmore
  976aa4:	0b160002 	add	w2, w0, w22
  976aa8:	b9400e83 	ldr	w3, [x20, #12]
  976aac:	b9000043 	str	w3, [x2]
  976ab0:	0b170002 	add	w2, w0, w23
  976ab4:	b9401283 	ldr	w3, [x20, #16]
  976ab8:	b9000043 	str	w3, [x2]
  976abc:	0b180002 	add	w2, w0, w24
  976ac0:	11020000 	add	w0, w0, #0x80
  976ac4:	b9401683 	ldr	w3, [x20, #20]
  976ac8:	b9000043 	str	w3, [x2]
  976acc:	17fffff4 	b	976a9c <imx_gpc_pm_domain_enable+0x2f4>
  976ad0:	911c4281 	add	x1, x20, #0x710
  976ad4:	9b0006a0 	madd	x0, x21, x0, x1
  976ad8:	39404400 	ldrb	w0, [x0, #17]
  976adc:	35000700 	cbnz	w0, 976bbc <imx_gpc_pm_domain_enable+0x414>
  976ae0:	97fffbd1 	bl	975a24 <imx_m4_lpa_active>
  976ae4:	72001c1f 	tst	w0, #0xff
  976ae8:	54000060 	b.eq	976af4 <imx_gpc_pm_domain_enable+0x34c>  // b.none
  976aec:	7100167f 	cmp	w19, #0x5
  976af0:	54000660 	b.eq	976bbc <imx_gpc_pm_domain_enable+0x414>  // b.none
  976af4:	911c4281 	add	x1, x20, #0x710
  976af8:	d2800280 	mov	x0, #0x14                  	// #20
  976afc:	9b0006a0 	madd	x0, x21, x0, x1
  976b00:	39404000 	ldrb	w0, [x0, #16]
  976b04:	34000860 	cbz	w0, 976c10 <imx_gpc_pm_domain_enable+0x468>
  976b08:	90000061 	adrp	x1, 982000 <imx_gicv3_ctx+0x1e90>
  976b0c:	52800020 	mov	w0, #0x1                   	// #1
  976b10:	1ad32000 	lsl	w0, w0, w19
  976b14:	b94ae022 	ldr	w2, [x1, #2784]
  976b18:	0a200040 	bic	w0, w2, w0
  976b1c:	b90ae020 	str	w0, [x1, #2784]
  976b20:	7100467f 	cmp	w19, #0x11
  976b24:	540007a0 	b.eq	976c18 <imx_gpc_pm_domain_enable+0x470>  // b.none
  976b28:	911c4282 	add	x2, x20, #0x710
  976b2c:	d2800280 	mov	x0, #0x14                  	// #20
  976b30:	d2803201 	mov	x1, #0x190                 	// #400
  976b34:	f2a60741 	movk	x1, #0x303a, lsl #16
  976b38:	9b000aa0 	madd	x0, x21, x0, x2
  976b3c:	b9400023 	ldr	w3, [x1]
  976b40:	29408002 	ldp	w2, w0, [x0, #4]
  976b44:	0a220062 	bic	w2, w3, w2
  976b48:	b9000022 	str	w2, [x1]
  976b4c:	b9400022 	ldr	w2, [x1]
  976b50:	6a00005f 	tst	w2, w0
  976b54:	54ffffc1 	b.ne	976b4c <imx_gpc_pm_domain_enable+0x3a4>  // b.any
  976b58:	d2800280 	mov	x0, #0x14                  	// #20
  976b5c:	911c4294 	add	x20, x20, #0x710
  976b60:	52a60742 	mov	w2, #0x303a0000            	// #809107456
  976b64:	9b007ea0 	mul	x0, x21, x0
  976b68:	8b000281 	add	x1, x20, x0
  976b6c:	b8606a83 	ldr	w3, [x20, x0]
  976b70:	b9400c21 	ldr	w1, [x1, #12]
  976b74:	0b020021 	add	w1, w1, w2
  976b78:	b9400022 	ldr	w2, [x1]
  976b7c:	32000042 	orr	w2, w2, #0x1
  976b80:	b9000022 	str	w2, [x1]
  976b84:	d2801c81 	mov	x1, #0xe4                  	// #228
  976b88:	f2a60741 	movk	x1, #0x303a, lsl #16
  976b8c:	b9400022 	ldr	w2, [x1]
  976b90:	2a030040 	orr	w0, w2, w3
  976b94:	b9000020 	str	w0, [x1]
  976b98:	b9400020 	ldr	w0, [x1]
  976b9c:	6a03001f 	tst	w0, w3
  976ba0:	54ffffc1 	b.ne	976b98 <imx_gpc_pm_domain_enable+0x3f0>  // b.any
  976ba4:	7100467f 	cmp	w19, #0x11
  976ba8:	54000141 	b.ne	976bd0 <imx_gpc_pm_domain_enable+0x428>  // b.any
  976bac:	d2800800 	mov	x0, #0x40                  	// #64
  976bb0:	f2a65f80 	movk	x0, #0x32fc, lsl #16
  976bb4:	b900001f 	str	wzr, [x0]
  976bb8:	b900101f 	str	wzr, [x0, #16]
  976bbc:	a94153f3 	ldp	x19, x20, [sp, #16]
  976bc0:	a9425bf5 	ldp	x21, x22, [sp, #32]
  976bc4:	a94363f7 	ldp	x23, x24, [sp, #48]
  976bc8:	a8c47bfd 	ldp	x29, x30, [sp], #64
  976bcc:	d65f03c0 	ret
  976bd0:	35ffff73 	cbnz	w19, 976bbc <imx_gpc_pm_domain_enable+0x414>
  976bd4:	b0000021 	adrp	x1, 97b000 <__RO_END__>
  976bd8:	9109f020 	add	x0, x1, #0x27c
  976bdc:	b9427c22 	ldr	w2, [x1, #636]
  976be0:	52a60701 	mov	w1, #0x30380000            	// #808976384
  976be4:	b9400403 	ldr	w3, [x0, #4]
  976be8:	0b010042 	add	w2, w2, w1
  976bec:	b9000043 	str	w3, [x2]
  976bf0:	29418c02 	ldp	w2, w3, [x0, #12]
  976bf4:	0b010042 	add	w2, w2, w1
  976bf8:	b9000043 	str	w3, [x2]
  976bfc:	b9401c02 	ldr	w2, [x0, #28]
  976c00:	b9401800 	ldr	w0, [x0, #24]
  976c04:	0b010000 	add	w0, w0, w1
  976c08:	b9000002 	str	w2, [x0]
  976c0c:	17ffffec 	b	976bbc <imx_gpc_pm_domain_enable+0x414>
  976c10:	7100467f 	cmp	w19, #0x11
  976c14:	54fffa21 	b.ne	976b58 <imx_gpc_pm_domain_enable+0x3b0>  // b.any
  976c18:	d2800801 	mov	x1, #0x40                  	// #64
  976c1c:	52818042 	mov	w2, #0xc02                 	// #3074
  976c20:	f2a65f81 	movk	x1, #0x32fc, lsl #16
  976c24:	b9400020 	ldr	w0, [x1]
  976c28:	2a020000 	orr	w0, w0, w2
  976c2c:	b9000020 	str	w0, [x1]
  976c30:	17ffffbe 	b	976b28 <imx_gpc_pm_domain_enable+0x380>
  976c34:	d65f03c0 	ret

0000000000976c38 <imx_noc_wrapper_pre_suspend>:
  976c38:	a9be7bfd 	stp	x29, x30, [sp, #-32]!
  976c3c:	d2a60741 	mov	x1, #0x303a0000            	// #809107456
  976c40:	910003fd 	mov	x29, sp
  976c44:	f9000bf3 	str	x19, [sp, #16]
  976c48:	2a0003f3 	mov	w19, w0
  976c4c:	b9400020 	ldr	w0, [x1]
  976c50:	12177400 	and	w0, w0, #0xfffffe7f
  976c54:	b9000020 	str	w0, [x1]
  976c58:	b9401820 	ldr	w0, [x1, #24]
  976c5c:	321f0400 	orr	w0, w0, #0x6
  976c60:	b9001820 	str	w0, [x1, #24]
  976c64:	90000060 	adrp	x0, 982000 <imx_gicv3_ctx+0x1e90>
  976c68:	b94ae000 	ldr	w0, [x0, #2784]
  976c6c:	35000060 	cbnz	w0, 976c78 <imx_noc_wrapper_pre_suspend+0x40>
  976c70:	52800020 	mov	w0, #0x1                   	// #1
  976c74:	97fffc91 	bl	975eb8 <imx_noc_slot_config>
  976c78:	2a1303e0 	mov	w0, w19
  976c7c:	f0000001 	adrp	x1, 979000 <vprintf+0x2b4>
  976c80:	f9400bf3 	ldr	x19, [sp, #16]
  976c84:	a8c27bfd 	ldp	x29, x30, [sp], #32
  976c88:	f946e421 	ldr	x1, [x1, #3528]
  976c8c:	17fff616 	b	9744e4 <plat_gic_save>

0000000000976c90 <imx_noc_wrapper_post_resume>:
  976c90:	a9be7bfd 	stp	x29, x30, [sp, #-32]!
  976c94:	d2a60741 	mov	x1, #0x303a0000            	// #809107456
  976c98:	910003fd 	mov	x29, sp
  976c9c:	f9000bf3 	str	x19, [sp, #16]
  976ca0:	2a0003f3 	mov	w19, w0
  976ca4:	b9400020 	ldr	w0, [x1]
  976ca8:	32190400 	orr	w0, w0, #0x180
  976cac:	b9000020 	str	w0, [x1]
  976cb0:	b9401820 	ldr	w0, [x1, #24]
  976cb4:	121d7400 	and	w0, w0, #0xfffffff9
  976cb8:	b9001820 	str	w0, [x1, #24]
  976cbc:	90000060 	adrp	x0, 982000 <imx_gicv3_ctx+0x1e90>
  976cc0:	b94ae000 	ldr	w0, [x0, #2784]
  976cc4:	35000320 	cbnz	w0, 976d28 <imx_noc_wrapper_post_resume+0x98>
  976cc8:	d2800500 	mov	x0, #0x28                  	// #40
  976ccc:	f2a60680 	movk	x0, #0x3034, lsl #16
  976cd0:	b9400000 	ldr	w0, [x0]
  976cd4:	360000e0 	tbz	w0, #0, 976cf0 <imx_noc_wrapper_post_resume+0x60>
  976cd8:	d2a65f00 	mov	x0, #0x32f80000            	// #855113728
  976cdc:	97ffea97 	bl	971738 <tzc380_init>
  976ce0:	320427e2 	mov	w2, #0xf000003f            	// #-268435393
  976ce4:	d2800001 	mov	x1, #0x0                   	// #0
  976ce8:	52800000 	mov	w0, #0x0                   	// #0
  976cec:	97ffea9e 	bl	971764 <tzc380_configure_region>
  976cf0:	52800000 	mov	w0, #0x0                   	// #0
  976cf4:	97fffc71 	bl	975eb8 <imx_noc_slot_config>
  976cf8:	d2800101 	mov	x1, #0x8                   	// #8
  976cfc:	52806060 	mov	w0, #0x303                 	// #771
  976d00:	f2a64e01 	movk	x1, #0x3270, lsl #16
  976d04:	72b00000 	movk	w0, #0x8000, lsl #16
  976d08:	b9000020 	str	w0, [x1]
  976d0c:	b900043f 	str	wzr, [x1, #4]
  976d10:	b9008020 	str	w0, [x1, #128]
  976d14:	b900843f 	str	wzr, [x1, #132]
  976d18:	b9010020 	str	w0, [x1, #256]
  976d1c:	d2802180 	mov	x0, #0x10c                 	// #268
  976d20:	f2a64e00 	movk	x0, #0x3270, lsl #16
  976d24:	b900001f 	str	wzr, [x0]
  976d28:	2a1303e0 	mov	w0, w19
  976d2c:	f0000001 	adrp	x1, 979000 <vprintf+0x2b4>
  976d30:	f9400bf3 	ldr	x19, [sp, #16]
  976d34:	a8c27bfd 	ldp	x29, x30, [sp], #32
  976d38:	f946e421 	ldr	x1, [x1, #3528]
  976d3c:	17fff5fe 	b	974534 <plat_gic_restore>

0000000000976d40 <imx_gpc_init>:
  976d40:	a9be7bfd 	stp	x29, x30, [sp, #-32]!
  976d44:	d2800601 	mov	x1, #0x30                  	// #48
  976d48:	f2a60741 	movk	x1, #0x303a, lsl #16
  976d4c:	910003fd 	mov	x29, sp
  976d50:	f9000bf3 	str	x19, [sp, #16]
  976d54:	12800000 	mov	w0, #0xffffffff            	// #-1
  976d58:	b9000020 	str	w0, [x1]
  976d5c:	9100a021 	add	x1, x1, #0x28
  976d60:	b81ec020 	stur	w0, [x1, #-20]
  976d64:	52a61802 	mov	w2, #0x30c00000            	// #817889280
  976d68:	b9013c20 	str	w0, [x1, #316]
  976d6c:	b9015020 	str	w0, [x1, #336]
  976d70:	b9000020 	str	w0, [x1]
  976d74:	b81dc020 	stur	w0, [x1, #-36]
  976d78:	b81f0020 	stur	w0, [x1, #-16]
  976d7c:	b9014020 	str	w0, [x1, #320]
  976d80:	b9015420 	str	w0, [x1, #340]
  976d84:	91001021 	add	x1, x1, #0x4
  976d88:	b9000020 	str	w0, [x1]
  976d8c:	b81dc020 	stur	w0, [x1, #-36]
  976d90:	b81f0020 	stur	w0, [x1, #-16]
  976d94:	b9014020 	str	w0, [x1, #320]
  976d98:	b9015420 	str	w0, [x1, #340]
  976d9c:	91001021 	add	x1, x1, #0x4
  976da0:	b9000020 	str	w0, [x1]
  976da4:	b81dc020 	stur	w0, [x1, #-36]
  976da8:	b81f0020 	stur	w0, [x1, #-16]
  976dac:	b9014020 	str	w0, [x1, #320]
  976db0:	b9015420 	str	w0, [x1, #340]
  976db4:	91001021 	add	x1, x1, #0x4
  976db8:	b9000020 	str	w0, [x1]
  976dbc:	b81dc020 	stur	w0, [x1, #-36]
  976dc0:	b81f0020 	stur	w0, [x1, #-16]
  976dc4:	b9014020 	str	w0, [x1, #320]
  976dc8:	b9015420 	str	w0, [x1, #340]
  976dcc:	91001021 	add	x1, x1, #0x4
  976dd0:	b9000020 	str	w0, [x1]
  976dd4:	d2a60741 	mov	x1, #0x303a0000            	// #809107456
  976dd8:	b9400020 	ldr	w0, [x1]
  976ddc:	12197800 	and	w0, w0, #0xffffffbf
  976de0:	2a020000 	orr	w0, w0, w2
  976de4:	b9000020 	str	w0, [x1]
  976de8:	529ff8e2 	mov	w2, #0xffc7                	// #65479
  976dec:	b9401820 	ldr	w0, [x1, #24]
  976df0:	72a81fe2 	movk	w2, #0x40ff, lsl #16
  976df4:	121d7400 	and	w0, w0, #0xfffffff9
  976df8:	b9001820 	str	w0, [x1, #24]
  976dfc:	d2803980 	mov	x0, #0x1cc                 	// #460
  976e00:	12bff801 	mov	w1, #0x3fffff              	// #4194303
  976e04:	f2a60740 	movk	x0, #0x303a, lsl #16
  976e08:	b9000001 	str	w1, [x0]
  976e0c:	d2810081 	mov	x1, #0x804                 	// #2052
  976e10:	f2a60741 	movk	x1, #0x303a, lsl #16
  976e14:	52808020 	mov	w0, #0x401                 	// #1025
  976e18:	b9000020 	str	w0, [x1]
  976e1c:	b9004020 	str	w0, [x1, #64]
  976e20:	b9008020 	str	w0, [x1, #128]
  976e24:	b900c020 	str	w0, [x1, #192]
  976e28:	b9010020 	str	w0, [x1, #256]
  976e2c:	d2812200 	mov	x0, #0x910                 	// #2320
  976e30:	f2a60740 	movk	x0, #0x303a, lsl #16
  976e34:	528c8b61 	mov	w1, #0x645b                	// #25691
  976e38:	d123b000 	sub	x0, x0, #0x8ec
  976e3c:	72a00421 	movk	w1, #0x21, lsl #16
  976e40:	b908ec01 	str	w1, [x0, #2284]
  976e44:	52b80001 	mov	w1, #0xc0000000            	// #-1073741824
  976e48:	b9000001 	str	w1, [x0]
  976e4c:	d2800281 	mov	x1, #0x14                  	// #20
  976e50:	f2a60741 	movk	x1, #0x303a, lsl #16
  976e54:	b9400020 	ldr	w0, [x1]
  976e58:	0a020000 	and	w0, w0, w2
  976e5c:	52800502 	mov	w2, #0x28                  	// #40
  976e60:	72a00062 	movk	w2, #0x3, lsl #16
  976e64:	2a020000 	orr	w0, w0, w2
  976e68:	b9000020 	str	w0, [x1]
  976e6c:	d2800401 	mov	x1, #0x20                  	// #32
  976e70:	f2a60721 	movk	x1, #0x3039, lsl #16
  976e74:	52800062 	mov	w2, #0x3                   	// #3
  976e78:	b9400020 	ldr	w0, [x1]
  976e7c:	121f7800 	and	w0, w0, #0xfffffffe
  976e80:	b9000020 	str	w0, [x1]
  976e84:	b9400420 	ldr	w0, [x1, #4]
  976e88:	121f7800 	and	w0, w0, #0xfffffffe
  976e8c:	b9000420 	str	w0, [x1, #4]
  976e90:	d2880000 	mov	x0, #0x4000                	// #16384
  976e94:	d288ca01 	mov	x1, #0x4650                	// #18000
  976e98:	f2a60700 	movk	x0, #0x3038, lsl #16
  976e9c:	f2a60701 	movk	x1, #0x3038, lsl #16
  976ea0:	b8010402 	str	w2, [x0], #16
  976ea4:	eb01001f 	cmp	x0, x1
  976ea8:	54ffffc1 	b.ne	976ea0 <imx_gpc_init+0x160>  // b.any
  976eac:	b0000020 	adrp	x0, 97b000 <__RO_END__>
  976eb0:	910a8013 	add	x19, x0, #0x2a0
  976eb4:	52800021 	mov	w1, #0x1                   	// #1
  976eb8:	b942a000 	ldr	w0, [x0, #672]
  976ebc:	97fffe3b 	bl	9767a8 <imx_gpc_pm_domain_enable>
  976ec0:	b9400660 	ldr	w0, [x19, #4]
  976ec4:	52800021 	mov	w1, #0x1                   	// #1
  976ec8:	97fffe38 	bl	9767a8 <imx_gpc_pm_domain_enable>
  976ecc:	b9400a60 	ldr	w0, [x19, #8]
  976ed0:	52800021 	mov	w1, #0x1                   	// #1
  976ed4:	97fffe35 	bl	9767a8 <imx_gpc_pm_domain_enable>
  976ed8:	d2800101 	mov	x1, #0x8                   	// #8
  976edc:	52806060 	mov	w0, #0x303                 	// #771
  976ee0:	f2a64e01 	movk	x1, #0x3270, lsl #16
  976ee4:	72b00000 	movk	w0, #0x8000, lsl #16
  976ee8:	f9400bf3 	ldr	x19, [sp, #16]
  976eec:	b9000020 	str	w0, [x1]
  976ef0:	b900043f 	str	wzr, [x1, #4]
  976ef4:	b9008020 	str	w0, [x1, #128]
  976ef8:	b900843f 	str	wzr, [x1, #132]
  976efc:	b9010020 	str	w0, [x1, #256]
  976f00:	d2802180 	mov	x0, #0x10c                 	// #268
  976f04:	f2a64e00 	movk	x0, #0x3270, lsl #16
  976f08:	b900001f 	str	wzr, [x0]
  976f0c:	a8c27bfd 	ldp	x29, x30, [sp], #32
  976f10:	d65f03c0 	ret

0000000000976f14 <bl31_early_platform_setup2>:
  976f14:	a9be7bfd 	stp	x29, x30, [sp, #-32]!
  976f18:	d2802001 	mov	x1, #0x100                 	// #256
  976f1c:	d2a607c0 	mov	x0, #0x303e0000            	// #809369600
  976f20:	910003fd 	mov	x29, sp
  976f24:	32009fe2 	mov	w2, #0xff00ff              	// #16711935
  976f28:	f2a607c1 	movk	x1, #0x303e, lsl #16
  976f2c:	f9000bf3 	str	x19, [sp, #16]
  976f30:	b8004402 	str	w2, [x0], #4
  976f34:	eb01001f 	cmp	x0, x1
  976f38:	54ffffc1 	b.ne	976f30 <bl31_early_platform_setup2+0x1c>  // b.any
  976f3c:	f0000000 	adrp	x0, 979000 <vprintf+0x2b4>
  976f40:	9107c000 	add	x0, x0, #0x1f0
  976f44:	940000a5 	bl	9771d8 <imx_aipstz_init>
  976f48:	90000073 	adrp	x19, 982000 <imx_gicv3_ctx+0x1e90>
  976f4c:	f0000000 	adrp	x0, 979000 <vprintf+0x2b4>
  976f50:	9122e000 	add	x0, x0, #0x8b8
  976f54:	940000f5 	bl	977328 <imx_rdc_init>
  976f58:	912a8273 	add	x19, x19, #0xaa0
  976f5c:	f0000000 	adrp	x0, 979000 <vprintf+0x2b4>
  976f60:	91228000 	add	x0, x0, #0x8a0
  976f64:	97fffce5 	bl	9762f8 <imx_csu_init>
  976f68:	d2800580 	mov	x0, #0x2c                  	// #44
  976f6c:	52809c21 	mov	w1, #0x4e1                 	// #1249
  976f70:	f2a60680 	movk	x0, #0x3034, lsl #16
  976f74:	52a7bfe2 	mov	w2, #0x3dff0000            	// #1040121856
  976f78:	aa1303e3 	mov	x3, x19
  976f7c:	b9000001 	str	w1, [x0]
  976f80:	b9400001 	ldr	w1, [x0]
  976f84:	2a020021 	orr	w1, w1, w2
  976f88:	b9000001 	str	w1, [x0]
  976f8c:	52984002 	mov	w2, #0xc200                	// #49664
  976f90:	5286c001 	mov	w1, #0x3600                	// #13824
  976f94:	72a00022 	movk	w2, #0x1, lsl #16
  976f98:	72a02dc1 	movk	w1, #0x16e, lsl #16
  976f9c:	d2a61120 	mov	x0, #0x30890000            	// #814284800
  976fa0:	940006aa 	bl	978a48 <console_imx_uart_register>
  976fa4:	aa1303e0 	mov	x0, x19
  976fa8:	52800021 	mov	w1, #0x1                   	// #1
  976fac:	97ffea15 	bl	971800 <console_set_scope>
  976fb0:	97fffca9 	bl	976254 <imx8m_caam_init>
  976fb4:	90000060 	adrp	x0, 982000 <imx_gicv3_ctx+0x1e90>
  976fb8:	91292000 	add	x0, x0, #0xa48
  976fbc:	d2a80401 	mov	x1, #0x40200000            	// #1075838976
  976fc0:	52807822 	mov	w2, #0x3c1                 	// #961
  976fc4:	d2802023 	mov	x3, #0x101                 	// #257
  976fc8:	f9000401 	str	x1, [x0, #8]
  976fcc:	f2a00b03 	movk	x3, #0x58, lsl #16
  976fd0:	d5380401 	mrs	x1, id_aa64pfr0_el1
  976fd4:	f2780c3f 	tst	x1, #0xf00
  976fd8:	9a9f07e1 	cset	x1, ne  // ne = any
  976fdc:	91000421 	add	x1, x1, #0x1
  976fe0:	2a010841 	orr	w1, w2, w1, lsl #2
  976fe4:	b9001001 	str	w1, [x0, #16]
  976fe8:	b9400401 	ldr	w1, [x0, #4]
  976fec:	12800422 	mov	w2, #0xffffffde            	// #-34
  976ff0:	0a020021 	and	w1, w1, w2
  976ff4:	90000062 	adrp	x2, 982000 <imx_gicv3_ctx+0x1e90>
  976ff8:	32000021 	orr	w1, w1, #0x1
  976ffc:	b9000401 	str	w1, [x0, #4]
  977000:	9127c041 	add	x1, x2, #0x9f0
  977004:	f904f843 	str	x3, [x2, #2544]
  977008:	d2aac002 	mov	x2, #0x56000000            	// #1442840576
  97700c:	f9001002 	str	x2, [x0, #32]
  977010:	f9000422 	str	x2, [x1, #8]
  977014:	d2a04002 	mov	x2, #0x2000000             	// #33554432
  977018:	f9001402 	str	x2, [x0, #40]
  97701c:	d2a86402 	mov	x2, #0x43200000            	// #1126170624
  977020:	b900103f 	str	wzr, [x1, #16]
  977024:	b900005f 	str	wzr, [x2]
  977028:	f9001802 	str	x2, [x0, #48]
  97702c:	d2800500 	mov	x0, #0x28                  	// #40
  977030:	f2a60680 	movk	x0, #0x3034, lsl #16
  977034:	b9400000 	ldr	w0, [x0]
  977038:	f9001822 	str	x2, [x1, #48]
  97703c:	36000120 	tbz	w0, #0, 977060 <bl31_early_platform_setup2+0x14c>
  977040:	d2a65f00 	mov	x0, #0x32f80000            	// #855113728
  977044:	97ffe9bd 	bl	971738 <tzc380_init>
  977048:	f9400bf3 	ldr	x19, [sp, #16]
  97704c:	320427e2 	mov	w2, #0xf000003f            	// #-268435393
  977050:	a8c27bfd 	ldp	x29, x30, [sp], #32
  977054:	d2800001 	mov	x1, #0x0                   	// #0
  977058:	52800000 	mov	w0, #0x0                   	// #0
  97705c:	17ffe9c2 	b	971764 <tzc380_configure_region>
  977060:	f9400bf3 	ldr	x19, [sp, #16]
  977064:	a8c27bfd 	ldp	x29, x30, [sp], #32
  977068:	d65f03c0 	ret

000000000097706c <bl31_plat_arch_setup>:
  97706c:	a9b27bfd 	stp	x29, x30, [sp, #-224]!
  977070:	d2801602 	mov	x2, #0xb0                  	// #176
  977074:	52800001 	mov	w1, #0x0                   	// #0
  977078:	910003fd 	mov	x29, sp
  97707c:	9100c3e0 	add	x0, sp, #0x30
  977080:	940006da 	bl	978be8 <memset>
  977084:	d0000000 	adrp	x0, 979000 <vprintf+0x2b4>
  977088:	52800144 	mov	w4, #0xa                   	// #10
  97708c:	b90033e4 	str	w4, [sp, #48]
  977090:	f946ec03 	ldr	x3, [x0, #3544]
  977094:	a9040fe3 	stp	x3, x3, [sp, #64]
  977098:	f946e802 	ldr	x2, [x0, #3536]
  97709c:	b900abe4 	str	w4, [sp, #168]
  9770a0:	f946b801 	ldr	x1, [x0, #3440]
  9770a4:	cb030042 	sub	x2, x2, x3
  9770a8:	f9002be2 	str	x2, [sp, #80]
  9770ac:	52800042 	mov	w2, #0x2                   	// #2
  9770b0:	b9005be2 	str	w2, [sp, #88]
  9770b4:	f946c802 	ldr	x2, [x0, #3472]
  9770b8:	a90187e1 	stp	x1, x1, [sp, #24]
  9770bc:	d2a00041 	mov	x1, #0x20000               	// #131072
  9770c0:	f9468000 	ldr	x0, [x0, #3328]
  9770c4:	f90017e1 	str	x1, [sp, #40]
  9770c8:	d2a80001 	mov	x1, #0x40000000            	// #1073741824
  9770cc:	f9001fe1 	str	x1, [sp, #56]
  9770d0:	cb020000 	sub	x0, x0, x2
  9770d4:	a90703e2 	stp	x2, x0, [sp, #112]
  9770d8:	52800100 	mov	w0, #0x8                   	// #8
  9770dc:	a9060be1 	stp	x1, x2, [sp, #96]
  9770e0:	b90083e0 	str	w0, [sp, #128]
  9770e4:	d2aac000 	mov	x0, #0x56000000            	// #1442840576
  9770e8:	f90047e1 	str	x1, [sp, #136]
  9770ec:	f9005be1 	str	x1, [sp, #176]
  9770f0:	d0000001 	adrp	x1, 979000 <vprintf+0x2b4>
  9770f4:	910ae021 	add	x1, x1, #0x2b8
  9770f8:	a90903e0 	stp	x0, x0, [sp, #144]
  9770fc:	d2a04000 	mov	x0, #0x2000000             	// #33554432
  977100:	f90053e0 	str	x0, [sp, #160]
  977104:	910063e0 	add	x0, sp, #0x18
  977108:	97fff3fe 	bl	974100 <setup_page_tables>
  97710c:	52800000 	mov	w0, #0x0                   	// #0
  977110:	97fff231 	bl	9739d4 <enable_mmu_el3>
  977114:	a8ce7bfd 	ldp	x29, x30, [sp], #224
  977118:	d65f03c0 	ret

000000000097711c <bl31_platform_setup>:
  97711c:	a9bf7bfd 	stp	x29, x30, [sp, #-16]!
  977120:	910003fd 	mov	x29, sp
  977124:	97ffea2b 	bl	9719d0 <generic_delay_timer_init>
  977128:	d2802480 	mov	x0, #0x124                 	// #292
  97712c:	52800021 	mov	w1, #0x1                   	// #1
  977130:	f2a606c0 	movk	x0, #0x3036, lsl #16
  977134:	b9000001 	str	w1, [x0]
  977138:	d2a00300 	mov	x0, #0x180000              	// #1572864
  97713c:	97fff6e8 	bl	974cdc <dram_info_init>
  977140:	97fff4c7 	bl	97445c <plat_gic_driver_init>
  977144:	97fff4c9 	bl	974468 <plat_gic_init>
  977148:	97fffefe 	bl	976d40 <imx_gpc_init>
  97714c:	d2800180 	mov	x0, #0xc                   	// #12
  977150:	f2a60720 	movk	x0, #0x3039, lsl #16
  977154:	b9400001 	ldr	w1, [x0]
  977158:	321d0021 	orr	w1, w1, #0x8
  97715c:	b9000001 	str	w1, [x0]
  977160:	b9400001 	ldr	w1, [x0]
  977164:	121f7821 	and	w1, w1, #0xfffffffe
  977168:	b9000001 	str	w1, [x0]
  97716c:	a8c17bfd 	ldp	x29, x30, [sp], #16
  977170:	d65f03c0 	ret

0000000000977174 <bl31_plat_get_next_image_ep_info>:
  977174:	7100041f 	cmp	w0, #0x1
  977178:	540000c0 	b.eq	977190 <bl31_plat_get_next_image_ep_info+0x1c>  // b.none
  97717c:	7100001f 	cmp	w0, #0x0
  977180:	f0000041 	adrp	x1, 982000 <imx_gicv3_ctx+0x1e90>
  977184:	9127c020 	add	x0, x1, #0x9f0
  977188:	9a9f0000 	csel	x0, x0, xzr, eq  // eq = none
  97718c:	d65f03c0 	ret
  977190:	f0000040 	adrp	x0, 982000 <imx_gicv3_ctx+0x1e90>
  977194:	91292000 	add	x0, x0, #0xa48
  977198:	17fffffd 	b	97718c <bl31_plat_get_next_image_ep_info+0x18>

000000000097719c <plat_get_syscnt_freq2>:
  97719c:	52824000 	mov	w0, #0x1200                	// #4608
  9771a0:	72a00f40 	movk	w0, #0x7a, lsl #16
  9771a4:	d65f03c0 	ret

00000000009771a8 <plat_setup_psci_ops>:
  9771a8:	a9be7bfd 	stp	x29, x30, [sp, #-32]!
  9771ac:	910003fd 	mov	x29, sp
  9771b0:	f9000bf3 	str	x19, [sp, #16]
  9771b4:	aa0103f3 	mov	x19, x1
  9771b8:	9400061a 	bl	978a20 <imx_mailbox_init>
  9771bc:	90000020 	adrp	x0, 97b000 <__RO_END__>
  9771c0:	91046000 	add	x0, x0, #0x118
  9771c4:	f9000260 	str	x0, [x19]
  9771c8:	52800000 	mov	w0, #0x0                   	// #0
  9771cc:	f9400bf3 	ldr	x19, [sp, #16]
  9771d0:	a8c27bfd 	ldp	x29, x30, [sp], #32
  9771d4:	d65f03c0 	ret

00000000009771d8 <imx_aipstz_init>:
  9771d8:	928005e3 	mov	x3, #0xffffffffffffffd0    	// #-48
  9771dc:	f9400001 	ldr	x1, [x0]
  9771e0:	b5000041 	cbnz	x1, 9771e8 <imx_aipstz_init+0x10>
  9771e4:	d65f03c0 	ret
  9771e8:	b9400802 	ldr	w2, [x0, #8]
  9771ec:	91015024 	add	x4, x1, #0x54
  9771f0:	b9000022 	str	w2, [x1]
  9771f4:	b9400c02 	ldr	w2, [x0, #12]
  9771f8:	b9000422 	str	w2, [x1, #4]
  9771fc:	91010022 	add	x2, x1, #0x40
  977200:	cb010061 	sub	x1, x3, x1
  977204:	8b010001 	add	x1, x0, x1
  977208:	b8626825 	ldr	w5, [x1, x2]
  97720c:	b8004445 	str	w5, [x2], #4
  977210:	eb04005f 	cmp	x2, x4
  977214:	54ffffa1 	b.ne	977208 <imx_aipstz_init+0x30>  // b.any
  977218:	9100a000 	add	x0, x0, #0x28
  97721c:	17fffff0 	b	9771dc <imx_aipstz_init+0x4>

0000000000977220 <imx_hab_handler>:
  977220:	aa0103e6 	mov	x6, x1
  977224:	f100203f 	cmp	x1, #0x8
  977228:	540007c8 	b.hi	977320 <imx_hab_handler+0x100>  // b.pmore
  97722c:	7100203f 	cmp	w1, #0x8
  977230:	54000788 	b.hi	977320 <imx_hab_handler+0x100>  // b.pmore
  977234:	a9bf7bfd 	stp	x29, x30, [sp, #-16]!
  977238:	aa0203e0 	mov	x0, x2
  97723c:	aa0303e1 	mov	x1, x3
  977240:	910003fd 	mov	x29, sp
  977244:	d0000002 	adrp	x2, 979000 <vprintf+0x2b4>
  977248:	aa0403e3 	mov	x3, x4
  97724c:	91247042 	add	x2, x2, #0x91c
  977250:	90000025 	adrp	x5, 97b000 <__RO_END__>
  977254:	38664842 	ldrb	w2, [x2, w6, uxtw]
  977258:	10000066 	adr	x6, 977264 <imx_hab_handler+0x44>
  97725c:	8b2288c2 	add	x2, x6, w2, sxtb #2
  977260:	d61f0040 	br	x2
  977264:	f940e4a0 	ldr	x0, [x5, #456]
  977268:	f9400400 	ldr	x0, [x0, #8]
  97726c:	aa0003f0 	mov	x16, x0
  977270:	a8c17bfd 	ldp	x29, x30, [sp], #16
  977274:	d61f0200 	br	x16
  977278:	f940e4a0 	ldr	x0, [x5, #456]
  97727c:	f9400800 	ldr	x0, [x0, #16]
  977280:	17fffffb 	b	97726c <imx_hab_handler+0x4c>
  977284:	f940e4a2 	ldr	x2, [x5, #456]
  977288:	a8c17bfd 	ldp	x29, x30, [sp], #16
  97728c:	f9400c44 	ldr	x4, [x2, #24]
  977290:	aa0303e2 	mov	x2, x3
  977294:	aa0403f0 	mov	x16, x4
  977298:	d61f0200 	br	x16
  97729c:	f940e4a2 	ldr	x2, [x5, #456]
  9772a0:	f9401045 	ldr	x5, [x2, #32]
  9772a4:	aa0103e2 	mov	x2, x1
  9772a8:	d2800004 	mov	x4, #0x0                   	// #0
  9772ac:	aa0003e1 	mov	x1, x0
  9772b0:	52800040 	mov	w0, #0x2                   	// #2
  9772b4:	d63f00a0 	blr	x5
  9772b8:	14000012 	b	977300 <imx_hab_handler+0xe0>
  9772bc:	f940e4a2 	ldr	x2, [x5, #456]
  9772c0:	a8c17bfd 	ldp	x29, x30, [sp], #16
  9772c4:	f9402044 	ldr	x4, [x2, #64]
  9772c8:	aa0103e2 	mov	x2, x1
  9772cc:	2a0003e1 	mov	w1, w0
  9772d0:	52800660 	mov	w0, #0x33                  	// #51
  9772d4:	aa0403f0 	mov	x16, x4
  9772d8:	d61f0200 	br	x16
  9772dc:	f940e4a2 	ldr	x2, [x5, #456]
  9772e0:	a8c17bfd 	ldp	x29, x30, [sp], #16
  9772e4:	f9402442 	ldr	x2, [x2, #72]
  9772e8:	aa0203f0 	mov	x16, x2
  9772ec:	d61f0200 	br	x16
  9772f0:	f940e4a0 	ldr	x0, [x5, #456]
  9772f4:	f9402800 	ldr	x0, [x0, #80]
  9772f8:	d63f0000 	blr	x0
  9772fc:	52800000 	mov	w0, #0x0                   	// #0
  977300:	a8c17bfd 	ldp	x29, x30, [sp], #16
  977304:	d65f03c0 	ret
  977308:	f940e4a2 	ldr	x2, [x5, #456]
  97730c:	f9402c45 	ldr	x5, [x2, #88]
  977310:	17ffffe5 	b	9772a4 <imx_hab_handler+0x84>
  977314:	f940e4a0 	ldr	x0, [x5, #456]
  977318:	f9403000 	ldr	x0, [x0, #96]
  97731c:	17ffffd4 	b	97726c <imx_hab_handler+0x4c>
  977320:	12800000 	mov	w0, #0xffffffff            	// #-1
  977324:	d65f03c0 	ret

0000000000977328 <imx_rdc_init>:
  977328:	52808002 	mov	w2, #0x400                 	// #1024
  97732c:	52810003 	mov	w3, #0x800                 	// #2048
  977330:	52810084 	mov	w4, #0x804                 	// #2052
  977334:	52810105 	mov	w5, #0x808                 	// #2056
  977338:	52804006 	mov	w6, #0x200                 	// #512
  97733c:	72a607a2 	movk	w2, #0x303d, lsl #16
  977340:	72a607a3 	movk	w3, #0x303d, lsl #16
  977344:	72a607a4 	movk	w4, #0x303d, lsl #16
  977348:	72a607a5 	movk	w5, #0x303d, lsl #16
  97734c:	72a607a6 	movk	w6, #0x303d, lsl #16
  977350:	b9400001 	ldr	w1, [x0]
  977354:	35000041 	cbnz	w1, 97735c <imx_rdc_init+0x34>
  977358:	d65f03c0 	ret
  97735c:	7100083f 	cmp	w1, #0x2
  977360:	54000140 	b.eq	977388 <imx_rdc_init+0x60>  // b.none
  977364:	71000c3f 	cmp	w1, #0x3
  977368:	54000160 	b.eq	977394 <imx_rdc_init+0x6c>  // b.none
  97736c:	7100043f 	cmp	w1, #0x1
  977370:	54000081 	b.ne	977380 <imx_rdc_init+0x58>  // b.any
  977374:	29409c01 	ldp	w1, w7, [x0, #4]
  977378:	0b0108c1 	add	w1, w6, w1, lsl #2
  97737c:	b9000027 	str	w7, [x1]
  977380:	91005000 	add	x0, x0, #0x14
  977384:	17fffff3 	b	977350 <imx_rdc_init+0x28>
  977388:	29409c01 	ldp	w1, w7, [x0, #4]
  97738c:	0b010841 	add	w1, w2, w1, lsl #2
  977390:	17fffffb 	b	97737c <imx_rdc_init+0x54>
  977394:	29409c01 	ldp	w1, w7, [x0, #4]
  977398:	0b011061 	add	w1, w3, w1, lsl #4
  97739c:	b9000027 	str	w7, [x1]
  9773a0:	b9400401 	ldr	w1, [x0, #4]
  9773a4:	b9400c07 	ldr	w7, [x0, #12]
  9773a8:	0b011081 	add	w1, w4, w1, lsl #4
  9773ac:	b9000027 	str	w7, [x1]
  9773b0:	b9400401 	ldr	w1, [x0, #4]
  9773b4:	b9401007 	ldr	w7, [x0, #16]
  9773b8:	0b0110a1 	add	w1, w5, w1, lsl #4
  9773bc:	17fffff0 	b	97737c <imx_rdc_init+0x54>

00000000009773c0 <arm_arch_svc_smc_handler>:
  9773c0:	a9be7bfd 	stp	x29, x30, [sp, #-32]!
  9773c4:	2a0003e2 	mov	w2, w0
  9773c8:	aa0103e0 	mov	x0, x1
  9773cc:	910003fd 	mov	x29, sp
  9773d0:	f9000bf3 	str	x19, [sp, #16]
  9773d4:	32013be1 	mov	w1, #0x80003fff            	// #-2147467265
  9773d8:	aa0603f3 	mov	x19, x6
  9773dc:	6b01005f 	cmp	w2, w1
  9773e0:	54000240 	b.eq	977428 <arm_arch_svc_smc_handler+0x68>  // b.none
  9773e4:	54000188 	b.hi	977414 <arm_arch_svc_smc_handler+0x54>  // b.pmore
  9773e8:	320107e1 	mov	w1, #0x80000001            	// #-2147483647
  9773ec:	6b01005f 	cmp	w2, w1
  9773f0:	540002c0 	b.eq	977448 <arm_arch_svc_smc_handler+0x88>  // b.none
  9773f4:	11000421 	add	w1, w1, #0x1
  9773f8:	6b01005f 	cmp	w2, w1
  9773fc:	540006e0 	b.eq	9774d8 <arm_arch_svc_smc_handler+0x118>  // b.none
  977400:	52b00000 	mov	w0, #0x80000000            	// #-2147483648
  977404:	6b00005f 	cmp	w2, w0
  977408:	54000180 	b.eq	977438 <arm_arch_svc_smc_handler+0x78>  // b.none
  97740c:	92800000 	mov	x0, #0xffffffffffffffff    	// #-1
  977410:	1400000c 	b	977440 <arm_arch_svc_smc_handler+0x80>
  977414:	52900020 	mov	w0, #0x8001                	// #32769
  977418:	72afffe0 	movk	w0, #0x7fff, lsl #16
  97741c:	0b000042 	add	w2, w2, w0
  977420:	7100045f 	cmp	w2, #0x1
  977424:	54ffff48 	b.hi	97740c <arm_arch_svc_smc_handler+0x4c>  // b.pmore
  977428:	aa1303e0 	mov	x0, x19
  97742c:	f9400bf3 	ldr	x19, [sp, #16]
  977430:	a8c27bfd 	ldp	x29, x30, [sp], #32
  977434:	d65f03c0 	ret
  977438:	d2800080 	mov	x0, #0x4                   	// #4
  97743c:	f2a00020 	movk	x0, #0x1, lsl #16
  977440:	f9000260 	str	x0, [x19]
  977444:	17fffff9 	b	977428 <arm_arch_svc_smc_handler+0x68>
  977448:	32013be1 	mov	w1, #0x80003fff            	// #-2147467265
  97744c:	eb01001f 	cmp	x0, x1
  977450:	54000380 	b.eq	9774c0 <arm_arch_svc_smc_handler+0x100>  // b.none
  977454:	540001e8 	b.hi	977490 <arm_arch_svc_smc_handler+0xd0>  // b.pmore
  977458:	320107e1 	mov	w1, #0x80000001            	// #-2147483647
  97745c:	eb01001f 	cmp	x0, x1
  977460:	540000c8 	b.hi	977478 <arm_arch_svc_smc_handler+0xb8>  // b.pmore
  977464:	b2407be1 	mov	x1, #0x7fffffff            	// #2147483647
  977468:	eb01001f 	cmp	x0, x1
  97746c:	5a9f83e0 	csetm	w0, ls  // ls = plast
  977470:	93407c00 	sxtw	x0, w0
  977474:	17fffff3 	b	977440 <arm_arch_svc_smc_handler+0x80>
  977478:	d2800041 	mov	x1, #0x2                   	// #2
  97747c:	f2b00001 	movk	x1, #0x8000, lsl #16
  977480:	eb01001f 	cmp	x0, x1
  977484:	540001a0 	b.eq	9774b8 <arm_arch_svc_smc_handler+0xf8>  // b.none
  977488:	12800000 	mov	w0, #0xffffffff            	// #-1
  97748c:	17fffff9 	b	977470 <arm_arch_svc_smc_handler+0xb0>
  977490:	32013fe1 	mov	w1, #0x80007fff            	// #-2147450881
  977494:	eb01001f 	cmp	x0, x1
  977498:	540001c0 	b.eq	9774d0 <arm_arch_svc_smc_handler+0x110>  // b.none
  97749c:	320183e1 	mov	w1, #0x80008000            	// #-2147450880
  9774a0:	eb01001f 	cmp	x0, x1
  9774a4:	54ffff21 	b.ne	977488 <arm_arch_svc_smc_handler+0xc8>  // b.any
  9774a8:	94000428 	bl	978548 <check_wa_cve_2017_5715>
  9774ac:	7100001f 	cmp	w0, #0x0
  9774b0:	1a9f17e0 	cset	w0, eq  // eq = none
  9774b4:	17ffffef 	b	977470 <arm_arch_svc_smc_handler+0xb0>
  9774b8:	97fff310 	bl	9740f8 <plat_is_smccc_feature_available>
  9774bc:	17ffffed 	b	977470 <arm_arch_svc_smc_handler+0xb0>
  9774c0:	9400042a 	bl	978568 <check_smccc_arch_wa3_applies>
  9774c4:	34ffff20 	cbz	w0, 9774a8 <arm_arch_svc_smc_handler+0xe8>
  9774c8:	52800000 	mov	w0, #0x0                   	// #0
  9774cc:	17ffffe9 	b	977470 <arm_arch_svc_smc_handler+0xb0>
  9774d0:	12800020 	mov	w0, #0xfffffffe            	// #-2
  9774d4:	17ffffe7 	b	977470 <arm_arch_svc_smc_handler+0xb0>
  9774d8:	f100041f 	cmp	x0, #0x1
  9774dc:	54000061 	b.ne	9774e8 <arm_arch_svc_smc_handler+0x128>  // b.any
  9774e0:	97fff304 	bl	9740f0 <plat_get_soc_revision>
  9774e4:	17ffffe3 	b	977470 <arm_arch_svc_smc_handler+0xb0>
  9774e8:	b5000060 	cbnz	x0, 9774f4 <arm_arch_svc_smc_handler+0x134>
  9774ec:	97fff2ff 	bl	9740e8 <plat_get_soc_version>
  9774f0:	17ffffe0 	b	977470 <arm_arch_svc_smc_handler+0xb0>
  9774f4:	12800040 	mov	w0, #0xfffffffd            	// #-3
  9774f8:	17ffffde 	b	977470 <arm_arch_svc_smc_handler+0xb0>

00000000009774fc <opteed_init_optee_ep_state>:
  9774fc:	a9bc7bfd 	stp	x29, x30, [sp, #-64]!
  977500:	910003fd 	mov	x29, sp
  977504:	a90153f3 	stp	x19, x20, [sp, #16]
  977508:	aa0003f3 	mov	x19, x0
  97750c:	aa0503f4 	mov	x20, x5
  977510:	aa0603e0 	mov	x0, x6
  977514:	a9025bf5 	stp	x21, x22, [sp, #32]
  977518:	aa0303f6 	mov	x22, x3
  97751c:	aa0403f5 	mov	x21, x4
  977520:	a90363f7 	stp	x23, x24, [sp, #48]
  977524:	2a0103f7 	mov	w23, w1
  977528:	aa0203f8 	mov	x24, x2
  97752c:	d53800a1 	mrs	x1, mpidr_el1
  977530:	f90004c1 	str	x1, [x6, #8]
  977534:	52800021 	mov	w1, #0x1                   	// #1
  977538:	b8020401 	str	w1, [x0], #32
  97753c:	52800001 	mov	w1, #0x0                   	// #0
  977540:	97ffe31f 	bl	9701bc <cm_set_context>
  977544:	d53e1000 	mrs	x0, sctlr_el3
  977548:	528000c1 	mov	w1, #0x6                   	// #6
  97754c:	f267001f 	tst	x0, #0x2000000
  977550:	52800080 	mov	w0, #0x4                   	// #4
  977554:	1a810000 	csel	w0, w0, w1, eq  // eq = none
  977558:	52802021 	mov	w1, #0x101                 	// #257
  97755c:	710002ff 	cmp	w23, #0x0
  977560:	72a00b01 	movk	w1, #0x58, lsl #16
  977564:	29000261 	stp	w1, w0, [x19]
  977568:	52803a61 	mov	w1, #0x1d3                 	// #467
  97756c:	528078a0 	mov	w0, #0x3c5                 	// #965
  977570:	1a810000 	csel	w0, w0, w1, eq  // eq = none
  977574:	f9000678 	str	x24, [x19, #8]
  977578:	b9001260 	str	w0, [x19, #16]
  97757c:	d2800801 	mov	x1, #0x40                  	// #64
  977580:	91006260 	add	x0, x19, #0x18
  977584:	94000300 	bl	978184 <zeromem>
  977588:	a94363f7 	ldp	x23, x24, [sp, #48]
  97758c:	a901d676 	stp	x22, x21, [x19, #24]
  977590:	f9001674 	str	x20, [x19, #40]
  977594:	a94153f3 	ldp	x19, x20, [sp, #16]
  977598:	a9425bf5 	ldp	x21, x22, [sp, #32]
  97759c:	a8c47bfd 	ldp	x29, x30, [sp], #64
  9775a0:	d65f03c0 	ret

00000000009775a4 <opteed_synchronous_sp_entry>:
  9775a4:	a9be7bfd 	stp	x29, x30, [sp, #-32]!
  9775a8:	910003fd 	mov	x29, sp
  9775ac:	f9000bf3 	str	x19, [sp, #16]
  9775b0:	aa0003f3 	mov	x19, x0
  9775b4:	52800000 	mov	w0, #0x0                   	// #0
  9775b8:	97ffe9d0 	bl	971cf8 <cm_el1_sysregs_context_restore>
  9775bc:	52800000 	mov	w0, #0x0                   	// #0
  9775c0:	97ffea03 	bl	971dcc <cm_set_next_eret_context>
  9775c4:	91004260 	add	x0, x19, #0x10
  9775c8:	f9400bf3 	ldr	x19, [sp, #16]
  9775cc:	a8c27bfd 	ldp	x29, x30, [sp], #32
  9775d0:	14000551 	b	978b14 <opteed_enter_sp>

00000000009775d4 <opteed_synchronous_sp_exit>:
  9775d4:	a9be7bfd 	stp	x29, x30, [sp, #-32]!
  9775d8:	910003fd 	mov	x29, sp
  9775dc:	a90153f3 	stp	x19, x20, [sp, #16]
  9775e0:	aa0003f3 	mov	x19, x0
  9775e4:	aa0103f4 	mov	x20, x1
  9775e8:	52800000 	mov	w0, #0x0                   	// #0
  9775ec:	97ffe9a7 	bl	971c88 <cm_el1_sysregs_context_save>
  9775f0:	f9400a60 	ldr	x0, [x19, #16]
  9775f4:	aa1403e1 	mov	x1, x20
  9775f8:	94000551 	bl	978b3c <opteed_exit_sp>

00000000009775fc <opteed_sel1_interrupt_handler>:
  9775fc:	a9be7bfd 	stp	x29, x30, [sp, #-32]!
  977600:	52800020 	mov	w0, #0x1                   	// #1
  977604:	910003fd 	mov	x29, sp
  977608:	f9000bf3 	str	x19, [sp, #16]
  97760c:	97ffe99f 	bl	971c88 <cm_el1_sysregs_context_save>
  977610:	940004ee 	bl	9789c8 <plat_my_core_pos>
  977614:	2a0003f3 	mov	w19, w0
  977618:	f0000040 	adrp	x0, 982000 <imx_gicv3_ctx+0x1e90>
  97761c:	f9456401 	ldr	x1, [x0, #2760]
  977620:	52800000 	mov	w0, #0x0                   	// #0
  977624:	91006021 	add	x1, x1, #0x18
  977628:	97ffe9d0 	bl	971d68 <cm_set_elr_el3>
  97762c:	52800000 	mov	w0, #0x0                   	// #0
  977630:	97ffe9b2 	bl	971cf8 <cm_el1_sysregs_context_restore>
  977634:	52800000 	mov	w0, #0x0                   	// #0
  977638:	97ffe9e5 	bl	971dcc <cm_set_next_eret_context>
  97763c:	d53e4023 	mrs	x3, elr_el3
  977640:	90000040 	adrp	x0, 97f000 <psci_ns_context+0x600>
  977644:	2a1303e1 	mov	w1, w19
  977648:	910c0000 	add	x0, x0, #0x300
  97764c:	d2804c02 	mov	x2, #0x260                 	// #608
  977650:	9b020021 	madd	x1, x1, x2, x0
  977654:	f9001023 	str	x3, [x1, #32]
  977658:	d2800401 	mov	x1, #0x20                  	// #32
  97765c:	9ba20673 	umaddl	x19, w19, w2, x1
  977660:	8b130000 	add	x0, x0, x19
  977664:	f9400bf3 	ldr	x19, [sp, #16]
  977668:	a8c27bfd 	ldp	x29, x30, [sp], #32
  97766c:	d65f03c0 	ret

0000000000977670 <opteed_smc_handler>:
  977670:	a9ba7bfd 	stp	x29, x30, [sp, #-96]!
  977674:	910003fd 	mov	x29, sp
  977678:	a90153f3 	stp	x19, x20, [sp, #16]
  97767c:	aa0603f3 	mov	x19, x6
  977680:	a9025bf5 	stp	x21, x22, [sp, #32]
  977684:	aa0103f5 	mov	x21, x1
  977688:	aa0203f6 	mov	x22, x2
  97768c:	a90363f7 	stp	x23, x24, [sp, #48]
  977690:	2a0003f8 	mov	w24, w0
  977694:	aa0303f7 	mov	x23, x3
  977698:	a9046bf9 	stp	x25, x26, [sp, #64]
  97769c:	aa0403f9 	mov	x25, x4
  9776a0:	52804c1a 	mov	w26, #0x260                 	// #608
  9776a4:	f9002bfb 	str	x27, [sp, #80]
  9776a8:	aa0703fb 	mov	x27, x7
  9776ac:	940004c7 	bl	9789c8 <plat_my_core_pos>
  9776b0:	2a0003f4 	mov	w20, w0
  9776b4:	9bba7e9a 	umull	x26, w20, w26
  9776b8:	3600067b 	tbz	w27, #0, 977784 <opteed_smc_handler+0x114>
  9776bc:	f000005b 	adrp	x27, 982000 <imx_gicv3_ctx+0x1e90>
  9776c0:	52800020 	mov	w0, #0x1                   	// #1
  9776c4:	97ffe971 	bl	971c88 <cm_el1_sysregs_context_save>
  9776c8:	f9456760 	ldr	x0, [x27, #2760]
  9776cc:	b5000160 	cbnz	x0, 9776f8 <opteed_smc_handler+0x88>
  9776d0:	928002a0 	mov	x0, #0xffffffffffffffea    	// #-22
  9776d4:	f9000260 	str	x0, [x19]
  9776d8:	aa1303e0 	mov	x0, x19
  9776dc:	a94153f3 	ldp	x19, x20, [sp, #16]
  9776e0:	a9425bf5 	ldp	x21, x22, [sp, #32]
  9776e4:	a94363f7 	ldp	x23, x24, [sp, #48]
  9776e8:	a9446bf9 	ldp	x25, x26, [sp, #64]
  9776ec:	f9402bfb 	ldr	x27, [sp, #80]
  9776f0:	a8c67bfd 	ldp	x29, x30, [sp], #96
  9776f4:	d65f03c0 	ret
  9776f8:	d2804c00 	mov	x0, #0x260                 	// #608
  9776fc:	90000059 	adrp	x25, 97f000 <psci_ns_context+0x600>
  977700:	910c0321 	add	x1, x25, #0x300
  977704:	9b007e80 	mul	x0, x20, x0
  977708:	b8606820 	ldr	w0, [x1, x0]
  97770c:	f240041f 	tst	x0, #0x3
  977710:	54000061 	b.ne	97771c <opteed_smc_handler+0xac>  // b.any
  977714:	d2800000 	mov	x0, #0x0                   	// #0
  977718:	94000088 	bl	977938 <opteed_cpu_on_finish_handler>
  97771c:	f9456761 	ldr	x1, [x27, #2760]
  977720:	36f80058 	tbz	w24, #31, 977728 <opteed_smc_handler+0xb8>
  977724:	91001021 	add	x1, x1, #0x4
  977728:	52800000 	mov	w0, #0x0                   	// #0
  97772c:	97ffe98f 	bl	971d68 <cm_set_elr_el3>
  977730:	52800000 	mov	w0, #0x0                   	// #0
  977734:	97ffe971 	bl	971cf8 <cm_el1_sysregs_context_restore>
  977738:	910c0339 	add	x25, x25, #0x300
  97773c:	52800000 	mov	w0, #0x0                   	// #0
  977740:	97ffe9a3 	bl	971dcc <cm_set_next_eret_context>
  977744:	d2804c01 	mov	x1, #0x260                 	// #608
  977748:	f9401260 	ldr	x0, [x19, #32]
  97774c:	d503201f 	nop
  977750:	9b016684 	madd	x4, x20, x1, x25
  977754:	f9002080 	str	x0, [x4, #64]
  977758:	f9401660 	ldr	x0, [x19, #40]
  97775c:	f9002480 	str	x0, [x4, #72]
  977760:	f9401a60 	ldr	x0, [x19, #48]
  977764:	f9002880 	str	x0, [x4, #80]
  977768:	f9401e60 	ldr	x0, [x19, #56]
  97776c:	91008353 	add	x19, x26, #0x20
  977770:	8b130333 	add	x19, x25, x19
  977774:	a9025498 	stp	x24, x21, [x4, #32]
  977778:	a9035c96 	stp	x22, x23, [x4, #48]
  97777c:	f9002c80 	str	x0, [x4, #88]
  977780:	17ffffd6 	b	9776d8 <opteed_smc_handler+0x68>
  977784:	90000041 	adrp	x1, 97f000 <psci_ns_context+0x600>
  977788:	52a84000 	mov	w0, #0x42000000            	// #1107296256
  97778c:	910c0033 	add	x19, x1, #0x300
  977790:	0b000318 	add	w24, w24, w0
  977794:	8b1a0273 	add	x19, x19, x26
  977798:	7100231f 	cmp	w24, #0x8
  97779c:	54000348 	b.hi	977804 <opteed_smc_handler+0x194>  // b.pmore
  9777a0:	d0000000 	adrp	x0, 979000 <vprintf+0x2b4>
  9777a4:	9124a000 	add	x0, x0, #0x928
  9777a8:	38784800 	ldrb	w0, [x0, w24, uxtw]
  9777ac:	10000078 	adr	x24, 9777b8 <opteed_smc_handler+0x148>
  9777b0:	8b208b00 	add	x0, x24, w0, sxtb #2
  9777b4:	d61f0000 	br	x0
  9777b8:	f0000040 	adrp	x0, 982000 <imx_gicv3_ctx+0x1e90>
  9777bc:	f9056415 	str	x21, [x0, #2760]
  9777c0:	b4000275 	cbz	x21, 97780c <opteed_smc_handler+0x19c>
  9777c4:	d2804c00 	mov	x0, #0x260                 	// #608
  9777c8:	910c0021 	add	x1, x1, #0x300
  9777cc:	9b007e94 	mul	x20, x20, x0
  9777d0:	d0000000 	adrp	x0, 979000 <vprintf+0x2b4>
  9777d4:	f946ac00 	ldr	x0, [x0, #3416]
  9777d8:	b8746822 	ldr	w2, [x1, x20]
  9777dc:	121e7442 	and	w2, w2, #0xfffffffc
  9777e0:	321f0042 	orr	w2, w2, #0x2
  9777e4:	b8346822 	str	w2, [x1, x20]
  9777e8:	97ffebde 	bl	972760 <psci_register_spd_pm_hook>
  9777ec:	90000001 	adrp	x1, 977000 <bl31_early_platform_setup2+0xec>
  9777f0:	52800042 	mov	w2, #0x2                   	// #2
  9777f4:	9117f021 	add	x1, x1, #0x5fc
  9777f8:	52800000 	mov	w0, #0x0                   	// #0
  9777fc:	97ffe325 	bl	970490 <register_interrupt_type_handler>
  977800:	34000060 	cbz	w0, 97780c <opteed_smc_handler+0x19c>
  977804:	97ffe836 	bl	9718dc <console_flush>
  977808:	940001dd 	bl	977f7c <el3_panic>
  97780c:	aa1503e1 	mov	x1, x21
  977810:	aa1303e0 	mov	x0, x19
  977814:	97ffff70 	bl	9775d4 <opteed_synchronous_sp_exit>
  977818:	52800000 	mov	w0, #0x0                   	// #0
  97781c:	97ffe91b 	bl	971c88 <cm_el1_sysregs_context_save>
  977820:	52800020 	mov	w0, #0x1                   	// #1
  977824:	97ffe261 	bl	9701a8 <cm_get_context>
  977828:	aa0003f3 	mov	x19, x0
  97782c:	52800020 	mov	w0, #0x1                   	// #1
  977830:	97ffe932 	bl	971cf8 <cm_el1_sysregs_context_restore>
  977834:	52800020 	mov	w0, #0x1                   	// #1
  977838:	97ffe965 	bl	971dcc <cm_set_next_eret_context>
  97783c:	a9005a75 	stp	x21, x22, [x19]
  977840:	a9016677 	stp	x23, x25, [x19, #16]
  977844:	17ffffa5 	b	9776d8 <opteed_smc_handler+0x68>
  977848:	52800020 	mov	w0, #0x1                   	// #1
  97784c:	97ffe257 	bl	9701a8 <cm_get_context>
  977850:	aa0003f3 	mov	x19, x0
  977854:	52800020 	mov	w0, #0x1                   	// #1
  977858:	97ffe928 	bl	971cf8 <cm_el1_sysregs_context_restore>
  97785c:	52800020 	mov	w0, #0x1                   	// #1
  977860:	97ffe95b 	bl	971dcc <cm_set_next_eret_context>
  977864:	17ffff9d 	b	9776d8 <opteed_smc_handler+0x68>

0000000000977868 <opteed_setup>:
  977868:	a9be7bfd 	stp	x29, x30, [sp, #-32]!
  97786c:	910003fd 	mov	x29, sp
  977870:	f9000bf3 	str	x19, [sp, #16]
  977874:	94000455 	bl	9789c8 <plat_my_core_pos>
  977878:	2a0003f3 	mov	w19, w0
  97787c:	52800000 	mov	w0, #0x0                   	// #0
  977880:	97fffe3d 	bl	977174 <bl31_plat_get_next_image_ep_info>
  977884:	b40002c0 	cbz	x0, 9778dc <opteed_setup+0x74>
  977888:	f9400402 	ldr	x2, [x0, #8]
  97788c:	b4000282 	cbz	x2, 9778dc <opteed_setup+0x74>
  977890:	f0000044 	adrp	x4, 982000 <imx_gicv3_ctx+0x1e90>
  977894:	52804c06 	mov	w6, #0x260                 	// #608
  977898:	f9400c01 	ldr	x1, [x0, #24]
  97789c:	b90ae481 	str	w1, [x4, #2788]
  9778a0:	90000044 	adrp	x4, 97f000 <psci_ns_context+0x600>
  9778a4:	910c0084 	add	x4, x4, #0x300
  9778a8:	f9401003 	ldr	x3, [x0, #32]
  9778ac:	d503201f 	nop
  9778b0:	9ba61266 	umaddl	x6, w19, w6, x4
  9778b4:	f9401404 	ldr	x4, [x0, #40]
  9778b8:	f9401805 	ldr	x5, [x0, #48]
  9778bc:	97ffff10 	bl	9774fc <opteed_init_optee_ep_state>
  9778c0:	90000000 	adrp	x0, 977000 <bl31_early_platform_setup2+0xec>
  9778c4:	91239000 	add	x0, x0, #0x8e4
  9778c8:	97ffe29a 	bl	970330 <bl31_register_bl32_init>
  9778cc:	52800000 	mov	w0, #0x0                   	// #0
  9778d0:	f9400bf3 	ldr	x19, [sp, #16]
  9778d4:	a8c27bfd 	ldp	x29, x30, [sp], #32
  9778d8:	d65f03c0 	ret
  9778dc:	52800020 	mov	w0, #0x1                   	// #1
  9778e0:	17fffffc 	b	9778d0 <opteed_setup+0x68>

00000000009778e4 <opteed_init>:
  9778e4:	a9be7bfd 	stp	x29, x30, [sp, #-32]!
  9778e8:	52800000 	mov	w0, #0x0                   	// #0
  9778ec:	910003fd 	mov	x29, sp
  9778f0:	a90153f3 	stp	x19, x20, [sp, #16]
  9778f4:	97fffe20 	bl	977174 <bl31_plat_get_next_image_ep_info>
  9778f8:	aa0003f4 	mov	x20, x0
  9778fc:	94000433 	bl	9789c8 <plat_my_core_pos>
  977900:	2a0003f3 	mov	w19, w0
  977904:	aa1403e0 	mov	x0, x20
  977908:	97ffe8d4 	bl	971c58 <cm_init_my_context>
  97790c:	90000041 	adrp	x1, 97f000 <psci_ns_context+0x600>
  977910:	910c0021 	add	x1, x1, #0x300
  977914:	52804c00 	mov	w0, #0x260                 	// #608
  977918:	9ba00660 	umaddl	x0, w19, w0, x1
  97791c:	97ffff22 	bl	9775a4 <opteed_synchronous_sp_entry>
  977920:	a94153f3 	ldp	x19, x20, [sp, #16]
  977924:	a8c27bfd 	ldp	x29, x30, [sp], #32
  977928:	d65f03c0 	ret

000000000097792c <opteed_cpu_on_handler>:
  97792c:	d65f03c0 	ret

0000000000977930 <opteed_cpu_migrate_info>:
  977930:	52800040 	mov	w0, #0x2                   	// #2
  977934:	d65f03c0 	ret

0000000000977938 <opteed_cpu_on_finish_handler>:
  977938:	a9b77bfd 	stp	x29, x30, [sp, #-144]!
  97793c:	910003fd 	mov	x29, sp
  977940:	a90153f3 	stp	x19, x20, [sp, #16]
  977944:	52804c14 	mov	w20, #0x260                 	// #608
  977948:	a9025bf5 	stp	x21, x22, [sp, #32]
  97794c:	9400041f 	bl	9789c8 <plat_my_core_pos>
  977950:	d0000001 	adrp	x1, 979000 <vprintf+0x2b4>
  977954:	2a0003f3 	mov	w19, w0
  977958:	9100e3f5 	add	x21, sp, #0x38
  97795c:	f946d420 	ldr	x0, [x1, #3496]
  977960:	d2800005 	mov	x5, #0x0                   	// #0
  977964:	f946f836 	ldr	x22, [x1, #3568]
  977968:	d2800004 	mov	x4, #0x0                   	// #0
  97796c:	f946f021 	ldr	x1, [x1, #3552]
  977970:	d2800003 	mov	x3, #0x0                   	// #0
  977974:	f9400002 	ldr	x2, [x0]
  977978:	d503201f 	nop
  97797c:	9bb45a74 	umaddl	x20, w19, w20, x22
  977980:	b9400021 	ldr	w1, [x1]
  977984:	aa1503e0 	mov	x0, x21
  977988:	aa1403e6 	mov	x6, x20
  97798c:	91002042 	add	x2, x2, #0x8
  977990:	97fffedb 	bl	9774fc <opteed_init_optee_ep_state>
  977994:	aa1503e0 	mov	x0, x21
  977998:	97ffe8b0 	bl	971c58 <cm_init_my_context>
  97799c:	aa1403e0 	mov	x0, x20
  9779a0:	97ffff01 	bl	9775a4 <opteed_synchronous_sp_entry>
  9779a4:	34000060 	cbz	w0, 9779b0 <opteed_cpu_on_finish_handler+0x78>
  9779a8:	97ffe7cd 	bl	9718dc <console_flush>
  9779ac:	94000174 	bl	977f7c <el3_panic>
  9779b0:	d2804c00 	mov	x0, #0x260                 	// #608
  9779b4:	9b007e73 	mul	x19, x19, x0
  9779b8:	b8736ac0 	ldr	w0, [x22, x19]
  9779bc:	121e7400 	and	w0, w0, #0xfffffffc
  9779c0:	321f0000 	orr	w0, w0, #0x2
  9779c4:	b8336ac0 	str	w0, [x22, x19]
  9779c8:	a94153f3 	ldp	x19, x20, [sp, #16]
  9779cc:	a9425bf5 	ldp	x21, x22, [sp, #32]
  9779d0:	a8c97bfd 	ldp	x29, x30, [sp], #144
  9779d4:	d65f03c0 	ret

00000000009779d8 <opteed_system_reset>:
  9779d8:	a9be7bfd 	stp	x29, x30, [sp, #-32]!
  9779dc:	910003fd 	mov	x29, sp
  9779e0:	f9000bf3 	str	x19, [sp, #16]
  9779e4:	940003f9 	bl	9789c8 <plat_my_core_pos>
  9779e8:	d0000001 	adrp	x1, 979000 <vprintf+0x2b4>
  9779ec:	52804c13 	mov	w19, #0x260                 	// #608
  9779f0:	d2804c02 	mov	x2, #0x260                 	// #608
  9779f4:	f946f821 	ldr	x1, [x1, #3568]
  9779f8:	9bb30413 	umaddl	x19, w0, w19, x1
  9779fc:	2a0003e0 	mov	w0, w0
  977a00:	9b027c00 	mul	x0, x0, x2
  977a04:	b8606820 	ldr	w0, [x1, x0]
  977a08:	f240041f 	tst	x0, #0x3
  977a0c:	54000061 	b.ne	977a18 <opteed_system_reset+0x40>  // b.any
  977a10:	d2800000 	mov	x0, #0x0                   	// #0
  977a14:	97ffffc9 	bl	977938 <opteed_cpu_on_finish_handler>
  977a18:	d0000001 	adrp	x1, 979000 <vprintf+0x2b4>
  977a1c:	52800000 	mov	w0, #0x0                   	// #0
  977a20:	f946d421 	ldr	x1, [x1, #3496]
  977a24:	f9400021 	ldr	x1, [x1]
  977a28:	91008021 	add	x1, x1, #0x20
  977a2c:	97ffe8cf 	bl	971d68 <cm_set_elr_el3>
  977a30:	aa1303e0 	mov	x0, x19
  977a34:	f9400bf3 	ldr	x19, [sp, #16]
  977a38:	a8c27bfd 	ldp	x29, x30, [sp], #32
  977a3c:	17fffeda 	b	9775a4 <opteed_synchronous_sp_entry>

0000000000977a40 <opteed_system_off>:
  977a40:	a9be7bfd 	stp	x29, x30, [sp, #-32]!
  977a44:	910003fd 	mov	x29, sp
  977a48:	f9000bf3 	str	x19, [sp, #16]
  977a4c:	940003df 	bl	9789c8 <plat_my_core_pos>
  977a50:	d0000001 	adrp	x1, 979000 <vprintf+0x2b4>
  977a54:	52804c13 	mov	w19, #0x260                 	// #608
  977a58:	d2804c02 	mov	x2, #0x260                 	// #608
  977a5c:	f946f821 	ldr	x1, [x1, #3568]
  977a60:	9bb30413 	umaddl	x19, w0, w19, x1
  977a64:	2a0003e0 	mov	w0, w0
  977a68:	9b027c00 	mul	x0, x0, x2
  977a6c:	b8606820 	ldr	w0, [x1, x0]
  977a70:	f240041f 	tst	x0, #0x3
  977a74:	54000061 	b.ne	977a80 <opteed_system_off+0x40>  // b.any
  977a78:	d2800000 	mov	x0, #0x0                   	// #0
  977a7c:	97ffffaf 	bl	977938 <opteed_cpu_on_finish_handler>
  977a80:	d0000001 	adrp	x1, 979000 <vprintf+0x2b4>
  977a84:	52800000 	mov	w0, #0x0                   	// #0
  977a88:	f946d421 	ldr	x1, [x1, #3496]
  977a8c:	f9400021 	ldr	x1, [x1]
  977a90:	91007021 	add	x1, x1, #0x1c
  977a94:	97ffe8b5 	bl	971d68 <cm_set_elr_el3>
  977a98:	aa1303e0 	mov	x0, x19
  977a9c:	f9400bf3 	ldr	x19, [sp, #16]
  977aa0:	a8c27bfd 	ldp	x29, x30, [sp], #32
  977aa4:	17fffec0 	b	9775a4 <opteed_synchronous_sp_entry>

0000000000977aa8 <opteed_cpu_suspend_finish_handler>:
  977aa8:	a9bc7bfd 	stp	x29, x30, [sp, #-64]!
  977aac:	910003fd 	mov	x29, sp
  977ab0:	a90153f3 	stp	x19, x20, [sp, #16]
  977ab4:	a9025bf5 	stp	x21, x22, [sp, #32]
  977ab8:	aa0003f6 	mov	x22, x0
  977abc:	f9001bf7 	str	x23, [sp, #48]
  977ac0:	940003c2 	bl	9789c8 <plat_my_core_pos>
  977ac4:	2a0003f3 	mov	w19, w0
  977ac8:	d0000001 	adrp	x1, 979000 <vprintf+0x2b4>
  977acc:	d2804c17 	mov	x23, #0x260                 	// #608
  977ad0:	aa1303f4 	mov	x20, x19
  977ad4:	f946f835 	ldr	x21, [x1, #3568]
  977ad8:	9b177e73 	mul	x19, x19, x23
  977adc:	8b1302a0 	add	x0, x21, x19
  977ae0:	b8736aa2 	ldr	w2, [x21, x19]
  977ae4:	f240045f 	tst	x2, #0x3
  977ae8:	54000220 	b.eq	977b2c <opteed_cpu_suspend_finish_handler+0x84>  // b.none
  977aec:	f946d421 	ldr	x1, [x1, #3496]
  977af0:	f9001016 	str	x22, [x0, #32]
  977af4:	52800000 	mov	w0, #0x0                   	// #0
  977af8:	f9400021 	ldr	x1, [x1]
  977afc:	91004021 	add	x1, x1, #0x10
  977b00:	97ffe89a 	bl	971d68 <cm_set_elr_el3>
  977b04:	9bb77e80 	umull	x0, w20, w23
  977b08:	8b0002a0 	add	x0, x21, x0
  977b0c:	97fffea6 	bl	9775a4 <opteed_synchronous_sp_entry>
  977b10:	34000060 	cbz	w0, 977b1c <opteed_cpu_suspend_finish_handler+0x74>
  977b14:	97ffe772 	bl	9718dc <console_flush>
  977b18:	94000119 	bl	977f7c <el3_panic>
  977b1c:	b8736aa0 	ldr	w0, [x21, x19]
  977b20:	121e7400 	and	w0, w0, #0xfffffffc
  977b24:	321f0000 	orr	w0, w0, #0x2
  977b28:	b8336aa0 	str	w0, [x21, x19]
  977b2c:	a94153f3 	ldp	x19, x20, [sp, #16]
  977b30:	a9425bf5 	ldp	x21, x22, [sp, #32]
  977b34:	f9401bf7 	ldr	x23, [sp, #48]
  977b38:	a8c47bfd 	ldp	x29, x30, [sp], #64
  977b3c:	d65f03c0 	ret

0000000000977b40 <opteed_cpu_suspend_handler>:
  977b40:	a9bc7bfd 	stp	x29, x30, [sp, #-64]!
  977b44:	910003fd 	mov	x29, sp
  977b48:	a90153f3 	stp	x19, x20, [sp, #16]
  977b4c:	a9025bf5 	stp	x21, x22, [sp, #32]
  977b50:	aa0003f6 	mov	x22, x0
  977b54:	f9001bf7 	str	x23, [sp, #48]
  977b58:	9400039c 	bl	9789c8 <plat_my_core_pos>
  977b5c:	2a0003f3 	mov	w19, w0
  977b60:	d0000001 	adrp	x1, 979000 <vprintf+0x2b4>
  977b64:	d2804c17 	mov	x23, #0x260                 	// #608
  977b68:	aa1303f4 	mov	x20, x19
  977b6c:	f946f835 	ldr	x21, [x1, #3568]
  977b70:	9b177e73 	mul	x19, x19, x23
  977b74:	8b1302a0 	add	x0, x21, x19
  977b78:	b8736aa2 	ldr	w2, [x21, x19]
  977b7c:	f240045f 	tst	x2, #0x3
  977b80:	54000200 	b.eq	977bc0 <opteed_cpu_suspend_handler+0x80>  // b.none
  977b84:	f946d421 	ldr	x1, [x1, #3496]
  977b88:	f9001016 	str	x22, [x0, #32]
  977b8c:	52800000 	mov	w0, #0x0                   	// #0
  977b90:	f9400021 	ldr	x1, [x1]
  977b94:	91005021 	add	x1, x1, #0x14
  977b98:	97ffe874 	bl	971d68 <cm_set_elr_el3>
  977b9c:	9bb77e80 	umull	x0, w20, w23
  977ba0:	8b0002a0 	add	x0, x21, x0
  977ba4:	97fffe80 	bl	9775a4 <opteed_synchronous_sp_entry>
  977ba8:	34000060 	cbz	w0, 977bb4 <opteed_cpu_suspend_handler+0x74>
  977bac:	97ffe74c 	bl	9718dc <console_flush>
  977bb0:	940000f3 	bl	977f7c <el3_panic>
  977bb4:	b8736aa0 	ldr	w0, [x21, x19]
  977bb8:	32000400 	orr	w0, w0, #0x3
  977bbc:	b8336aa0 	str	w0, [x21, x19]
  977bc0:	a94153f3 	ldp	x19, x20, [sp, #16]
  977bc4:	a9425bf5 	ldp	x21, x22, [sp, #32]
  977bc8:	f9401bf7 	ldr	x23, [sp, #48]
  977bcc:	a8c47bfd 	ldp	x29, x30, [sp], #64
  977bd0:	d65f03c0 	ret

0000000000977bd4 <opteed_cpu_off_handler>:
  977bd4:	a9bd7bfd 	stp	x29, x30, [sp, #-48]!
  977bd8:	910003fd 	mov	x29, sp
  977bdc:	a90153f3 	stp	x19, x20, [sp, #16]
  977be0:	a9025bf5 	stp	x21, x22, [sp, #32]
  977be4:	94000379 	bl	9789c8 <plat_my_core_pos>
  977be8:	2a0003f4 	mov	w20, w0
  977bec:	d2804c16 	mov	x22, #0x260                 	// #608
  977bf0:	d0000000 	adrp	x0, 979000 <vprintf+0x2b4>
  977bf4:	aa1403f3 	mov	x19, x20
  977bf8:	f946f815 	ldr	x21, [x0, #3568]
  977bfc:	9b167e94 	mul	x20, x20, x22
  977c00:	b8746aa1 	ldr	w1, [x21, x20]
  977c04:	f240043f 	tst	x1, #0x3
  977c08:	54000200 	b.eq	977c48 <opteed_cpu_off_handler+0x74>  // b.none
  977c0c:	f946d400 	ldr	x0, [x0, #3496]
  977c10:	f9400001 	ldr	x1, [x0]
  977c14:	52800000 	mov	w0, #0x0                   	// #0
  977c18:	91003021 	add	x1, x1, #0xc
  977c1c:	97ffe853 	bl	971d68 <cm_set_elr_el3>
  977c20:	9bb67e60 	umull	x0, w19, w22
  977c24:	8b0002a0 	add	x0, x21, x0
  977c28:	97fffe5f 	bl	9775a4 <opteed_synchronous_sp_entry>
  977c2c:	34000060 	cbz	w0, 977c38 <opteed_cpu_off_handler+0x64>
  977c30:	97ffe72b 	bl	9718dc <console_flush>
  977c34:	940000d2 	bl	977f7c <el3_panic>
  977c38:	b8746aa0 	ldr	w0, [x21, x20]
  977c3c:	121e7400 	and	w0, w0, #0xfffffffc
  977c40:	32000000 	orr	w0, w0, #0x1
  977c44:	b8346aa0 	str	w0, [x21, x20]
  977c48:	52800000 	mov	w0, #0x0                   	// #0
  977c4c:	a94153f3 	ldp	x19, x20, [sp, #16]
  977c50:	a9425bf5 	ldp	x21, x22, [sp, #32]
  977c54:	a8c37bfd 	ldp	x29, x30, [sp], #48
  977c58:	d65f03c0 	ret

0000000000977c5c <std_svc_smc_handler>:
  977c5c:	a9be7bfd 	stp	x29, x30, [sp, #-32]!
  977c60:	910003fd 	mov	x29, sp
  977c64:	f9000bf3 	str	x19, [sp, #16]
  977c68:	aa0603f3 	mov	x19, x6
  977c6c:	37f000a0 	tbnz	w0, #30, 977c80 <std_svc_smc_handler+0x24>
  977c70:	92407c21 	and	x1, x1, #0xffffffff
  977c74:	92407c42 	and	x2, x2, #0xffffffff
  977c78:	92407c63 	and	x3, x3, #0xffffffff
  977c7c:	92407c84 	and	x4, x4, #0xffffffff
  977c80:	721b281f 	tst	w0, #0xffe0
  977c84:	54000101 	b.ne	977ca4 <std_svc_smc_handler+0x48>  // b.any
  977c88:	aa1303e6 	mov	x6, x19
  977c8c:	97ffebd4 	bl	972bdc <psci_smc_handler>
  977c90:	f9000260 	str	x0, [x19]
  977c94:	aa1303e0 	mov	x0, x19
  977c98:	f9400bf3 	ldr	x19, [sp, #16]
  977c9c:	a8c27bfd 	ldp	x29, x30, [sp], #32
  977ca0:	d65f03c0 	ret
  977ca4:	529fe021 	mov	w1, #0xff01                	// #65281
  977ca8:	72b08001 	movk	w1, #0x8400, lsl #16
  977cac:	6b01001f 	cmp	w0, w1
  977cb0:	54000120 	b.eq	977cd4 <std_svc_smc_handler+0x78>  // b.none
  977cb4:	11000821 	add	w1, w1, #0x2
  977cb8:	6b01001f 	cmp	w0, w1
  977cbc:	54000240 	b.eq	977d04 <std_svc_smc_handler+0xa8>  // b.none
  977cc0:	51000c21 	sub	w1, w1, #0x3
  977cc4:	6b01001f 	cmp	w0, w1
  977cc8:	d2800320 	mov	x0, #0x19                  	// #25
  977ccc:	da9f0000 	csinv	x0, x0, xzr, eq  // eq = none
  977cd0:	17fffff0 	b	977c90 <std_svc_smc_handler+0x34>
  977cd4:	d2882ac0 	mov	x0, #0x4156                	// #16726
  977cd8:	f2bc5ec0 	movk	x0, #0xe2f6, lsl #16
  977cdc:	f9000e60 	str	x0, [x19, #24]
  977ce0:	d285b5c0 	mov	x0, #0x2dae                	// #11694
  977ce4:	f2bf7800 	movk	x0, #0xfbc0, lsl #16
  977ce8:	f9000a60 	str	x0, [x19, #16]
  977cec:	d29f0c60 	mov	x0, #0xf863                	// #63587
  977cf0:	f2a8fd00 	movk	x0, #0x47e8, lsl #16
  977cf4:	f9000660 	str	x0, [x19, #8]
  977cf8:	d2920b60 	mov	x0, #0x905b                	// #36955
  977cfc:	f2a211a0 	movk	x0, #0x108d, lsl #16
  977d00:	17ffffe4 	b	977c90 <std_svc_smc_handler+0x34>
  977d04:	d2800020 	mov	x0, #0x1                   	// #1
  977d08:	f9000660 	str	x0, [x19, #8]
  977d0c:	d2800000 	mov	x0, #0x0                   	// #0
  977d10:	17ffffe0 	b	977c90 <std_svc_smc_handler+0x34>

0000000000977d14 <std_svc_setup>:
  977d14:	a9bf7bfd 	stp	x29, x30, [sp, #-16]!
  977d18:	529ffc00 	mov	w0, #0xffe0                	// #65504
  977d1c:	910003fd 	mov	x29, sp
  977d20:	97ffe143 	bl	97022c <get_arm_std_svc_args>
  977d24:	97ffed1b 	bl	973190 <psci_setup>
  977d28:	7100001f 	cmp	w0, #0x0
  977d2c:	1a9f07e0 	cset	w0, ne  // ne = any
  977d30:	a8c17bfd 	ldp	x29, x30, [sp], #16
  977d34:	d65f03c0 	ret

0000000000977d38 <report_unhandled_exception>:
  977d38:	94000310 	bl	978978 <plat_panic_handler>

0000000000977d3c <sync_exception_handler>:
  977d3c:	37f00640 	tbnz	w0, #30, 977e04 <smc_prohibited>

0000000000977d40 <sync_handler64>:
  977d40:	94000268 	bl	9786e0 <prepare_el3_entry>
  977d44:	aa1f03e5 	mov	x5, xzr
  977d48:	910003e6 	mov	x6, sp
  977d4c:	f94088cc 	ldr	x12, [x6, #272]
  977d50:	d50040bf 	msr	spsel, #0x0
  977d54:	d53e4010 	mrs	x16, spsr_el3
  977d58:	d53e4031 	mrs	x17, elr_el3
  977d5c:	a911c4d0 	stp	x16, x17, [x6, #280]
  977d60:	d53e1112 	mrs	x18, scr_el3
  977d64:	d53e5210 	mrs	x16, esr_el3
  977d68:	d35a7e11 	ubfx	x17, x16, #26, #6
  977d6c:	f100623f 	cmp	x17, #0x18
  977d70:	540002c0 	b.eq	977dc8 <sysreg_handler64>  // b.none
  977d74:	aa1f03e7 	mov	x7, xzr
  977d78:	b3400247 	bfxil	x7, x18, #0, #1
  977d7c:	9100019f 	mov	sp, x12
  977d80:	36f80060 	tbz	w0, #31, 977d8c <sync_handler64+0x4c>
  977d84:	f26f181f 	tst	x0, #0xfe0000
  977d88:	54000381 	b.ne	977df8 <smc_unknown>  // b.any
  977d8c:	92700010 	and	x16, x0, #0x10000
  977d90:	aa1000e7 	orr	x7, x7, x16
  977d94:	926ff800 	and	x0, x0, #0xfffffffffffeffff
  977d98:	d3587410 	ubfx	x16, x0, #24, #6
  977d9c:	d35f7c0f 	ubfx	x15, x0, #31, #1
  977da0:	aa0f1a10 	orr	x16, x16, x15, lsl #6
  977da4:	f000004e 	adrp	x14, 982000 <imx_gicv3_ctx+0x1e90>
  977da8:	912ba1ce 	add	x14, x14, #0xae8
  977dac:	387069cf 	ldrb	w15, [x14, x16]
  977db0:	3738024f 	tbnz	w15, #7, 977df8 <smc_unknown>
  977db4:	1000f36b 	adr	x11, 979c20 <__svc_desc_imx_sip_svc+0x18>
  977db8:	531b69ea 	lsl	w10, w15, #5
  977dbc:	f86a496f 	ldr	x15, [x11, w10, uxtw]
  977dc0:	d63f01e0 	blr	x15
  977dc4:	14000275 	b	978798 <el3_exit>

0000000000977dc8 <sysreg_handler64>:
  977dc8:	aa1003e0 	mov	x0, x16
  977dcc:	aa0603e1 	mov	x1, x6
  977dd0:	aa0603f3 	mov	x19, x6
  977dd4:	9100019f 	mov	sp, x12
  977dd8:	97ffe159 	bl	97033c <handle_sysreg_trap>
  977ddc:	6a00001f 	tst	w0, w0
  977de0:	54000cc4 	b.mi	977f78 <elx_panic>  // b.first
  977de4:	54000080 	b.eq	977df4 <sysreg_handler64+0x2c>  // b.none
  977de8:	f9409261 	ldr	x1, [x19, #288]
  977dec:	91001021 	add	x1, x1, #0x4
  977df0:	f9009261 	str	x1, [x19, #288]
  977df4:	14000269 	b	978798 <el3_exit>

0000000000977df8 <smc_unknown>:
  977df8:	92800000 	mov	x0, #0xffffffffffffffff    	// #-1
  977dfc:	f90000c0 	str	x0, [x6]
  977e00:	14000266 	b	978798 <el3_exit>

0000000000977e04 <smc_prohibited>:
  977e04:	a94e77fc 	ldp	x28, x29, [sp, #224]
  977e08:	f9407bfe 	ldr	x30, [sp, #240]
  977e0c:	92800000 	mov	x0, #0xffffffffffffffff    	// #-1
  977e10:	d69f03e0 	eret
  977e14:	d503379f 	dsb	nsh
  977e18:	d5033fdf 	isb

0000000000977e1c <handle_interrupt_exception>:
  977e1c:	94000231 	bl	9786e0 <prepare_el3_entry>
  977e20:	d53e4000 	mrs	x0, spsr_el3
  977e24:	d53e4021 	mrs	x1, elr_el3
  977e28:	a91187e0 	stp	x0, x1, [sp, #280]
  977e2c:	f9408be2 	ldr	x2, [sp, #272]
  977e30:	910003f4 	mov	x20, sp
  977e34:	d50040bf 	msr	spsel, #0x0
  977e38:	9100005f 	mov	sp, x2
  977e3c:	97fff0bb 	bl	974128 <plat_ic_get_pending_interrupt_type>
  977e40:	f1000c1f 	cmp	x0, #0x3
  977e44:	54000140 	b.eq	977e6c <interrupt_exit>  // b.none
  977e48:	97ffe1ac 	bl	9704f8 <get_interrupt_type_handler>
  977e4c:	b4000100 	cbz	x0, 977e6c <interrupt_exit>
  977e50:	aa0003f5 	mov	x21, x0
  977e54:	b2407fe0 	mov	x0, #0xffffffff            	// #4294967295
  977e58:	d53e1102 	mrs	x2, scr_el3
  977e5c:	d3400041 	ubfx	x1, x2, #0, #1
  977e60:	aa1403e2 	mov	x2, x20
  977e64:	aa1f03e3 	mov	x3, xzr
  977e68:	d63f02a0 	blr	x21

0000000000977e6c <interrupt_exit>:
  977e6c:	1400024b 	b	978798 <el3_exit>

0000000000977e70 <imp_def_el3_handler>:
  977e70:	a90007e0 	stp	x0, x1, [sp]
  977e74:	a9010fe2 	stp	x2, x3, [sp, #16]
  977e78:	a90217e4 	stp	x4, x5, [sp, #32]
  977e7c:	94000195 	bl	9784d0 <get_cpu_ops_ptr>
  977e80:	f9401400 	ldr	x0, [x0, #40]
  977e84:	b4000080 	cbz	x0, 977e94 <el3_handler_exit>
  977e88:	d53e5201 	mrs	x1, esr_el3
  977e8c:	d35a7c21 	ubfx	x1, x1, #26, #6
  977e90:	d63f0000 	blr	x0

0000000000977e94 <el3_handler_exit>:
  977e94:	a94007e0 	ldp	x0, x1, [sp]
  977e98:	a9410fe2 	ldp	x2, x3, [sp, #16]
  977e9c:	a94217e4 	ldp	x4, x5, [sp, #32]
  977ea0:	f9407bfe 	ldr	x30, [sp, #240]
  977ea4:	97ffffa5 	bl	977d38 <report_unhandled_exception>

0000000000977ea8 <reflect_pending_async_ea_to_lower_el>:
  977ea8:	a90e77fc 	stp	x28, x29, [sp, #224]
  977eac:	f940a3fd 	ldr	x29, [sp, #320]
  977eb0:	d53e403c 	mrs	x28, elr_el3
  977eb4:	eb1c03bf 	cmp	x29, x28
  977eb8:	54000080 	b.eq	977ec8 <check_loop_ctr>  // b.none
  977ebc:	f900a3fc 	str	x28, [sp, #320]
  977ec0:	f900a7ff 	str	xzr, [sp, #328]
  977ec4:	14000006 	b	977edc <skip_loop_ctr>

0000000000977ec8 <check_loop_ctr>:
  977ec8:	f940a7fd 	ldr	x29, [sp, #328]
  977ecc:	910007bd 	add	x29, x29, #0x1
  977ed0:	f900a7fd 	str	x29, [sp, #328]
  977ed4:	f10193bf 	cmp	x29, #0x64
  977ed8:	5400052a 	b.ge	977f7c <el3_panic>  // b.tcont

0000000000977edc <skip_loop_ctr>:
  977edc:	d53ec01d 	mrs	x29, vbar_el3
  977ee0:	cb1d03de 	sub	x30, x30, x29
  977ee4:	924023de 	and	x30, x30, #0x1ff
  977ee8:	f10203df 	cmp	x30, #0x80
  977eec:	5400012a 	b.ge	977f10 <skip_smc_check>  // b.tcont
  977ef0:	d53e521e 	mrs	x30, esr_el3
  977ef4:	d35a7fde 	ubfx	x30, x30, #26, #6
  977ef8:	f1004fdf 	cmp	x30, #0x13
  977efc:	54000080 	b.eq	977f0c <subtract_elr_el3>  // b.none
  977f00:	f1005fdf 	cmp	x30, #0x17
  977f04:	54000040 	b.eq	977f0c <subtract_elr_el3>  // b.none
  977f08:	14000002 	b	977f10 <skip_smc_check>

0000000000977f0c <subtract_elr_el3>:
  977f0c:	d100139c 	sub	x28, x28, #0x4

0000000000977f10 <skip_smc_check>:
  977f10:	d51e403c 	msr	elr_el3, x28
  977f14:	a94e77fc 	ldp	x28, x29, [sp, #224]
  977f18:	f9407bfe 	ldr	x30, [sp, #240]
  977f1c:	d69f03e0 	eret
  977f20:	d503379f 	dsb	nsh
  977f24:	d5033fdf 	isb

0000000000977f28 <asm_print_str>:
  977f28:	aa1e03e3 	mov	x3, x30
  977f2c:	38401480 	ldrb	w0, [x4], #1
  977f30:	b4000060 	cbz	x0, 977f3c <asm_print_str+0x14>
  977f34:	940002c1 	bl	978a38 <plat_crash_console_putc>
  977f38:	17fffffd 	b	977f2c <asm_print_str+0x4>
  977f3c:	d65f0060 	ret	x3

0000000000977f40 <asm_print_hex>:
  977f40:	d2800805 	mov	x5, #0x40                  	// #64

0000000000977f44 <asm_print_hex_bits>:
  977f44:	aa1e03e3 	mov	x3, x30
  977f48:	d10010a5 	sub	x5, x5, #0x4
  977f4c:	9ac52480 	lsr	x0, x4, x5
  977f50:	92400c00 	and	x0, x0, #0xf
  977f54:	f100281f 	cmp	x0, #0xa
  977f58:	54000043 	b.cc	977f60 <asm_print_hex_bits+0x1c>  // b.lo, b.ul, b.last
  977f5c:	91009c00 	add	x0, x0, #0x27
  977f60:	9100c000 	add	x0, x0, #0x30
  977f64:	940002b5 	bl	978a38 <plat_crash_console_putc>
  977f68:	b5ffff05 	cbnz	x5, 977f48 <asm_print_hex_bits+0x4>
  977f6c:	d65f0060 	ret	x3

0000000000977f70 <asm_print_newline>:
  977f70:	d2800140 	mov	x0, #0xa                   	// #10
  977f74:	140002b1 	b	978a38 <plat_crash_console_putc>

0000000000977f78 <elx_panic>:
  977f78:	14000001 	b	977f7c <el3_panic>

0000000000977f7c <el3_panic>:
  977f7c:	aa1e03e6 	mov	x6, x30
  977f80:	940002ac 	bl	978a30 <plat_crash_console_init>
  977f84:	b4000100 	cbz	x0, 977fa4 <_panic_handler>
  977f88:	3000e324 	adr	x4, 979bed <panic_msg>
  977f8c:	97ffffe7 	bl	977f28 <asm_print_str>
  977f90:	aa0603e4 	mov	x4, x6
  977f94:	d1001084 	sub	x4, x4, #0x4
  977f98:	97ffffea 	bl	977f40 <asm_print_hex>
  977f9c:	97fffff5 	bl	977f70 <asm_print_newline>
  977fa0:	940002a7 	bl	978a3c <plat_crash_console_flush>

0000000000977fa4 <_panic_handler>:
  977fa4:	aa0603fe 	mov	x30, x6
  977fa8:	14000274 	b	978978 <plat_panic_handler>

0000000000977fac <flush_dcache_range>:
  977fac:	b40001a1 	cbz	x1, 977fe0 <exit_loop_civac>
  977fb0:	d53b0023 	mrs	x3, ctr_el0
  977fb4:	d3504c63 	ubfx	x3, x3, #16, #4
  977fb8:	d2800082 	mov	x2, #0x4                   	// #4
  977fbc:	9ac32042 	lsl	x2, x2, x3
  977fc0:	8b010001 	add	x1, x0, x1
  977fc4:	d1000443 	sub	x3, x2, #0x1
  977fc8:	8a230000 	bic	x0, x0, x3

0000000000977fcc <loop_civac>:
  977fcc:	d50b7e20 	dc	civac, x0
  977fd0:	8b020000 	add	x0, x0, x2
  977fd4:	eb01001f 	cmp	x0, x1
  977fd8:	54ffffa3 	b.cc	977fcc <loop_civac>  // b.lo, b.ul, b.last
  977fdc:	d5033f9f 	dsb	sy

0000000000977fe0 <exit_loop_civac>:
  977fe0:	d65f03c0 	ret

0000000000977fe4 <clean_dcache_range>:
  977fe4:	b40001a1 	cbz	x1, 978018 <exit_loop_cvac>
  977fe8:	d53b0023 	mrs	x3, ctr_el0
  977fec:	d3504c63 	ubfx	x3, x3, #16, #4
  977ff0:	d2800082 	mov	x2, #0x4                   	// #4
  977ff4:	9ac32042 	lsl	x2, x2, x3
  977ff8:	8b010001 	add	x1, x0, x1
  977ffc:	d1000443 	sub	x3, x2, #0x1
  978000:	8a230000 	bic	x0, x0, x3

0000000000978004 <loop_cvac>:
  978004:	d50b7a20 	dc	cvac, x0
  978008:	8b020000 	add	x0, x0, x2
  97800c:	eb01001f 	cmp	x0, x1
  978010:	54ffffa3 	b.cc	978004 <loop_cvac>  // b.lo, b.ul, b.last
  978014:	d5033f9f 	dsb	sy

0000000000978018 <exit_loop_cvac>:
  978018:	d65f03c0 	ret

000000000097801c <inv_dcache_range>:
  97801c:	b40001a1 	cbz	x1, 978050 <exit_loop_ivac>
  978020:	d53b0023 	mrs	x3, ctr_el0
  978024:	d3504c63 	ubfx	x3, x3, #16, #4
  978028:	d2800082 	mov	x2, #0x4                   	// #4
  97802c:	9ac32042 	lsl	x2, x2, x3
  978030:	8b010001 	add	x1, x0, x1
  978034:	d1000443 	sub	x3, x2, #0x1
  978038:	8a230000 	bic	x0, x0, x3

000000000097803c <loop_ivac>:
  97803c:	d5087620 	dc	ivac, x0
  978040:	8b020000 	add	x0, x0, x2
  978044:	eb01001f 	cmp	x0, x1
  978048:	54ffffa3 	b.cc	97803c <loop_ivac>  // b.lo, b.ul, b.last
  97804c:	d5033f9f 	dsb	sy

0000000000978050 <exit_loop_ivac>:
  978050:	d65f03c0 	ret

0000000000978054 <do_dcsw_op>:
  978054:	b40004c3 	cbz	x3, 9780ec <exit>
  978058:	d538074c 	mrs	x12, id_aa64mmfr2_el1
  97805c:	d3545d8c 	ubfx	x12, x12, #20, #4
  978060:	1000048e 	adr	x14, 9780f0 <dcsw_loop_table>
  978064:	8b0015ce 	add	x14, x14, x0, lsl #5
  978068:	aa0903e0 	mov	x0, x9
  97806c:	52800028 	mov	w8, #0x1                   	// #1

0000000000978070 <loop1>:
  978070:	8b4a0542 	add	x2, x10, x10, lsr #1
  978074:	9ac22401 	lsr	x1, x0, x2
  978078:	92400821 	and	x1, x1, #0x7
  97807c:	f100083f 	cmp	x1, #0x2
  978080:	540002a3 	b.cc	9780d4 <level_done>  // b.lo, b.ul, b.last
  978084:	d51a000a 	msr	csselr_el1, x10
  978088:	d5033fdf 	isb
  97808c:	d5390001 	mrs	x1, ccsidr_el1
  978090:	92400822 	and	x2, x1, #0x7
  978094:	91001042 	add	x2, x2, #0x4
  978098:	b400006c 	cbz	x12, 9780a4 <loop1+0x34>
  97809c:	d3435c24 	ubfx	x4, x1, #3, #21
  9780a0:	14000002 	b	9780a8 <loop1+0x38>
  9780a4:	d3433024 	ubfx	x4, x1, #3, #10
  9780a8:	5ac01085 	clz	w5, w4
  9780ac:	1ac52089 	lsl	w9, w4, w5
  9780b0:	1ac52110 	lsl	w16, w8, w5
  9780b4:	2a090149 	orr	w9, w10, w9
  9780b8:	b400006c 	cbz	x12, 9780c4 <loop1+0x54>
  9780bc:	d360dc26 	ubfx	x6, x1, #32, #24
  9780c0:	14000002 	b	9780c8 <loop1+0x58>
  9780c4:	530d6c26 	ubfx	w6, w1, #13, #15
  9780c8:	1ac22111 	lsl	w17, w8, w2
  9780cc:	d5033f9f 	dsb	sy
  9780d0:	d61f01c0 	br	x14

00000000009780d4 <level_done>:
  9780d4:	9100094a 	add	x10, x10, #0x2
  9780d8:	eb0a007f 	cmp	x3, x10
  9780dc:	54fffca8 	b.hi	978070 <loop1>  // b.pmore
  9780e0:	d51a001f 	msr	csselr_el1, xzr
  9780e4:	d5033f9f 	dsb	sy
  9780e8:	d5033fdf 	isb

00000000009780ec <exit>:
  9780ec:	d65f03c0 	ret

00000000009780f0 <dcsw_loop_table>:
  9780f0:	1ac220c7 	lsl	w7, w6, w2

00000000009780f4 <loop3_isw>:
  9780f4:	2a07012b 	orr	w11, w9, w7
  9780f8:	d508764b 	dc	isw, x11
  9780fc:	6b1100e7 	subs	w7, w7, w17
  978100:	54ffffa2 	b.cs	9780f4 <loop3_isw>  // b.hs, b.nlast
  978104:	eb100129 	subs	x9, x9, x16
  978108:	54ffff42 	b.cs	9780f0 <dcsw_loop_table>  // b.hs, b.nlast
  97810c:	17fffff2 	b	9780d4 <level_done>

0000000000978110 <loop2_cisw>:
  978110:	1ac220c7 	lsl	w7, w6, w2

0000000000978114 <loop3_cisw>:
  978114:	2a07012b 	orr	w11, w9, w7
  978118:	d5087e4b 	dc	cisw, x11
  97811c:	6b1100e7 	subs	w7, w7, w17
  978120:	54ffffa2 	b.cs	978114 <loop3_cisw>  // b.hs, b.nlast
  978124:	eb100129 	subs	x9, x9, x16
  978128:	54ffff42 	b.cs	978110 <loop2_cisw>  // b.hs, b.nlast
  97812c:	17ffffea 	b	9780d4 <level_done>

0000000000978130 <loop2_csw>:
  978130:	1ac220c7 	lsl	w7, w6, w2

0000000000978134 <loop3_csw>:
  978134:	2a07012b 	orr	w11, w9, w7
  978138:	d5087a4b 	dc	csw, x11
  97813c:	6b1100e7 	subs	w7, w7, w17
  978140:	54ffffa2 	b.cs	978134 <loop3_csw>  // b.hs, b.nlast
  978144:	eb100129 	subs	x9, x9, x16
  978148:	54ffff42 	b.cs	978130 <loop2_csw>  // b.hs, b.nlast
  97814c:	17ffffe2 	b	9780d4 <level_done>

0000000000978150 <dcsw_op_all>:
  978150:	d5390029 	mrs	x9, clidr_el1
  978154:	d3586923 	ubfx	x3, x9, #24, #3
  978158:	d37ff863 	lsl	x3, x3, #1
  97815c:	aa1f03ea 	mov	x10, xzr
  978160:	17ffffbd 	b	978054 <do_dcsw_op>

0000000000978164 <dcsw_op_level1>:
  978164:	d5390029 	mrs	x9, clidr_el1
  978168:	d2800043 	mov	x3, #0x2                   	// #2
  97816c:	d100086a 	sub	x10, x3, #0x2
  978170:	17ffffb9 	b	978054 <do_dcsw_op>

0000000000978174 <dcsw_op_level2>:
  978174:	d5390029 	mrs	x9, clidr_el1
  978178:	d2800083 	mov	x3, #0x4                   	// #4
  97817c:	d100086a 	sub	x10, x3, #0x2
  978180:	17ffffb5 	b	978054 <do_dcsw_op>

0000000000978184 <zeromem>:
  978184:	8b010002 	add	x2, x0, x1
  978188:	14000030 	b	978248 <zero_normalmem+0xbc>

000000000097818c <zero_normalmem>:
  97818c:	8b010002 	add	x2, x0, x1
  978190:	d53b00e3 	mrs	x3, dczid_el0
  978194:	d3400c63 	ubfx	x3, x3, #0, #4
  978198:	d2800085 	mov	x5, #0x4                   	// #4
  97819c:	9ac320a3 	lsl	x3, x5, x3
  9781a0:	eb03003f 	cmp	x1, x3
  9781a4:	54000523 	b.cc	978248 <zero_normalmem+0xbc>  // b.lo, b.ul, b.last
  9781a8:	d1000461 	sub	x1, x3, #0x1
  9781ac:	ea01001f 	tst	x0, x1
  9781b0:	54000260 	b.eq	9781fc <zero_normalmem+0x70>  // b.none
  9781b4:	aa010004 	orr	x4, x0, x1
  9781b8:	91000484 	add	x4, x4, #0x1
  9781bc:	b4000464 	cbz	x4, 978248 <zero_normalmem+0xbc>
  9781c0:	eb02009f 	cmp	x4, x2
  9781c4:	54000428 	b.hi	978248 <zero_normalmem+0xbc>  // b.pmore
  9781c8:	f2400c1f 	tst	x0, #0xf
  9781cc:	540000e0 	b.eq	9781e8 <zero_normalmem+0x5c>  // b.none
  9781d0:	b2400c05 	orr	x5, x0, #0xf
  9781d4:	910004a5 	add	x5, x5, #0x1
  9781d8:	b4000385 	cbz	x5, 978248 <zero_normalmem+0xbc>
  9781dc:	3800141f 	strb	wzr, [x0], #1
  9781e0:	eb05001f 	cmp	x0, x5
  9781e4:	54ffffc1 	b.ne	9781dc <zero_normalmem+0x50>  // b.any
  9781e8:	eb04001f 	cmp	x0, x4
  9781ec:	54000082 	b.cs	9781fc <zero_normalmem+0x70>  // b.hs, b.nlast
  9781f0:	a8817c1f 	stp	xzr, xzr, [x0], #16
  9781f4:	eb04001f 	cmp	x0, x4
  9781f8:	54ffffc3 	b.cc	9781f0 <zero_normalmem+0x64>  // b.lo, b.ul, b.last
  9781fc:	8a210044 	bic	x4, x2, x1
  978200:	eb04001f 	cmp	x0, x4
  978204:	540000a2 	b.cs	978218 <zero_normalmem+0x8c>  // b.hs, b.nlast
  978208:	d50b7420 	dc	zva, x0
  97820c:	8b030000 	add	x0, x0, x3
  978210:	eb04001f 	cmp	x0, x4
  978214:	54ffffa3 	b.cc	978208 <zero_normalmem+0x7c>  // b.lo, b.ul, b.last
  978218:	927cec44 	and	x4, x2, #0xfffffffffffffff0
  97821c:	eb04001f 	cmp	x0, x4
  978220:	54000082 	b.cs	978230 <zero_normalmem+0xa4>  // b.hs, b.nlast
  978224:	a8817c1f 	stp	xzr, xzr, [x0], #16
  978228:	eb04001f 	cmp	x0, x4
  97822c:	54ffffc3 	b.cc	978224 <zero_normalmem+0x98>  // b.lo, b.ul, b.last
  978230:	eb02001f 	cmp	x0, x2
  978234:	54000080 	b.eq	978244 <zero_normalmem+0xb8>  // b.none
  978238:	3800141f 	strb	wzr, [x0], #1
  97823c:	eb02001f 	cmp	x0, x2
  978240:	54ffffc1 	b.ne	978238 <zero_normalmem+0xac>  // b.any
  978244:	d65f03c0 	ret
  978248:	f2400c1f 	tst	x0, #0xf
  97824c:	54fffe60 	b.eq	978218 <zero_normalmem+0x8c>  // b.none
  978250:	b2400c04 	orr	x4, x0, #0xf
  978254:	91000484 	add	x4, x4, #0x1
  978258:	b4fffec4 	cbz	x4, 978230 <zero_normalmem+0xa4>
  97825c:	eb02009f 	cmp	x4, x2
  978260:	54fffe82 	b.cs	978230 <zero_normalmem+0xa4>  // b.hs, b.nlast
  978264:	3800141f 	strb	wzr, [x0], #1
  978268:	eb04001f 	cmp	x0, x4
  97826c:	54ffffc1 	b.ne	978264 <zero_normalmem+0xd8>  // b.any
  978270:	17ffffea 	b	978218 <zero_normalmem+0x8c>

0000000000978274 <fixup_gdt_reloc>:
  978274:	aa0003e6 	mov	x6, x0
  978278:	aa0103e7 	mov	x7, x1
  97827c:	9274cfc2 	and	x2, x30, #0xfffffffffffff000
  978280:	eb060040 	subs	x0, x2, x6
  978284:	540001e0 	b.eq	9782c0 <fixup_gdt_reloc+0x4c>  // b.none
  978288:	b0000001 	adrp	x1, 979000 <vprintf+0x2b4>
  97828c:	9133e021 	add	x1, x1, #0xcf8
  978290:	b0000002 	adrp	x2, 979000 <vprintf+0x2b4>
  978294:	91388042 	add	x2, x2, #0xe20
  978298:	f9400023 	ldr	x3, [x1]
  97829c:	eb06007f 	cmp	x3, x6
  9782a0:	540000a3 	b.cc	9782b4 <fixup_gdt_reloc+0x40>  // b.lo, b.ul, b.last
  9782a4:	eb07007f 	cmp	x3, x7
  9782a8:	54000068 	b.hi	9782b4 <fixup_gdt_reloc+0x40>  // b.pmore
  9782ac:	8b000063 	add	x3, x3, x0
  9782b0:	f9000023 	str	x3, [x1]
  9782b4:	91002021 	add	x1, x1, #0x8
  9782b8:	eb02003f 	cmp	x1, x2
  9782bc:	54fffee3 	b.cc	978298 <fixup_gdt_reloc+0x24>  // b.lo, b.ul, b.last
  9782c0:	f0000001 	adrp	x1, 97b000 <__RO_END__>
  9782c4:	910de021 	add	x1, x1, #0x378
  9782c8:	f0000002 	adrp	x2, 97b000 <__RO_END__>
  9782cc:	9132a042 	add	x2, x2, #0xca8
  9782d0:	f9400423 	ldr	x3, [x1, #8]
  9782d4:	b4000143 	cbz	x3, 9782fc <fixup_gdt_reloc+0x88>
  9782d8:	f9400023 	ldr	x3, [x1]
  9782dc:	8b030003 	add	x3, x0, x3
  9782e0:	f9400824 	ldr	x4, [x1, #16]
  9782e4:	eb06009f 	cmp	x4, x6
  9782e8:	540000a3 	b.cc	9782fc <fixup_gdt_reloc+0x88>  // b.lo, b.ul, b.last
  9782ec:	eb07009f 	cmp	x4, x7
  9782f0:	54000068 	b.hi	9782fc <fixup_gdt_reloc+0x88>  // b.pmore
  9782f4:	8b040004 	add	x4, x0, x4
  9782f8:	f9000064 	str	x4, [x3]
  9782fc:	91006021 	add	x1, x1, #0x18
  978300:	eb02003f 	cmp	x1, x2
  978304:	54fffe63 	b.cc	9782d0 <fixup_gdt_reloc+0x5c>  // b.lo, b.ul, b.last
  978308:	d65f03c0 	ret

000000000097830c <cortex_a53_disable_dcache>:
  97830c:	d53e1001 	mrs	x1, sctlr_el3
  978310:	927df821 	and	x1, x1, #0xfffffffffffffffb
  978314:	d51e1001 	msr	sctlr_el3, x1
  978318:	d5033fdf 	isb
  97831c:	d65f03c0 	ret

0000000000978320 <cortex_a53_disable_smp>:
  978320:	d539f221 	mrs	x1, s3_1_c15_c2_1
  978324:	9279f821 	and	x1, x1, #0xffffffffffffffbf
  978328:	d519f221 	msr	s3_1_c15_c2_1, x1
  97832c:	d5033fdf 	isb
  978330:	d5033f9f 	dsb	sy
  978334:	d65f03c0 	ret

0000000000978338 <check_erratum_cortex_a53_819472>:
  978338:	d2800021 	mov	x1, #0x1                   	// #1
  97833c:	14000079 	b	978520 <cpu_rev_var_ls>

0000000000978340 <check_erratum_cortex_a53_824069>:
  978340:	d2800041 	mov	x1, #0x2                   	// #2
  978344:	14000077 	b	978520 <cpu_rev_var_ls>

0000000000978348 <check_erratum_cortex_a53_826319>:
  978348:	d2800041 	mov	x1, #0x2                   	// #2
  97834c:	14000075 	b	978520 <cpu_rev_var_ls>

0000000000978350 <check_erratum_cortex_a53_827319>:
  978350:	d2800041 	mov	x1, #0x2                   	// #2
  978354:	14000073 	b	978520 <cpu_rev_var_ls>

0000000000978358 <check_erratum_cortex_a53_835769>:
  978358:	f100101f 	cmp	x0, #0x4
  97835c:	540000c8 	b.hi	978374 <errata_not_applies>  // b.pmore
  978360:	f100041f 	cmp	x0, #0x1
  978364:	d2800020 	mov	x0, #0x1                   	// #1
  978368:	54000089 	b.ls	978378 <exit_check_errata_835769>  // b.plast
  97836c:	d53800c1 	mrs	x1, revidr_el1
  978370:	36380041 	tbz	w1, #7, 978378 <exit_check_errata_835769>

0000000000978374 <errata_not_applies>:
  978374:	d2800000 	mov	x0, #0x0                   	// #0

0000000000978378 <exit_check_errata_835769>:
  978378:	d65f03c0 	ret

000000000097837c <check_erratum_cortex_a53_836870>:
  97837c:	d2800061 	mov	x1, #0x3                   	// #3
  978380:	14000068 	b	978520 <cpu_rev_var_ls>

0000000000978384 <check_erratum_cortex_a53_843419>:
  978384:	d2800021 	mov	x1, #0x1                   	// #1
  978388:	d2800002 	mov	x2, #0x0                   	// #0
  97838c:	f100101f 	cmp	x0, #0x4
  978390:	9a829020 	csel	x0, x1, x2, ls  // ls = plast
  978394:	54000081 	b.ne	9783a4 <exit_check_errata_843419>  // b.any
  978398:	d53800c3 	mrs	x3, revidr_el1
  97839c:	36400043 	tbz	w3, #8, 9783a4 <exit_check_errata_843419>
  9783a0:	aa0203e0 	mov	x0, x2

00000000009783a4 <exit_check_errata_843419>:
  9783a4:	d65f03c0 	ret

00000000009783a8 <erratum_cortex_a53_855873_wa>:
  9783a8:	aa1e03e8 	mov	x8, x30
  9783ac:	aa0003e7 	mov	x7, x0
  9783b0:	94000006 	bl	9783c8 <check_erratum_cortex_a53_855873>
  9783b4:	b4000080 	cbz	x0, 9783c4 <erratum_cortex_a53_855873_skip>
  9783b8:	d539f201 	mrs	x1, s3_1_c15_c2_0
  9783bc:	b2540021 	orr	x1, x1, #0x100000000000
  9783c0:	d519f201 	msr	s3_1_c15_c2_0, x1

00000000009783c4 <erratum_cortex_a53_855873_skip>:
  9783c4:	d65f0100 	ret	x8

00000000009783c8 <check_erratum_cortex_a53_855873>:
  9783c8:	d2800061 	mov	x1, #0x3                   	// #3
  9783cc:	1400005a 	b	978534 <cpu_rev_var_hs>

00000000009783d0 <check_erratum_cortex_a53_1530924>:
  9783d0:	d2800040 	mov	x0, #0x2                   	// #2
  9783d4:	d65f03c0 	ret

00000000009783d8 <cortex_a53_reset_func>:
  9783d8:	aa1e03ef 	mov	x15, x30
  9783dc:	9400004d 	bl	978510 <cpu_get_rev_var>
  9783e0:	aa0003ee 	mov	x14, x0
  9783e4:	b000000c 	adrp	x12, 979000 <vprintf+0x2b4>
  9783e8:	9112618c 	add	x12, x12, #0x498
  9783ec:	b000000d 	adrp	x13, 979000 <vprintf+0x2b4>
  9783f0:	9115c1ad 	add	x13, x13, #0x570

00000000009783f4 <errata_begin>:
  9783f4:	eb0d019f 	cmp	x12, x13
  9783f8:	54000120 	b.eq	97841c <errata_end>  // b.none
  9783fc:	f940018a 	ldr	x10, [x12]
  978400:	3940598b 	ldrb	w11, [x12, #22]
  978404:	b400008b 	cbz	x11, 978414 <errata_begin+0x20>
  978408:	b400006a 	cbz	x10, 978414 <errata_begin+0x20>
  97840c:	aa0e03e0 	mov	x0, x14
  978410:	d63f0140 	blr	x10
  978414:	9100618c 	add	x12, x12, #0x18
  978418:	17fffff7 	b	9783f4 <errata_begin>

000000000097841c <errata_end>:
  97841c:	d539f221 	mrs	x1, s3_1_c15_c2_1
  978420:	b27a0021 	orr	x1, x1, #0x40
  978424:	d519f221 	msr	s3_1_c15_c2_1, x1
  978428:	d5033fdf 	isb
  97842c:	d65f01e0 	ret	x15

0000000000978430 <cortex_a53_core_pwr_dwn>:
  978430:	aa1e03f2 	mov	x18, x30
  978434:	97ffffb6 	bl	97830c <cortex_a53_disable_dcache>
  978438:	d2800020 	mov	x0, #0x1                   	// #1
  97843c:	97ffff4a 	bl	978164 <dcsw_op_level1>
  978440:	aa1203fe 	mov	x30, x18
  978444:	17ffffb7 	b	978320 <cortex_a53_disable_smp>

0000000000978448 <cortex_a53_cluster_pwr_dwn>:
  978448:	aa1e03f2 	mov	x18, x30
  97844c:	97ffffb0 	bl	97830c <cortex_a53_disable_dcache>
  978450:	d2800020 	mov	x0, #0x1                   	// #1
  978454:	97ffff44 	bl	978164 <dcsw_op_level1>
  978458:	94000147 	bl	978974 <plat_disable_acp>
  97845c:	d2800020 	mov	x0, #0x1                   	// #1
  978460:	97ffff45 	bl	978174 <dcsw_op_level2>
  978464:	aa1203fe 	mov	x30, x18
  978468:	17ffffae 	b	978320 <cortex_a53_disable_smp>

000000000097846c <reset_handler>:
  97846c:	aa1e03f3 	mov	x19, x30
  978470:	9400015b 	bl	9789dc <plat_reset_handler>
  978474:	94000017 	bl	9784d0 <get_cpu_ops_ptr>
  978478:	f9400402 	ldr	x2, [x0, #8]
  97847c:	aa1303fe 	mov	x30, x19
  978480:	b4000042 	cbz	x2, 978488 <reset_handler+0x1c>
  978484:	d61f0040 	br	x2
  978488:	d65f03c0 	ret

000000000097848c <prepare_cpu_pwr_dwn>:
  97848c:	d2800022 	mov	x2, #0x1                   	// #1
  978490:	eb02001f 	cmp	x0, x2
  978494:	9a808042 	csel	x2, x2, x0, hi  // hi = pmore
  978498:	d53ed041 	mrs	x1, tpidr_el3
  97849c:	f9400820 	ldr	x0, [x1, #16]
  9784a0:	d2800601 	mov	x1, #0x30                  	// #48
  9784a4:	8b020c21 	add	x1, x1, x2, lsl #3
  9784a8:	f8616801 	ldr	x1, [x0, x1]
  9784ac:	d61f0020 	br	x1

00000000009784b0 <init_cpu_ops>:
  9784b0:	d53ed046 	mrs	x6, tpidr_el3
  9784b4:	f94008c0 	ldr	x0, [x6, #16]
  9784b8:	b50000a0 	cbnz	x0, 9784cc <init_cpu_ops+0x1c>
  9784bc:	aa1e03ea 	mov	x10, x30
  9784c0:	94000004 	bl	9784d0 <get_cpu_ops_ptr>
  9784c4:	f8010cc0 	str	x0, [x6, #16]!
  9784c8:	aa0a03fe 	mov	x30, x10
  9784cc:	d65f03c0 	ret

00000000009784d0 <get_cpu_ops_ptr>:
  9784d0:	d5380002 	mrs	x2, midr_el1
  9784d4:	d29ffe03 	mov	x3, #0xfff0                	// #65520
  9784d8:	f2bfe003 	movk	x3, #0xff00, lsl #16
  9784dc:	0a030042 	and	w2, w2, w3
  9784e0:	1000c0c5 	adr	x5, 979cf8 <__CPU_OPS_END__>
  9784e4:	d2800000 	mov	x0, #0x0                   	// #0
  9784e8:	1000be04 	adr	x4, 979ca8 <__CPU_OPS_START__>
  9784ec:	eb05009f 	cmp	x4, x5
  9784f0:	540000e0 	b.eq	97850c <search_def_ptr>  // b.none
  9784f4:	f8450481 	ldr	x1, [x4], #80
  9784f8:	0a030021 	and	w1, w1, w3
  9784fc:	6b02003f 	cmp	w1, w2
  978500:	54ffff61 	b.ne	9784ec <get_cpu_ops_ptr+0x1c>  // b.any
  978504:	d1014080 	sub	x0, x4, #0x50
  978508:	d65f03c0 	ret

000000000097850c <search_def_ptr>:
  97850c:	d65f03c0 	ret

0000000000978510 <cpu_get_rev_var>:
  978510:	d5380001 	mrs	x1, midr_el1
  978514:	d3505c20 	ubfx	x0, x1, #16, #8
  978518:	b3400c20 	bfxil	x0, x1, #0, #4
  97851c:	d65f03c0 	ret

0000000000978520 <cpu_rev_var_ls>:
  978520:	d2800022 	mov	x2, #0x1                   	// #1
  978524:	d2800003 	mov	x3, #0x0                   	// #0
  978528:	eb01001f 	cmp	x0, x1
  97852c:	9a839040 	csel	x0, x2, x3, ls  // ls = plast
  978530:	d65f03c0 	ret

0000000000978534 <cpu_rev_var_hs>:
  978534:	d2800022 	mov	x2, #0x1                   	// #1
  978538:	d2800003 	mov	x3, #0x0                   	// #0
  97853c:	eb01001f 	cmp	x0, x1
  978540:	9a832040 	csel	x0, x2, x3, cs  // cs = hs, nlast
  978544:	d65f03c0 	ret

0000000000978548 <check_wa_cve_2017_5715>:
  978548:	d53ed040 	mrs	x0, tpidr_el3
  97854c:	f9400800 	ldr	x0, [x0, #16]
  978550:	f9400800 	ldr	x0, [x0, #16]
  978554:	f100001f 	cmp	x0, #0x0
  978558:	54000040 	b.eq	978560 <check_wa_cve_2017_5715+0x18>  // b.none
  97855c:	d61f0000 	br	x0
  978560:	d2800000 	mov	x0, #0x0                   	// #0
  978564:	d65f03c0 	ret

0000000000978568 <check_smccc_arch_wa3_applies>:
  978568:	d53ed040 	mrs	x0, tpidr_el3
  97856c:	f9400800 	ldr	x0, [x0, #16]
  978570:	f9401000 	ldr	x0, [x0, #32]
  978574:	f100001f 	cmp	x0, #0x0
  978578:	54000040 	b.eq	978580 <check_smccc_arch_wa3_applies+0x18>  // b.none
  97857c:	d61f0000 	br	x0
  978580:	d2800000 	mov	x0, #0x0                   	// #0
  978584:	d65f03c0 	ret

0000000000978588 <el1_sysregs_context_save>:
  978588:	d5384009 	mrs	x9, spsr_el1
  97858c:	d538402a 	mrs	x10, elr_el1
  978590:	a9002809 	stp	x9, x10, [x0]
  978594:	d538100f 	mrs	x15, sctlr_el1
  978598:	d5382050 	mrs	x16, tcr_el1
  97859c:	a901400f 	stp	x15, x16, [x0, #16]
  9785a0:	d5381051 	mrs	x17, cpacr_el1
  9785a4:	d53a0009 	mrs	x9, csselr_el1
  9785a8:	a9022411 	stp	x17, x9, [x0, #32]
  9785ac:	d53c410a 	mrs	x10, sp_el1
  9785b0:	d538520b 	mrs	x11, esr_el1
  9785b4:	a9032c0a 	stp	x10, x11, [x0, #48]
  9785b8:	d538200c 	mrs	x12, ttbr0_el1
  9785bc:	d538202d 	mrs	x13, ttbr1_el1
  9785c0:	a904340c 	stp	x12, x13, [x0, #64]
  9785c4:	d538a20e 	mrs	x14, mair_el1
  9785c8:	d538a30f 	mrs	x15, amair_el1
  9785cc:	a9053c0e 	stp	x14, x15, [x0, #80]
  9785d0:	d5381030 	mrs	x16, actlr_el1
  9785d4:	d538d091 	mrs	x17, tpidr_el1
  9785d8:	a9064410 	stp	x16, x17, [x0, #96]
  9785dc:	d53bd049 	mrs	x9, tpidr_el0
  9785e0:	d53bd06a 	mrs	x10, tpidrro_el0
  9785e4:	a9072809 	stp	x9, x10, [x0, #112]
  9785e8:	d538740d 	mrs	x13, par_el1
  9785ec:	d538600e 	mrs	x14, far_el1
  9785f0:	a908380d 	stp	x13, x14, [x0, #128]
  9785f4:	d538510f 	mrs	x15, afsr0_el1
  9785f8:	d5385130 	mrs	x16, afsr1_el1
  9785fc:	a909400f 	stp	x15, x16, [x0, #144]
  978600:	d538d031 	mrs	x17, contextidr_el1
  978604:	d538c009 	mrs	x9, vbar_el1
  978608:	a90a2411 	stp	x17, x9, [x0, #160]
  97860c:	d53c432b 	mrs	x11, spsr_abt
  978610:	d53c434c 	mrs	x12, spsr_und
  978614:	a90b300b 	stp	x11, x12, [x0, #176]
  978618:	d53c430d 	mrs	x13, spsr_irq
  97861c:	d53c436e 	mrs	x14, spsr_fiq
  978620:	a90c380d 	stp	x13, x14, [x0, #192]
  978624:	d53c300f 	mrs	x15, dacr32_el2
  978628:	d53c5030 	mrs	x16, ifsr32_el2
  97862c:	a90d400f 	stp	x15, x16, [x0, #208]
  978630:	d65f03c0 	ret

0000000000978634 <el1_sysregs_context_restore>:
  978634:	a9402809 	ldp	x9, x10, [x0]
  978638:	d5184009 	msr	spsr_el1, x9
  97863c:	d518402a 	msr	elr_el1, x10
  978640:	a941400f 	ldp	x15, x16, [x0, #16]
  978644:	d518100f 	msr	sctlr_el1, x15
  978648:	d5182050 	msr	tcr_el1, x16
  97864c:	a9422411 	ldp	x17, x9, [x0, #32]
  978650:	d5181051 	msr	cpacr_el1, x17
  978654:	d51a0009 	msr	csselr_el1, x9
  978658:	a9432c0a 	ldp	x10, x11, [x0, #48]
  97865c:	d51c410a 	msr	sp_el1, x10
  978660:	d518520b 	msr	esr_el1, x11
  978664:	a944340c 	ldp	x12, x13, [x0, #64]
  978668:	d518200c 	msr	ttbr0_el1, x12
  97866c:	d518202d 	msr	ttbr1_el1, x13
  978670:	a9453c0e 	ldp	x14, x15, [x0, #80]
  978674:	d518a20e 	msr	mair_el1, x14
  978678:	d518a30f 	msr	amair_el1, x15
  97867c:	a9464410 	ldp	x16, x17, [x0, #96]
  978680:	d5181030 	msr	actlr_el1, x16
  978684:	d518d091 	msr	tpidr_el1, x17
  978688:	a9472809 	ldp	x9, x10, [x0, #112]
  97868c:	d51bd049 	msr	tpidr_el0, x9
  978690:	d51bd06a 	msr	tpidrro_el0, x10
  978694:	a948380d 	ldp	x13, x14, [x0, #128]
  978698:	d518740d 	msr	par_el1, x13
  97869c:	d518600e 	msr	far_el1, x14
  9786a0:	a949400f 	ldp	x15, x16, [x0, #144]
  9786a4:	d518510f 	msr	afsr0_el1, x15
  9786a8:	d5185130 	msr	afsr1_el1, x16
  9786ac:	a94a2411 	ldp	x17, x9, [x0, #160]
  9786b0:	d518d031 	msr	contextidr_el1, x17
  9786b4:	d518c009 	msr	vbar_el1, x9
  9786b8:	a94b300b 	ldp	x11, x12, [x0, #176]
  9786bc:	d51c432b 	msr	spsr_abt, x11
  9786c0:	d51c434c 	msr	spsr_und, x12
  9786c4:	a94c380d 	ldp	x13, x14, [x0, #192]
  9786c8:	d51c430d 	msr	spsr_irq, x13
  9786cc:	d51c436e 	msr	spsr_fiq, x14
  9786d0:	a94d400f 	ldp	x15, x16, [x0, #208]
  9786d4:	d51c300f 	msr	dacr32_el2, x15
  9786d8:	d51c5030 	msr	ifsr32_el2, x16
  9786dc:	d65f03c0 	ret

00000000009786e0 <prepare_el3_entry>:
  9786e0:	a90007e0 	stp	x0, x1, [sp]
  9786e4:	a9010fe2 	stp	x2, x3, [sp, #16]
  9786e8:	a90217e4 	stp	x4, x5, [sp, #32]
  9786ec:	a9031fe6 	stp	x6, x7, [sp, #48]
  9786f0:	a90427e8 	stp	x8, x9, [sp, #64]
  9786f4:	a9052fea 	stp	x10, x11, [sp, #80]
  9786f8:	a90637ec 	stp	x12, x13, [sp, #96]
  9786fc:	a9073fee 	stp	x14, x15, [sp, #112]
  978700:	a90847f0 	stp	x16, x17, [sp, #128]
  978704:	a9094ff2 	stp	x18, x19, [sp, #144]
  978708:	a90a57f4 	stp	x20, x21, [sp, #160]
  97870c:	a90b5ff6 	stp	x22, x23, [sp, #176]
  978710:	a90c67f8 	stp	x24, x25, [sp, #192]
  978714:	a90d6ffa 	stp	x26, x27, [sp, #208]
  978718:	a90e77fc 	stp	x28, x29, [sp, #224]
  97871c:	d5384112 	mrs	x18, sp_el0
  978720:	f9007ff2 	str	x18, [sp, #248]
  978724:	d53b9c09 	mrs	x9, pmcr_el0
  978728:	f90097e9 	str	x9, [sp, #296]
  97872c:	b27b0129 	orr	x9, x9, #0x20
  978730:	d51b9c09 	msr	pmcr_el0, x9
  978734:	d5033fdf 	isb
  978738:	d53e1108 	mrs	x8, scr_el3
  97873c:	b27d0108 	orr	x8, x8, #0x8
  978740:	d51e1108 	msr	scr_el3, x8
  978744:	d65f03c0 	ret

0000000000978748 <restore_gp_pmcr_pauth_regs>:
  978748:	f94097e0 	ldr	x0, [sp, #296]
  97874c:	d51b9c00 	msr	pmcr_el0, x0
  978750:	a94007e0 	ldp	x0, x1, [sp]
  978754:	a9410fe2 	ldp	x2, x3, [sp, #16]
  978758:	a94217e4 	ldp	x4, x5, [sp, #32]
  97875c:	a9431fe6 	ldp	x6, x7, [sp, #48]
  978760:	a94427e8 	ldp	x8, x9, [sp, #64]
  978764:	a9452fea 	ldp	x10, x11, [sp, #80]
  978768:	a94637ec 	ldp	x12, x13, [sp, #96]
  97876c:	a9473fee 	ldp	x14, x15, [sp, #112]
  978770:	a94847f0 	ldp	x16, x17, [sp, #128]
  978774:	a9494ff2 	ldp	x18, x19, [sp, #144]
  978778:	a94a57f4 	ldp	x20, x21, [sp, #160]
  97877c:	a94b5ff6 	ldp	x22, x23, [sp, #176]
  978780:	a94c67f8 	ldp	x24, x25, [sp, #192]
  978784:	a94d6ffa 	ldp	x26, x27, [sp, #208]
  978788:	f9407ffc 	ldr	x28, [sp, #248]
  97878c:	d518411c 	msr	sp_el0, x28
  978790:	a94e77fc 	ldp	x28, x29, [sp, #224]
  978794:	d65f03c0 	ret

0000000000978798 <el3_exit>:
  978798:	910003f1 	mov	x17, sp
  97879c:	d50041bf 	msr	spsel, #0x1
  9787a0:	f9008bf1 	str	x17, [sp, #272]
  9787a4:	f94083ea 	ldr	x10, [sp, #256]
  9787a8:	d37ef949 	ubfx	x9, x10, #62, #1
  9787ac:	f100053f 	cmp	x9, #0x1
  9787b0:	54000060 	b.eq	9787bc <realm_state>  // b.none
  9787b4:	b3400149 	bfxil	x9, x10, #0, #1
  9787b8:	14000002 	b	9787c0 <end>

00000000009787bc <realm_state>:
  9787bc:	d2800049 	mov	x9, #0x2                   	// #2

00000000009787c0 <end>:
  9787c0:	d280020a 	mov	x10, #0x10                  	// #16
  9787c4:	9b0a7d29 	mul	x9, x9, x10
  9787c8:	f000002a 	adrp	x10, 97f000 <psci_ns_context+0x600>
  9787cc:	9134814a 	add	x10, x10, #0xd20
  9787d0:	8b0a0129 	add	x9, x9, x10
  9787d4:	aa0903e9 	mov	x9, x9
  9787d8:	a9405133 	ldp	x19, x20, [x9]
  9787dc:	d51e1153 	msr	cptr_el3, x19
  9787e0:	f2780273 	ands	x19, x19, #0x100
  9787e4:	54000060 	b.eq	9787f0 <sve_not_enabled>  // b.none
  9787e8:	d5033fdf 	isb
  9787ec:	d51e1214 	msr	zcr_el3, x20

00000000009787f0 <sve_not_enabled>:
  9787f0:	d5380408 	mrs	x8, id_aa64pfr0_el1
  9787f4:	d368fd08 	lsr	x8, x8, #40
  9787f8:	92400d08 	and	x8, x8, #0xf
  9787fc:	d5380427 	mrs	x7, id_aa64pfr1_el1
  978800:	d350fce7 	lsr	x7, x7, #16
  978804:	92400ce7 	and	x7, x7, #0xf
  978808:	aa0800e7 	orr	x7, x7, x8
  97880c:	b4000067 	cbz	x7, 978818 <no_mpam>
  978810:	f9409ff1 	ldr	x17, [sp, #312]
  978814:	d51ea511 	msr	mpam3_el3, x17

0000000000978818 <no_mpam>:
  978818:	d5033f9f 	dsb	sy
  97881c:	d5033fdf 	isb
  978820:	f94083f2 	ldr	x18, [sp, #256]
  978824:	a951c7f0 	ldp	x16, x17, [sp, #280]
  978828:	d51e1112 	msr	scr_el3, x18
  97882c:	d51e4010 	msr	spsr_el3, x16
  978830:	d51e4031 	msr	elr_el3, x17
  978834:	97ffffc5 	bl	978748 <restore_gp_pmcr_pauth_regs>
  978838:	f9407bfe 	ldr	x30, [sp, #240]
  97883c:	f900a7ff 	str	xzr, [sp, #328]
  978840:	d69f03e0 	eret
  978844:	d503379f 	dsb	nsh
  978848:	d5033fdf 	isb

000000000097884c <init_cpu_data_ptr>:
  97884c:	aa1e03ea 	mov	x10, x30
  978850:	9400005e 	bl	9789c8 <plat_my_core_pos>
  978854:	94000003 	bl	978860 <_cpu_data_by_index>
  978858:	d51ed040 	msr	tpidr_el3, x0
  97885c:	d65f0140 	ret	x10

0000000000978860 <_cpu_data_by_index>:
  978860:	d2800801 	mov	x1, #0x40                  	// #64
  978864:	9b017c00 	mul	x0, x0, x1
  978868:	d0000021 	adrp	x1, 97e000 <__STACKS_START__+0x2340>
  97886c:	91240021 	add	x1, x1, #0x900
  978870:	8b010000 	add	x0, x0, x1
  978874:	d65f03c0 	ret

0000000000978878 <spin_lock>:
  978878:	52800022 	mov	w2, #0x1                   	// #1
  97887c:	d50320bf 	sevl

0000000000978880 <l1>:
  978880:	d503205f 	wfe

0000000000978884 <l2>:
  978884:	885ffc01 	ldaxr	w1, [x0]
  978888:	35ffffc1 	cbnz	w1, 978880 <l1>
  97888c:	88017c02 	stxr	w1, w2, [x0]
  978890:	35ffffa1 	cbnz	w1, 978884 <l2>
  978894:	d65f03c0 	ret

0000000000978898 <spin_unlock>:
  978898:	889ffc1f 	stlr	wzr, [x0]
  97889c:	d65f03c0 	ret

00000000009788a0 <psci_do_pwrdown_cache_maintenance>:
  9788a0:	a9bf7bfd 	stp	x29, x30, [sp, #-16]!
  9788a4:	a9bf53f3 	stp	x19, x20, [sp, #-16]!
  9788a8:	97fffef9 	bl	97848c <prepare_cpu_pwr_dwn>
  9788ac:	94000037 	bl	978988 <plat_get_my_stack>
  9788b0:	aa0003f3 	mov	x19, x0
  9788b4:	910003e1 	mov	x1, sp
  9788b8:	cb010001 	sub	x1, x0, x1
  9788bc:	910003e0 	mov	x0, sp
  9788c0:	97fffdbb 	bl	977fac <flush_dcache_range>
  9788c4:	d12c0260 	sub	x0, x19, #0xb00
  9788c8:	cb2063e1 	sub	x1, sp, x0
  9788cc:	97fffdd4 	bl	97801c <inv_dcache_range>
  9788d0:	a8c153f3 	ldp	x19, x20, [sp], #16
  9788d4:	a8c17bfd 	ldp	x29, x30, [sp], #16
  9788d8:	d65f03c0 	ret

00000000009788dc <psci_do_pwrup_cache_maintenance>:
  9788dc:	a9bf7bfd 	stp	x29, x30, [sp, #-16]!
  9788e0:	d5033ebf 	dmb	st
  9788e4:	94000029 	bl	978988 <plat_get_my_stack>
  9788e8:	910003e1 	mov	x1, sp
  9788ec:	cb010001 	sub	x1, x0, x1
  9788f0:	910003e0 	mov	x0, sp
  9788f4:	97fffdca 	bl	97801c <inv_dcache_range>
  9788f8:	d53e1000 	mrs	x0, sctlr_el3
  9788fc:	b27e0000 	orr	x0, x0, #0x4
  978900:	d51e1000 	msr	sctlr_el3, x0
  978904:	d5033fdf 	isb
  978908:	a8c17bfd 	ldp	x29, x30, [sp], #16
  97890c:	d65f03c0 	ret

0000000000978910 <psci_power_down_wfi>:
  978910:	d5033f9f 	dsb	sy
  978914:	d503207f 	wfi
  978918:	17ffffff 	b	978914 <psci_power_down_wfi+0x4>

000000000097891c <enable_mmu_direct_el3>:
  97891c:	d50e871f 	tlbi	alle3
  978920:	aa0003e7 	mov	x7, x0
  978924:	f0000020 	adrp	x0, 97f000 <psci_ns_context+0x600>
  978928:	91364000 	add	x0, x0, #0xd90
  97892c:	f9400001 	ldr	x1, [x0]
  978930:	d51ea201 	msr	mair_el3, x1
  978934:	f9400402 	ldr	x2, [x0, #8]
  978938:	d51e2042 	msr	tcr_el3, x2
  97893c:	f9400803 	ldr	x3, [x0, #16]
  978940:	d51e2003 	msr	ttbr0_el3, x3
  978944:	d5033b9f 	dsb	ish
  978948:	d5033fdf 	isb
  97894c:	d53e1004 	mrs	x4, sctlr_el3
  978950:	d28000a5 	mov	x5, #0x5                   	// #5
  978954:	f2a00105 	movk	x5, #0x8, lsl #16
  978958:	aa050084 	orr	x4, x4, x5
  97895c:	927df885 	and	x5, x4, #0xfffffffffffffffb
  978960:	f24000ff 	tst	x7, #0x1
  978964:	9a8410a4 	csel	x4, x5, x4, ne  // ne = any
  978968:	d51e1004 	msr	sctlr_el3, x4
  97896c:	d5033fdf 	isb
  978970:	d65f03c0 	ret

0000000000978974 <plat_disable_acp>:
  978974:	d65f03c0 	ret

0000000000978978 <plat_panic_handler>:
  978978:	d503207f 	wfi
  97897c:	17ffffff 	b	978978 <plat_panic_handler>

0000000000978980 <bl31_plat_enable_mmu>:
  978980:	17ffffe7 	b	97891c <enable_mmu_direct_el3>

0000000000978984 <plat_handle_el3_ea>:
  978984:	17fffced 	b	977d38 <report_unhandled_exception>

0000000000978988 <plat_get_my_stack>:
  978988:	aa1e03ea 	mov	x10, x30
  97898c:	9400000f 	bl	9789c8 <plat_my_core_pos>
  978990:	90000022 	adrp	x2, 97c000 <__STACKS_START__+0x340>
  978994:	911f0042 	add	x2, x2, #0x7c0
  978998:	d2816001 	mov	x1, #0xb00                 	// #2816
  97899c:	9b010800 	madd	x0, x0, x1, x2
  9789a0:	d65f0140 	ret	x10

00000000009789a4 <plat_set_my_stack>:
  9789a4:	aa1e03e9 	mov	x9, x30
  9789a8:	97fffff8 	bl	978988 <plat_get_my_stack>
  9789ac:	9100001f 	mov	sp, x0
  9789b0:	d65f0120 	ret	x9

00000000009789b4 <plat_is_my_cpu_primary>:
  9789b4:	d53800a0 	mrs	x0, mpidr_el1
  9789b8:	92401c00 	and	x0, x0, #0xff
  9789bc:	f100001f 	cmp	x0, #0x0
  9789c0:	9a9f17e0 	cset	x0, eq  // eq = none
  9789c4:	d65f03c0 	ret

00000000009789c8 <plat_my_core_pos>:
  9789c8:	d53800a0 	mrs	x0, mpidr_el1
  9789cc:	92401c01 	and	x1, x0, #0xff
  9789d0:	92781c00 	and	x0, x0, #0xff00
  9789d4:	8b401820 	add	x0, x1, x0, lsr #6
  9789d8:	d65f03c0 	ret

00000000009789dc <plat_reset_handler>:
  9789dc:	d2800e60 	mov	x0, #0x73                  	// #115
  9789e0:	d51e1020 	msr	actlr_el3, x0
  9789e4:	d51c1020 	msr	actlr_el2, x0
  9789e8:	d5033fdf 	isb
  9789ec:	d5380000 	mrs	x0, midr_el1
  9789f0:	d3443c00 	ubfx	x0, x0, #4, #12
  9789f4:	7134201f 	cmp	w0, #0xd08
  9789f8:	54000040 	b.eq	978a00 <A72>  // b.none
  9789fc:	d65f03c0 	ret

0000000000978a00 <A72>:
  978a00:	d2800040 	mov	x0, #0x2                   	// #2
  978a04:	b26b0000 	orr	x0, x0, #0x200000
  978a08:	d519b040 	msr	s3_1_c11_c0_2, x0
  978a0c:	d5033fdf 	isb
  978a10:	d65f03c0 	ret

0000000000978a14 <plat_get_my_entrypoint>:
  978a14:	f0000001 	adrp	x1, 97b000 <__RO_END__>
  978a18:	f9410c20 	ldr	x0, [x1, #536]
  978a1c:	d65f03c0 	ret

0000000000978a20 <imx_mailbox_init>:
  978a20:	f0000001 	adrp	x1, 97b000 <__RO_END__>
  978a24:	f9010c20 	str	x0, [x1, #536]
  978a28:	d65f03c0 	ret

0000000000978a2c <plat_secondary_cold_boot_setup>:
  978a2c:	14000000 	b	978a2c <plat_secondary_cold_boot_setup>

0000000000978a30 <plat_crash_console_init>:
  978a30:	d2800020 	mov	x0, #0x1                   	// #1
  978a34:	d65f03c0 	ret

0000000000978a38 <plat_crash_console_putc>:
  978a38:	d65f03c0 	ret

0000000000978a3c <plat_crash_console_flush>:
  978a3c:	d2800000 	mov	x0, #0x0                   	// #0
  978a40:	d65f03c0 	ret

0000000000978a44 <platform_mem_init>:
  978a44:	d65f03c0 	ret

0000000000978a48 <console_imx_uart_register>:
  978a48:	aa1e03e7 	mov	x7, x30
  978a4c:	aa0303e6 	mov	x6, x3
  978a50:	b40001e6 	cbz	x6, 978a8c <register_fail>
  978a54:	f90010c0 	str	x0, [x6, #32]
  978a58:	9400000e 	bl	978a90 <console_imx_uart_init>
  978a5c:	b4000180 	cbz	x0, 978a8c <register_fail>
  978a60:	aa0603e0 	mov	x0, x6
  978a64:	aa0703fe 	mov	x30, x7
  978a68:	90000001 	adrp	x1, 978000 <clean_dcache_range+0x1c>
  978a6c:	912b2021 	add	x1, x1, #0xac8
  978a70:	f9000801 	str	x1, [x0, #16]
  978a74:	90000001 	adrp	x1, 978000 <clean_dcache_range+0x1c>
  978a78:	912c0021 	add	x1, x1, #0xb00
  978a7c:	f9000c01 	str	x1, [x0, #24]
  978a80:	d28000a1 	mov	x1, #0x5                   	// #5
  978a84:	f9000401 	str	x1, [x0, #8]
  978a88:	17ffe34e 	b	9717c0 <console_register>

0000000000978a8c <register_fail>:
  978a8c:	d65f00e0 	ret	x7

0000000000978a90 <console_imx_uart_init>:
  978a90:	52814025 	mov	w5, #0xa01                 	// #2561
  978a94:	b9009005 	str	w5, [x0, #144]
  978a98:	528001e5 	mov	w5, #0xf                   	// #15
  978a9c:	b900a405 	str	w5, [x0, #164]
  978aa0:	52800d05 	mov	w5, #0x68                  	// #104
  978aa4:	b900a805 	str	w5, [x0, #168]
  978aa8:	528804e5 	mov	w5, #0x4027                	// #16423
  978aac:	b9008405 	str	w5, [x0, #132]
  978ab0:	52800025 	mov	w5, #0x1                   	// #1
  978ab4:	b9008005 	str	w5, [x0, #128]
  978ab8:	b9408805 	ldr	w5, [x0, #136]
  978abc:	b27e00a5 	orr	x5, x5, #0x4
  978ac0:	b9008805 	str	w5, [x0, #136]
  978ac4:	d65f03c0 	ret

0000000000978ac8 <console_imx_uart_putc>:
  978ac8:	f9401021 	ldr	x1, [x1, #32]
  978acc:	b4000161 	cbz	x1, 978af8 <putc_error>
  978ad0:	7100281f 	cmp	w0, #0xa
  978ad4:	540000a1 	b.ne	978ae8 <console_imx_uart_putc+0x20>  // b.any
  978ad8:	b940b422 	ldr	w2, [x1, #180]
  978adc:	3727ffe2 	tbnz	w2, #4, 978ad8 <console_imx_uart_putc+0x10>
  978ae0:	528001a2 	mov	w2, #0xd                   	// #13
  978ae4:	b9004022 	str	w2, [x1, #64]
  978ae8:	b940b422 	ldr	w2, [x1, #180]
  978aec:	3727ffe2 	tbnz	w2, #4, 978ae8 <console_imx_uart_putc+0x20>
  978af0:	b9004020 	str	w0, [x1, #64]
  978af4:	d65f03c0 	ret

0000000000978af8 <putc_error>:
  978af8:	12800000 	mov	w0, #0xffffffff            	// #-1
  978afc:	d65f03c0 	ret

0000000000978b00 <console_imx_uart_flush>:
  978b00:	f9401000 	ldr	x0, [x0, #32]
  978b04:	b4000060 	cbz	x0, 978b10 <flush_exit>
  978b08:	b9409801 	ldr	w1, [x0, #152]
  978b0c:	361fffe1 	tbz	w1, #3, 978b08 <console_imx_uart_flush+0x8>

0000000000978b10 <flush_exit>:
  978b10:	d65f03c0 	ret

0000000000978b14 <opteed_enter_sp>:
  978b14:	910003e3 	mov	x3, sp
  978b18:	f9000003 	str	x3, [x0]
  978b1c:	d10183ff 	sub	sp, sp, #0x60
  978b20:	a90053f3 	stp	x19, x20, [sp]
  978b24:	a9015bf5 	stp	x21, x22, [sp, #16]
  978b28:	a90263f7 	stp	x23, x24, [sp, #32]
  978b2c:	a9036bf9 	stp	x25, x26, [sp, #48]
  978b30:	a90473fb 	stp	x27, x28, [sp, #64]
  978b34:	a9057bfd 	stp	x29, x30, [sp, #80]
  978b38:	17ffff18 	b	978798 <el3_exit>

0000000000978b3c <opteed_exit_sp>:
  978b3c:	9100001f 	mov	sp, x0
  978b40:	a97a5013 	ldp	x19, x20, [x0, #-96]
  978b44:	a97b5815 	ldp	x21, x22, [x0, #-80]
  978b48:	a97c6017 	ldp	x23, x24, [x0, #-64]
  978b4c:	a97d6819 	ldp	x25, x26, [x0, #-48]
  978b50:	a97e701b 	ldp	x27, x28, [x0, #-32]
  978b54:	a97f781d 	ldp	x29, x30, [x0, #-16]
  978b58:	aa0103e0 	mov	x0, x1
  978b5c:	d65f03c0 	ret

0000000000978b60 <memcmp>:
  978b60:	d1000421 	sub	x1, x1, #0x1
  978b64:	d2800004 	mov	x4, #0x0                   	// #0
  978b68:	eb04005f 	cmp	x2, x4
  978b6c:	54000061 	b.ne	978b78 <memcmp+0x18>  // b.any
  978b70:	52800000 	mov	w0, #0x0                   	// #0
  978b74:	14000007 	b	978b90 <memcmp+0x30>
  978b78:	38646803 	ldrb	w3, [x0, x4]
  978b7c:	91000484 	add	x4, x4, #0x1
  978b80:	38646825 	ldrb	w5, [x1, x4]
  978b84:	6b05007f 	cmp	w3, w5
  978b88:	54ffff00 	b.eq	978b68 <memcmp+0x8>  // b.none
  978b8c:	4b050060 	sub	w0, w3, w5
  978b90:	d65f03c0 	ret

0000000000978b94 <memcpy>:
  978b94:	d2800003 	mov	x3, #0x0                   	// #0
  978b98:	eb03005f 	cmp	x2, x3
  978b9c:	54000041 	b.ne	978ba4 <memcpy+0x10>  // b.any
  978ba0:	d65f03c0 	ret
  978ba4:	38636824 	ldrb	w4, [x1, x3]
  978ba8:	38236804 	strb	w4, [x0, x3]
  978bac:	91000463 	add	x3, x3, #0x1
  978bb0:	17fffffa 	b	978b98 <memcpy+0x4>

0000000000978bb4 <memmove>:
  978bb4:	cb010006 	sub	x6, x0, x1
  978bb8:	aa0003e5 	mov	x5, x0
  978bbc:	eb0200df 	cmp	x6, x2
  978bc0:	54000043 	b.cc	978bc8 <memmove+0x14>  // b.lo, b.ul, b.last
  978bc4:	17fffff4 	b	978b94 <memcpy>
  978bc8:	8b020024 	add	x4, x1, x2
  978bcc:	8b020000 	add	x0, x0, x2
  978bd0:	eb05001f 	cmp	x0, x5
  978bd4:	54000041 	b.ne	978bdc <memmove+0x28>  // b.any
  978bd8:	d65f03c0 	ret
  978bdc:	385ffc81 	ldrb	w1, [x4, #-1]!
  978be0:	381ffc01 	strb	w1, [x0, #-1]!
  978be4:	17fffffb 	b	978bd0 <memmove+0x1c>

0000000000978be8 <memset>:
  978be8:	b4000362 	cbz	x2, 978c54 <memset+0x6c>
  978bec:	12001c21 	and	w1, w1, #0xff
  978bf0:	aa0003e4 	mov	x4, x0
  978bf4:	f2400885 	ands	x5, x4, #0x7
  978bf8:	54000281 	b.ne	978c48 <memset+0x60>  // b.any
  978bfc:	92401c26 	and	x6, x1, #0xff
  978c00:	d3781c23 	ubfiz	x3, x1, #8, #8
  978c04:	aa060063 	orr	x3, x3, x6
  978c08:	d2800006 	mov	x6, #0x0                   	// #0
  978c0c:	aa034063 	orr	x3, x3, x3, lsl #16
  978c10:	aa038063 	orr	x3, x3, x3, lsl #32
  978c14:	cb060047 	sub	x7, x2, x6
  978c18:	f1001cff 	cmp	x7, #0x7
  978c1c:	540001e8 	b.hi	978c58 <memset+0x70>  // b.pmore
  978c20:	d343fc43 	lsr	x3, x2, #3
  978c24:	928000e6 	mov	x6, #0xfffffffffffffff8    	// #-8
  978c28:	9b067c63 	mul	x3, x3, x6
  978c2c:	8b030042 	add	x2, x2, x3
  978c30:	cb030084 	sub	x4, x4, x3
  978c34:	eb05005f 	cmp	x2, x5
  978c38:	540000e0 	b.eq	978c54 <memset+0x6c>  // b.none
  978c3c:	38256881 	strb	w1, [x4, x5]
  978c40:	910004a5 	add	x5, x5, #0x1
  978c44:	17fffffc 	b	978c34 <memset+0x4c>
  978c48:	38001481 	strb	w1, [x4], #1
  978c4c:	f1000442 	subs	x2, x2, #0x1
  978c50:	54fffd21 	b.ne	978bf4 <memset+0xc>  // b.any
  978c54:	d65f03c0 	ret
  978c58:	f8266883 	str	x3, [x4, x6]
  978c5c:	910020c6 	add	x6, x6, #0x8
  978c60:	17ffffed 	b	978c14 <memset+0x2c>

0000000000978c64 <unsigned_num_print.part.0>:
  978c64:	a9ba7bfd 	stp	x29, x30, [sp, #-96]!
  978c68:	12001c84 	and	w4, w4, #0xff
  978c6c:	2a0103e1 	mov	w1, w1
  978c70:	910003fd 	mov	x29, sp
  978c74:	a9025bf5 	stp	x21, x22, [sp, #32]
  978c78:	910123f5 	add	x21, sp, #0x48
  978c7c:	f9001bf7 	str	x23, [sp, #48]
  978c80:	12001c57 	and	w23, w2, #0xff
  978c84:	a90153f3 	stp	x19, x20, [sp, #16]
  978c88:	2a0303f3 	mov	w19, w3
  978c8c:	d2800003 	mov	x3, #0x0                   	// #0
  978c90:	9ac10807 	udiv	x7, x0, x1
  978c94:	9b0180e6 	msub	x6, x7, x1, x0
  978c98:	12001cc5 	and	w5, w6, #0xff
  978c9c:	f10024df 	cmp	x6, #0x9
  978ca0:	540002e8 	b.hi	978cfc <unsigned_num_print.part.0+0x98>  // b.pmore
  978ca4:	1100c0a5 	add	w5, w5, #0x30
  978ca8:	12001ca5 	and	w5, w5, #0xff
  978cac:	38356865 	strb	w5, [x3, x21]
  978cb0:	11000474 	add	w20, w3, #0x1
  978cb4:	91000463 	add	x3, x3, #0x1
  978cb8:	eb00003f 	cmp	x1, x0
  978cbc:	540001c9 	b.ls	978cf4 <unsigned_num_print.part.0+0x90>  // b.plast
  978cc0:	7100027f 	cmp	w19, #0x0
  978cc4:	540003ac 	b.gt	978d38 <unsigned_num_print.part.0+0xd4>
  978cc8:	52800013 	mov	w19, #0x0                   	// #0
  978ccc:	93407e96 	sxtw	x22, w20
  978cd0:	d10006d6 	sub	x22, x22, #0x1
  978cd4:	310006df 	cmn	w22, #0x1
  978cd8:	54000341 	b.ne	978d40 <unsigned_num_print.part.0+0xdc>  // b.any
  978cdc:	0b140260 	add	w0, w19, w20
  978ce0:	a94153f3 	ldp	x19, x20, [sp, #16]
  978ce4:	a9425bf5 	ldp	x21, x22, [sp, #32]
  978ce8:	f9401bf7 	ldr	x23, [sp, #48]
  978cec:	a8c67bfd 	ldp	x29, x30, [sp], #96
  978cf0:	d65f03c0 	ret
  978cf4:	aa0703e0 	mov	x0, x7
  978cf8:	17ffffe6 	b	978c90 <unsigned_num_print.part.0+0x2c>
  978cfc:	1100dca6 	add	w6, w5, #0x37
  978d00:	11015ca5 	add	w5, w5, #0x57
  978d04:	12001cc6 	and	w6, w6, #0xff
  978d08:	12001ca5 	and	w5, w5, #0xff
  978d0c:	7100009f 	cmp	w4, #0x0
  978d10:	1a8600a5 	csel	w5, w5, w6, eq  // eq = none
  978d14:	17ffffe6 	b	978cac <unsigned_num_print.part.0+0x48>
  978d18:	510006d6 	sub	w22, w22, #0x1
  978d1c:	2a1703e0 	mov	w0, w23
  978d20:	97ffe2e5 	bl	9718b4 <putchar>
  978d24:	6b1402df 	cmp	w22, w20
  978d28:	54ffff8c 	b.gt	978d18 <unsigned_num_print.part.0+0xb4>
  978d2c:	6b140260 	subs	w0, w19, w20
  978d30:	1a9fa013 	csel	w19, w0, wzr, ge  // ge = tcont
  978d34:	17ffffe6 	b	978ccc <unsigned_num_print.part.0+0x68>
  978d38:	2a1303f6 	mov	w22, w19
  978d3c:	17fffffa 	b	978d24 <unsigned_num_print.part.0+0xc0>
  978d40:	38766aa0 	ldrb	w0, [x21, x22]
  978d44:	97ffe2dc 	bl	9718b4 <putchar>
  978d48:	17ffffe2 	b	978cd0 <unsigned_num_print.part.0+0x6c>

0000000000978d4c <vprintf>:
  978d4c:	a9b97bfd 	stp	x29, x30, [sp, #-112]!
  978d50:	910003fd 	mov	x29, sp
  978d54:	a90153f3 	stp	x19, x20, [sp, #16]
  978d58:	b9401834 	ldr	w20, [x1, #24]
  978d5c:	a90363f7 	stp	x23, x24, [sp, #48]
  978d60:	52800018 	mov	w24, #0x0                   	// #0
  978d64:	a9405c33 	ldp	x19, x23, [x1]
  978d68:	a9025bf5 	stp	x21, x22, [sp, #32]
  978d6c:	aa0003f6 	mov	x22, x0
  978d70:	a9046bf9 	stp	x25, x26, [sp, #64]
  978d74:	b0000019 	adrp	x25, 979000 <vprintf+0x2b4>
  978d78:	9124d339 	add	x25, x25, #0x934
  978d7c:	52800015 	mov	w21, #0x0                   	// #0
  978d80:	a90573fb 	stp	x27, x28, [sp, #80]
  978d84:	394002c0 	ldrb	w0, [x22]
  978d88:	35000120 	cbnz	w0, 978dac <vprintf+0x60>
  978d8c:	2a1503e0 	mov	w0, w21
  978d90:	a94153f3 	ldp	x19, x20, [sp, #16]
  978d94:	a9425bf5 	ldp	x21, x22, [sp, #32]
  978d98:	a94363f7 	ldp	x23, x24, [sp, #48]
  978d9c:	a9446bf9 	ldp	x25, x26, [sp, #64]
  978da0:	a94573fb 	ldp	x27, x28, [sp, #80]
  978da4:	a8c77bfd 	ldp	x29, x30, [sp], #112
  978da8:	d65f03c0 	ret
  978dac:	910006d6 	add	x22, x22, #0x1
  978db0:	7100941f 	cmp	w0, #0x25
  978db4:	54001f61 	b.ne	9791a0 <vprintf+0x454>  // b.any
  978db8:	5280001b 	mov	w27, #0x0                   	// #0
  978dbc:	52800001 	mov	w1, #0x0                   	// #0
  978dc0:	140000b8 	b	9790a0 <vprintf+0x354>
  978dc4:	51018c00 	sub	w0, w0, #0x63
  978dc8:	71005c1f 	cmp	w0, #0x17
  978dcc:	54001828 	b.hi	9790d0 <vprintf+0x384>  // b.pmore
  978dd0:	78605b20 	ldrh	w0, [x25, w0, uxtw #1]
  978dd4:	10000062 	adr	x2, 978de0 <vprintf+0x94>
  978dd8:	8b20a840 	add	x0, x2, w0, sxth #2
  978ddc:	d61f0000 	br	x0
  978de0:	97ffe2b5 	bl	9718b4 <putchar>
  978de4:	910006d6 	add	x22, x22, #0x1
  978de8:	17ffffe7 	b	978d84 <vprintf+0x38>
  978dec:	7100043f 	cmp	w1, #0x1
  978df0:	5400024d 	b.le	978e38 <vprintf+0xec>
  978df4:	37f80314 	tbnz	w20, #31, 978e54 <vprintf+0x108>
  978df8:	91003e60 	add	x0, x19, #0xf
  978dfc:	2a1403e1 	mov	w1, w20
  978e00:	927df000 	and	x0, x0, #0xfffffffffffffff8
  978e04:	f940027c 	ldr	x28, [x19]
  978e08:	2a0103f4 	mov	w20, w1
  978e0c:	aa0003f3 	mov	x19, x0
  978e10:	b6f8047c 	tbz	x28, #63, 978e9c <vprintf+0x150>
  978e14:	528005a0 	mov	w0, #0x2d                  	// #45
  978e18:	97ffe2a7 	bl	9718b4 <putchar>
  978e1c:	cb1c03e0 	neg	x0, x28
  978e20:	5100077b 	sub	w27, w27, #0x1
  978e24:	2a1b03e3 	mov	w3, w27
  978e28:	2a1803e2 	mov	w2, w24
  978e2c:	52800004 	mov	w4, #0x0                   	// #0
  978e30:	52800141 	mov	w1, #0xa                   	// #10
  978e34:	1400007b 	b	979020 <vprintf+0x2d4>
  978e38:	54fffde0 	b.eq	978df4 <vprintf+0xa8>  // b.none
  978e3c:	37f801f4 	tbnz	w20, #31, 978e78 <vprintf+0x12c>
  978e40:	91002e60 	add	x0, x19, #0xb
  978e44:	2a1403e1 	mov	w1, w20
  978e48:	927df000 	and	x0, x0, #0xfffffffffffffff8
  978e4c:	b980027c 	ldrsw	x28, [x19]
  978e50:	17ffffee 	b	978e08 <vprintf+0xbc>
  978e54:	11002281 	add	w1, w20, #0x8
  978e58:	7100003f 	cmp	w1, #0x0
  978e5c:	5400008d 	b.le	978e6c <vprintf+0x120>
  978e60:	91003e60 	add	x0, x19, #0xf
  978e64:	927df000 	and	x0, x0, #0xfffffffffffffff8
  978e68:	17ffffe7 	b	978e04 <vprintf+0xb8>
  978e6c:	aa1303e0 	mov	x0, x19
  978e70:	8b34c2f3 	add	x19, x23, w20, sxtw
  978e74:	17ffffe4 	b	978e04 <vprintf+0xb8>
  978e78:	11002281 	add	w1, w20, #0x8
  978e7c:	7100003f 	cmp	w1, #0x0
  978e80:	5400008d 	b.le	978e90 <vprintf+0x144>
  978e84:	91002e60 	add	x0, x19, #0xb
  978e88:	927df000 	and	x0, x0, #0xfffffffffffffff8
  978e8c:	17fffff0 	b	978e4c <vprintf+0x100>
  978e90:	aa1303e0 	mov	x0, x19
  978e94:	8b34c2f3 	add	x19, x23, w20, sxtw
  978e98:	17ffffed 	b	978e4c <vprintf+0x100>
  978e9c:	aa1c03e0 	mov	x0, x28
  978ea0:	17ffffe1 	b	978e24 <vprintf+0xd8>
  978ea4:	37f80154 	tbnz	w20, #31, 978ecc <vprintf+0x180>
  978ea8:	91002e7b 	add	x27, x19, #0xb
  978eac:	2a1403fc 	mov	w28, w20
  978eb0:	927df37b 	and	x27, x27, #0xfffffffffffffff8
  978eb4:	b9400260 	ldr	w0, [x19]
  978eb8:	110006b5 	add	w21, w21, #0x1
  978ebc:	97ffe27e 	bl	9718b4 <putchar>
  978ec0:	2a1c03f4 	mov	w20, w28
  978ec4:	aa1b03f3 	mov	x19, x27
  978ec8:	17ffffc7 	b	978de4 <vprintf+0x98>
  978ecc:	1100229c 	add	w28, w20, #0x8
  978ed0:	7100039f 	cmp	w28, #0x0
  978ed4:	5400008d 	b.le	978ee4 <vprintf+0x198>
  978ed8:	91002e7b 	add	x27, x19, #0xb
  978edc:	927df37b 	and	x27, x27, #0xfffffffffffffff8
  978ee0:	17fffff5 	b	978eb4 <vprintf+0x168>
  978ee4:	aa1303fb 	mov	x27, x19
  978ee8:	8b34c2f3 	add	x19, x23, w20, sxtw
  978eec:	17fffff2 	b	978eb4 <vprintf+0x168>
  978ef0:	37f801b4 	tbnz	w20, #31, 978f24 <vprintf+0x1d8>
  978ef4:	91003e7b 	add	x27, x19, #0xf
  978ef8:	2a1403fc 	mov	w28, w20
  978efc:	927df37b 	and	x27, x27, #0xfffffffffffffff8
  978f00:	f9400274 	ldr	x20, [x19]
  978f04:	d2800013 	mov	x19, #0x0                   	// #0
  978f08:	d1000694 	sub	x20, x20, #0x1
  978f0c:	2a1303e1 	mov	w1, w19
  978f10:	91000673 	add	x19, x19, #0x1
  978f14:	38736a80 	ldrb	w0, [x20, x19]
  978f18:	35000180 	cbnz	w0, 978f48 <vprintf+0x1fc>
  978f1c:	0b0102b5 	add	w21, w21, w1
  978f20:	17ffffe8 	b	978ec0 <vprintf+0x174>
  978f24:	1100229c 	add	w28, w20, #0x8
  978f28:	7100039f 	cmp	w28, #0x0
  978f2c:	5400008d 	b.le	978f3c <vprintf+0x1f0>
  978f30:	91003e7b 	add	x27, x19, #0xf
  978f34:	927df37b 	and	x27, x27, #0xfffffffffffffff8
  978f38:	17fffff2 	b	978f00 <vprintf+0x1b4>
  978f3c:	aa1303fb 	mov	x27, x19
  978f40:	8b34c2f3 	add	x19, x23, w20, sxtw
  978f44:	17ffffef 	b	978f00 <vprintf+0x1b4>
  978f48:	97ffe25b 	bl	9718b4 <putchar>
  978f4c:	17fffff0 	b	978f0c <vprintf+0x1c0>
  978f50:	37f80214 	tbnz	w20, #31, 978f90 <vprintf+0x244>
  978f54:	91003e7c 	add	x28, x19, #0xf
  978f58:	2a1403fa 	mov	w26, w20
  978f5c:	927df39c 	and	x28, x28, #0xfffffffffffffff8
  978f60:	f9400266 	ldr	x6, [x19]
  978f64:	b50003c6 	cbnz	x6, 978fdc <vprintf+0x290>
  978f68:	2a1b03e3 	mov	w3, w27
  978f6c:	2a1803e2 	mov	w2, w24
  978f70:	aa0603e0 	mov	x0, x6
  978f74:	52800004 	mov	w4, #0x0                   	// #0
  978f78:	52800201 	mov	w1, #0x10                  	// #16
  978f7c:	2a1a03f4 	mov	w20, w26
  978f80:	97ffff39 	bl	978c64 <unsigned_num_print.part.0>
  978f84:	aa1c03f3 	mov	x19, x28
  978f88:	0b0002b5 	add	w21, w21, w0
  978f8c:	17ffff96 	b	978de4 <vprintf+0x98>
  978f90:	1100229a 	add	w26, w20, #0x8
  978f94:	7100035f 	cmp	w26, #0x0
  978f98:	5400008d 	b.le	978fa8 <vprintf+0x25c>
  978f9c:	91003e7c 	add	x28, x19, #0xf
  978fa0:	927df39c 	and	x28, x28, #0xfffffffffffffff8
  978fa4:	17ffffef 	b	978f60 <vprintf+0x214>
  978fa8:	aa1303fc 	mov	x28, x19
  978fac:	8b34c2f3 	add	x19, x23, w20, sxtw
  978fb0:	17ffffec 	b	978f60 <vprintf+0x214>
  978fb4:	f90037e6 	str	x6, [sp, #104]
  978fb8:	97ffe23f 	bl	9718b4 <putchar>
  978fbc:	f94037e6 	ldr	x6, [sp, #104]
  978fc0:	2a1303e1 	mov	w1, w19
  978fc4:	91000673 	add	x19, x19, #0x1
  978fc8:	38736a80 	ldrb	w0, [x20, x19]
  978fcc:	35ffff40 	cbnz	w0, 978fb4 <vprintf+0x268>
  978fd0:	0b0102b5 	add	w21, w21, w1
  978fd4:	51000b7b 	sub	w27, w27, #0x2
  978fd8:	17ffffe4 	b	978f68 <vprintf+0x21c>
  978fdc:	b0000014 	adrp	x20, 979000 <vprintf+0x2b4>
  978fe0:	d2800013 	mov	x19, #0x0                   	// #0
  978fe4:	912ff694 	add	x20, x20, #0xbfd
  978fe8:	17fffff6 	b	978fc0 <vprintf+0x274>
  978fec:	52800004 	mov	w4, #0x0                   	// #0
  978ff0:	7100043f 	cmp	w1, #0x1
  978ff4:	540001cd 	b.le	97902c <vprintf+0x2e0>
  978ff8:	37f80294 	tbnz	w20, #31, 979048 <vprintf+0x2fc>
  978ffc:	91003e61 	add	x1, x19, #0xf
  979000:	2a1403e2 	mov	w2, w20
  979004:	927df021 	and	x1, x1, #0xfffffffffffffff8
  979008:	f9400260 	ldr	x0, [x19]
  97900c:	2a0203f4 	mov	w20, w2
  979010:	2a1b03e3 	mov	w3, w27
  979014:	2a1803e2 	mov	w2, w24
  979018:	aa0103f3 	mov	x19, x1
  97901c:	52800201 	mov	w1, #0x10                  	// #16
  979020:	97ffff11 	bl	978c64 <unsigned_num_print.part.0>
  979024:	0b0002b5 	add	w21, w21, w0
  979028:	17ffff6f 	b	978de4 <vprintf+0x98>
  97902c:	54fffe60 	b.eq	978ff8 <vprintf+0x2ac>  // b.none
  979030:	37f801f4 	tbnz	w20, #31, 97906c <vprintf+0x320>
  979034:	91002e61 	add	x1, x19, #0xb
  979038:	2a1403e2 	mov	w2, w20
  97903c:	927df021 	and	x1, x1, #0xfffffffffffffff8
  979040:	b9400260 	ldr	w0, [x19]
  979044:	17fffff2 	b	97900c <vprintf+0x2c0>
  979048:	11002282 	add	w2, w20, #0x8
  97904c:	7100005f 	cmp	w2, #0x0
  979050:	5400008d 	b.le	979060 <vprintf+0x314>
  979054:	91003e61 	add	x1, x19, #0xf
  979058:	927df021 	and	x1, x1, #0xfffffffffffffff8
  97905c:	17ffffeb 	b	979008 <vprintf+0x2bc>
  979060:	aa1303e1 	mov	x1, x19
  979064:	8b34c2f3 	add	x19, x23, w20, sxtw
  979068:	17ffffe8 	b	979008 <vprintf+0x2bc>
  97906c:	11002282 	add	w2, w20, #0x8
  979070:	7100005f 	cmp	w2, #0x0
  979074:	5400008d 	b.le	979084 <vprintf+0x338>
  979078:	91002e61 	add	x1, x19, #0xb
  97907c:	927df021 	and	x1, x1, #0xfffffffffffffff8
  979080:	17fffff0 	b	979040 <vprintf+0x2f4>
  979084:	aa1303e1 	mov	x1, x19
  979088:	8b34c2f3 	add	x19, x23, w20, sxtw
  97908c:	17ffffed 	b	979040 <vprintf+0x2f4>
  979090:	910006d6 	add	x22, x22, #0x1
  979094:	2a1803e0 	mov	w0, w24
  979098:	52800041 	mov	w1, #0x2                   	// #2
  97909c:	2a0003f8 	mov	w24, w0
  9790a0:	394002c0 	ldrb	w0, [x22]
  9790a4:	7101e81f 	cmp	w0, #0x7a
  9790a8:	54000148 	b.hi	9790d0 <vprintf+0x384>  // b.pmore
  9790ac:	7101881f 	cmp	w0, #0x62
  9790b0:	54ffe8a8 	b.hi	978dc4 <vprintf+0x78>  // b.pmore
  9790b4:	7100c01f 	cmp	w0, #0x30
  9790b8:	540005e0 	b.eq	979174 <vprintf+0x428>  // b.none
  9790bc:	52800024 	mov	w4, #0x1                   	// #1
  9790c0:	7101601f 	cmp	w0, #0x58
  9790c4:	54fff960 	b.eq	978ff0 <vprintf+0x2a4>  // b.none
  9790c8:	7100941f 	cmp	w0, #0x25
  9790cc:	54ffe8a0 	b.eq	978de0 <vprintf+0x94>  // b.none
  9790d0:	12800015 	mov	w21, #0xffffffff            	// #-1
  9790d4:	17ffff2e 	b	978d8c <vprintf+0x40>
  9790d8:	11000421 	add	w1, w1, #0x1
  9790dc:	910006d6 	add	x22, x22, #0x1
  9790e0:	2a1803e0 	mov	w0, w24
  9790e4:	17ffffee 	b	97909c <vprintf+0x350>
  9790e8:	7100043f 	cmp	w1, #0x1
  9790ec:	5400012d 	b.le	979110 <vprintf+0x3c4>
  9790f0:	37f801f4 	tbnz	w20, #31, 97912c <vprintf+0x3e0>
  9790f4:	91003e61 	add	x1, x19, #0xf
  9790f8:	2a1403e2 	mov	w2, w20
  9790fc:	927df021 	and	x1, x1, #0xfffffffffffffff8
  979100:	f9400260 	ldr	x0, [x19]
  979104:	2a0203f4 	mov	w20, w2
  979108:	aa0103f3 	mov	x19, x1
  97910c:	17ffff46 	b	978e24 <vprintf+0xd8>
  979110:	54ffff00 	b.eq	9790f0 <vprintf+0x3a4>  // b.none
  979114:	37f801f4 	tbnz	w20, #31, 979150 <vprintf+0x404>
  979118:	91002e61 	add	x1, x19, #0xb
  97911c:	2a1403e2 	mov	w2, w20
  979120:	927df021 	and	x1, x1, #0xfffffffffffffff8
  979124:	b9400260 	ldr	w0, [x19]
  979128:	17fffff7 	b	979104 <vprintf+0x3b8>
  97912c:	11002282 	add	w2, w20, #0x8
  979130:	7100005f 	cmp	w2, #0x0
  979134:	5400008d 	b.le	979144 <vprintf+0x3f8>
  979138:	91003e61 	add	x1, x19, #0xf
  97913c:	927df021 	and	x1, x1, #0xfffffffffffffff8
  979140:	17fffff0 	b	979100 <vprintf+0x3b4>
  979144:	aa1303e1 	mov	x1, x19
  979148:	8b34c2f3 	add	x19, x23, w20, sxtw
  97914c:	17ffffed 	b	979100 <vprintf+0x3b4>
  979150:	11002282 	add	w2, w20, #0x8
  979154:	7100005f 	cmp	w2, #0x0
  979158:	5400008d 	b.le	979168 <vprintf+0x41c>
  97915c:	91002e61 	add	x1, x19, #0xb
  979160:	927df021 	and	x1, x1, #0xfffffffffffffff8
  979164:	17fffff0 	b	979124 <vprintf+0x3d8>
  979168:	aa1303e1 	mov	x1, x19
  97916c:	8b34c2f3 	add	x19, x23, w20, sxtw
  979170:	17ffffed 	b	979124 <vprintf+0x3d8>
  979174:	910006d6 	add	x22, x22, #0x1
  979178:	5280001b 	mov	w27, #0x0                   	// #0
  97917c:	394002c2 	ldrb	w2, [x22]
  979180:	5100c042 	sub	w2, w2, #0x30
  979184:	12001c43 	and	w3, w2, #0xff
  979188:	7100247f 	cmp	w3, #0x9
  97918c:	54fff888 	b.hi	97909c <vprintf+0x350>  // b.pmore
  979190:	52800143 	mov	w3, #0xa                   	// #10
  979194:	910006d6 	add	x22, x22, #0x1
  979198:	1b030b7b 	madd	w27, w27, w3, w2
  97919c:	17fffff8 	b	97917c <vprintf+0x430>
  9791a0:	110006b5 	add	w21, w21, #0x1
  9791a4:	97ffe1c4 	bl	9718b4 <putchar>
  9791a8:	17fffef7 	b	978d84 <vprintf+0x38>

00000000009791ac <strchr>:
  9791ac:	12001c21 	and	w1, w1, #0xff
  9791b0:	39400002 	ldrb	w2, [x0]
  9791b4:	6b01005f 	cmp	w2, w1
  9791b8:	540000a0 	b.eq	9791cc <strchr+0x20>  // b.none
  9791bc:	34000062 	cbz	w2, 9791c8 <strchr+0x1c>
  9791c0:	91000400 	add	x0, x0, #0x1
  9791c4:	17fffffb 	b	9791b0 <strchr+0x4>
  9791c8:	d2800000 	mov	x0, #0x0                   	// #0
  9791cc:	d65f03c0 	ret

00000000009791d0 <strlen>:
  9791d0:	aa0003e1 	mov	x1, x0
  9791d4:	39400022 	ldrb	w2, [x1]
  9791d8:	35000062 	cbnz	w2, 9791e4 <strlen+0x14>
  9791dc:	cb000020 	sub	x0, x1, x0
  9791e0:	d65f03c0 	ret
  9791e4:	91000421 	add	x1, x1, #0x1
  9791e8:	17fffffb 	b	9791d4 <strlen+0x4>
  9791ec:	00000000 	udf	#0

00000000009791f0 <aipstz>:
  9791f0:	301f0000 00000000 77777777 77777777     ...0....wwwwwwww
	...
  979218:	305f0000 00000000 77777777 77777777     .._0....wwwwwwww
	...
  979240:	309f0000 00000000 77777777 77777777     ...0....wwwwwwww
	...
  979268:	32df0000 00000000 77777777 77777777     ...2....wwwwwwww
	...

00000000009792b8 <imx_mmap>:
  9792b8:	38800000 00000000 38800000 00000000     ...8.......8....
  9792c8:	00200000 00000000 00000008 00000000     .. .............
  9792d8:	40000000 00000000 30000000 00000000     ...@.......0....
  9792e8:	30000000 00000000 03000000 00000000     ...0............
  9792f8:	00000008 00000000 40000000 00000000     ...........@....
  979308:	00180000 00000000 00180000 00000000     ................
  979318:	00008000 00000000 0000000a 00000000     ................
  979328:	40000000 00000000 3c000000 00000000     ...@.......<....
  979338:	3c000000 00000000 01900000 00000000     ...<............
  979348:	00000008 00000000 40000000 00000000     ...........@....
  979358:	32700000 00000000 32700000 00000000     ..p2......p2....
  979368:	00100000 00000000 00000008 00000000     ................
  979378:	40000000 00000000 00100000 00000000     ...@............
  979388:	00100000 00000000 00010000 00000000     ................
  979398:	0000000a 00000000 40000000 00000000     ...........@....
  9793a8:	00900000 00000000 00900000 00000000     ................
  9793b8:	00060000 00000000 0000000a 00000000     ................
  9793c8:	40000000 00000000 40000000 00000000     ...@.......@....
  9793d8:	40000000 00000000 c0000000 00000000     ...@............
  9793e8:	0000001a 00000000 40000000 00000000     ...........@....
	...
  979408:	00040000 00000000 00000002 00000000     ................
  979418:	40000000 00000000 38330000 00000000     ...@......38....
  979428:	38330000 00000000 00010000 00000000     ..38............
  979438:	00000008 00000000 40000000 00000000     ...........@....
  979448:	007e0000 00000000 007e0000 00000000     ..~.......~.....
  979458:	00040000 00000000 0000001a 00000000     ................
  979468:	40000000 00000000 00000000 00000000     ...@............
	...

0000000000979498 <cortex_a53_errata_list_start>:
	...
  9794a0:	00978338 	.word	0x00978338
  9794a4:	00000000 	.word	0x00000000
  9794a8:	000c8110 	.word	0x000c8110
  9794ac:	01010000 	.word	0x01010000
	...
  9794b8:	00978340 	.word	0x00978340
  9794bc:	00000000 	.word	0x00000000
  9794c0:	000c9305 	.word	0x000c9305
  9794c4:	01010000 	.word	0x01010000
	...
  9794d0:	00978348 	.word	0x00978348
  9794d4:	00000000 	.word	0x00000000
  9794d8:	000c9bcf 	.word	0x000c9bcf
  9794dc:	01000000 	.word	0x01000000
	...
  9794e8:	00978350 	.word	0x00978350
  9794ec:	00000000 	.word	0x00000000
  9794f0:	000c9fb7 	.word	0x000c9fb7
  9794f4:	01010000 	.word	0x01010000
	...
  979500:	00978358 	.word	0x00978358
  979504:	00000000 	.word	0x00000000
  979508:	000cc0b9 	.word	0x000cc0b9
  97950c:	01010000 	.word	0x01010000
	...
  979518:	0097837c 	.word	0x0097837c
  97951c:	00000000 	.word	0x00000000
  979520:	000cc506 	.word	0x000cc506
  979524:	01000000 	.word	0x01000000
	...
  979530:	00978384 	.word	0x00978384
  979534:	00000000 	.word	0x00000000
  979538:	000cde9b 	.word	0x000cde9b
  97953c:	01010000 	.word	0x01010000
  979540:	009783a8 	.word	0x009783a8
  979544:	00000000 	.word	0x00000000
  979548:	009783c8 	.word	0x009783c8
  97954c:	00000000 	.word	0x00000000
  979550:	000d0f41 	.word	0x000d0f41
  979554:	01010000 	.word	0x01010000
	...
  979560:	009783d0 	.word	0x009783d0
  979564:	00000000 	.word	0x00000000
  979568:	00175c2c 	.word	0x00175c2c
  97956c:	01000000 	.word	0x01000000

0000000000979570 <cortex_a53_errata_list_end>:
  979570:	0a030600 	.word	0x0a030600
  979574:	1715120f 	.word	0x1715120f
  979578:	39222120 	.word	0x39222120
  97957c:	391c1939 	.word	0x391c1939
  979580:	242a3939 	.word	0x242a3939
  979584:	00000026 	.word	0x00000026
  979588:	d9d602d1 	.word	0xd9d602d1
  97958c:	02e002dc 	.word	0x02e002dc
  979590:	02020202 	.word	0x02020202
  979594:	0202e7e3 	.word	0x0202e7e3
  979598:	f102f402 	.word	0xf102f402
  97959c:	20242414 	.word	0x20242414
  9795a0:	1c241708 	.word	0x1c241708

00000000009795a4 <g01s_interrupt_props>:
  9795a4:	00200008 20170900                       .. .... 

00000000009795ac <fsp_init_reg>:
  9795ac:	3d4000dc 3d4000e0 3d4000e8 3d4000ec     ..@=..@=..@=..@=
  9795bc:	3d4020dc 3d4020e0 3d4020e8 3d4020ec     . @=. @=. @=. @=
  9795cc:	3d4030dc 3d4030e0 3d4030e8 3d4030ec     .0@=.0@=.0@=.0@=

00000000009795dc <gpc_imr_offset>:
  9795dc:	00000030 00000044 00000194 000001a8     0...D...........
  9795ec:	31241400                                ..$1

00000000009795f0 <noc_setting>:
  9795f0:	00000004 00000180 00000180 80000303     ................
	...
  979608:	00000005 00000200 00000200 80000303     ................
	...
  979620:	00000005 00000280 00000480 80000404     ................
	...
  979638:	00000006 00000500 00000580 80000303     ................
	...
  979650:	00000011 00000600 00000680 80000202     ................
  979660:	00000000 00000001 00000011 00000700     ................
  979670:	00000700 80000505 00000000 00000000     ................
  979680:	00000000 00000780 00000900 80000303     ................
	...
  979698:	0000000d 00000980 00000b80 80000202     ................
  9796a8:	00000000 00000001 0000000e 00000c00     ................
  9796b8:	00000d00 80000707 00000000 00000000     ................
  9796c8:	0000000a 00000d80 00000d80 80000303     ................
	...
  9796e0:	0000000b 00000e00 00000e00 80000303     ................
	...
  9796f8:	0000000c 00000e80 00000e80 80000303     ................
	...

0000000000979710 <pu_domains>:
  979710:	00020000 00001000 10000000 00000f40     ............@...
  979720:	00000001 00000002 00000000 00000000     ................
  979730:	00000b40 00000000 00000004 00000000     @...............
  979740:	00000000 00000b80 00000100 00000008     ................
	...
  979758:	00000bc0 00000100 00000010 00000180     ................
  979768:	01800000 00000c00 00000001 00000020     ............ ...
  979778:	00008010 80100000 00000c40 00000001     ........@.......
  979788:	00000080 00000200 02000000 00000cc0     ................
  979798:	00000001 00000040 00000000 00000000     ....@...........
  9797a8:	00000c80 00000000 00000200 00000000     ................
  9797b8:	00000000 00000d40 00000000 00000100     ....@...........
  9797c8:	00000400 04000000 00000d00 00000001     ................
  9797d8:	00000800 00000000 00000000 00000dc0     ................
  9797e8:	00000000 00001000 00000000 00000000     ................
  9797f8:	00000e00 00000000 00002000 00000000     ......... ......
  979808:	00000000 00000e40 00000000 00000400     ....@...........
  979818:	00004000 40000000 00000d80 00000001     .@.....@........
  979828:	00040000 00000000 00000000 00000f80     ................
  979838:	00000000 00000001 00000000 00000000     ................
  979848:	00000b00 00000000 00010000 00000000     ................
  979858:	00000000 00000f00 00000000 00004000     .............@..
  979868:	00002000 20000000 00000e80 00000001     . ..... ........
  979878:	00008000 00000000 00000000 00000ec0     ................
	...

00000000009798a0 <csu_cfg>:
  9798a0:	00000001 007e0076 00000001 007e0077     ....v.~.....w.~.
	...

00000000009798b8 <rdc>:
  9798b8:	00000001 00000001 00000001 00000000     ................
  9798c8:	00000000 00000002 00000069 00000003     ........i.......
	...
  9798e0:	00000002 00000008 00000003 00000000     ................
  9798f0:	00000000 00000002 0000001d 0000000b     ................
	...
  97991c:	1605000e 2c08231e 00000029 15151500     .....#.,).......
  97992c:	15241815 00000015 00030031 00bc00bc     ..$.....1.......
  97993c:	00bc00bc 00bc0003 00be00bc 00bc00bc     ................
  97994c:	005c00bc 00bc00bc 00bc0044 00bc00c2     ..\.....D.......
  97995c:	008300bc 00ac00bc                       ........

0000000000979964 <build_message>:
  979964:	6c697542 203a2074 303a3630 39343a31     Built : 06:01:49
  979974:	614d202c 37202072 32303220               , Mar  7 2026.

0000000000979982 <version_string>:
  979982:	312e3276 09302e30 6c657228 65736165     v2.10.0.(release
  979992:	75613a29 6f6d6f74 65766974 2e34312d     ):automotive-14.
  9799a2:	5f302e30 2e332e32 450a0030 7320314c     0.0_2.3.0..EL1 s
  9799b2:	6f707075 20737472 63724141 2d343668     upports AArch64-
  9799c2:	796c6e6f 6c50202e 65736165 74657320     only. Please set
  9799d2:	69756220 6620646c 2067616c 5f585443      build flag CTX_
  9799e2:	4c434e49 5f454455 43524141 5f323348     INCLUDE_AARCH32_
  9799f2:	53474552 30203d20 4214000a 3a31334c     REGS = 0...BL31:
  979a02:	0a732520 6e490a00 696c6176 75722064      %s...Invalid ru
  979a12:	6d69746e 65732065 63697672 65642065     ntime service de
  979a22:	69726373 726f7470 0a702520 72450a00     scriptor %p...Er
  979a32:	20726f72 74696e69 696c6169 676e697a     ror initializing
  979a42:	6e757220 656d6974 72657320 65636976      runtime service
  979a52:	0a732520 6e490a00 696c6176 65732064      %s...Invalid se
  979a62:	69727563 73207974 65746174 550a000a     curity state...U
  979a72:	7078656e 65746365 66612064 696e6966     nexpected affini
  979a82:	69207974 206f666e 74617473 000a2e65     ty info state...
  979a92:	766e490a 64696c61 72617420 20746567     .Invalid target 
  979aa2:	65776f70 656c2072 206c6576 20726f66     power level for 
  979ab2:	70737573 20646e65 7265706f 6f697461     suspend operatio
  979ac2:	0a000a6e 70616d6d 6464615f 6765725f     n...mmap_add_reg
  979ad2:	5f6e6f69 63656863 2029286b 6c696166     ion_check() fail
  979ae2:	202e6465 6f727265 64252072 4e0a000a     ed. error %d...N
  979af2:	6520746f 67756f6e 656d2068 79726f6d     ot enough memory
  979b02:	206f7420 2070616d 69676572 0a3a6e6f      to map region:.
  979b12:	3a415620 6c257830 50202078 78303a41      VA:0x%lx  PA:0x
  979b22:	786c6c25 69732020 303a657a 787a2578     %llx  size:0x%zx
  979b32:	74612020 303a7274 0a782578                 attr:0x%x..

0000000000979b3f <CSWTCH.13>:
  979b3f:	03010200 4f525245 20203a52 4f4e0020     ....ERROR:   .NO
  979b4f:	45434954 0020203a 4e524157 3a474e49     TICE:  .WARNING:
  979b5f:	4e490020 203a4f46 00202020 42524556      .INFO:    .VERB
  979b6f:	3a45534f                                 OSE: .

0000000000979b75 <imx_power_domain_tree_desc>:
  979b75:	00040101 5f786d69 5f706973 00637673     ....imx_sip_svc.
  979b85:	5f75636d 00636472 206f4414 20746f6e     mcu_rdc..Do not 
  979b95:	656c6572 20657361 2030524a 4e206f74     release JR0 to N
  979ba5:	73612053 20746920 206e6163 75206562     S as it can be u
  979bb5:	20646573 48207962 000a4241 5f6d7261     sed by HAB..arm_
  979bc5:	68637261 6376735f 74706f00 5f646565     arch_svc.opteed_
  979bd5:	00647473 6574706f 665f6465 00747361     std.opteed_fast.
  979be5:	5f647473 00637673                       std_svc.

0000000000979bed <panic_msg>:
  979bed:	50          	.byte	0x50
  979bee:	4e41      	.short	0x4e41
  979bf0:	61204349 	.word	0x61204349
  979bf4:	43502074 	.word	0x43502074
  979bf8:	30203a20 	.word	0x30203a20
  979bfc:	78300078 	.word	0x78300078
	...

0000000000979c08 <__svc_desc_imx_sip_svc>:
  979c08:	00010202 00000000 00979b79 00000000     ........y.......
  979c18:	00974360 00000000 00974368 00000000     `C......hC......

0000000000979c28 <__svc_desc_arm_arch_svc>:
  979c28:	00010000 00000000 00979bc1 00000000     ................
	...
  979c40:	009773c0 00000000                       .s......

0000000000979c48 <__svc_desc_opteed_std>:
  979c48:	00003f32 00000000 00979bce 00000000     2?..............
	...
  979c60:	00977670 00000000                       pv......

0000000000979c68 <__svc_desc_opteed_fast>:
  979c68:	00013f32 00000000 00979bd9 00000000     2?..............
  979c78:	00977868 00000000 00977670 00000000     hx......pv......

0000000000979c88 <__svc_desc_std_svc>:
  979c88:	00010404 00000000 00979be5 00000000     ................
  979c98:	00977d14 00000000 00977c5c 00000000     .}......\|......

0000000000979ca8 <__CPU_OPS_START__>:
  979ca8:	410fd030 	.word	0x410fd030
  979cac:	00000000 	.word	0x00000000
  979cb0:	009783d8 	.word	0x009783d8
	...
  979cd8:	00978430 	.word	0x00978430
  979cdc:	00000000 	.word	0x00000000
  979ce0:	00978448 	.word	0x00978448
  979ce4:	00000000 	.word	0x00000000
  979ce8:	00979498 	.word	0x00979498
  979cec:	00000000 	.word	0x00000000
  979cf0:	00979570 	.word	0x00979570
  979cf4:	00000000 	.word	0x00000000

0000000000979cf8 <__CPU_OPS_END__>:
  979cf8:	0097b2b0 	.word	0x0097b2b0
  979cfc:	00000000 	.word	0x00000000
  979d00:	0098c000 	.word	0x0098c000
  979d04:	00000000 	.word	0x00000000
  979d08:	00979982 	.word	0x00979982
  979d0c:	00000000 	.word	0x00000000
  979d10:	00979e20 	.word	0x00979e20
  979d14:	00000000 	.word	0x00000000
  979d18:	00979964 	.word	0x00979964
  979d1c:	00000000 	.word	0x00000000
  979d20:	00979e28 	.word	0x00979e28
  979d24:	00000000 	.word	0x00000000
  979d28:	00979c08 	.word	0x00979c08
  979d2c:	00000000 	.word	0x00000000
  979d30:	00979e20 	.word	0x00979e20
  979d34:	00000000 	.word	0x00000000
  979d38:	00979e28 	.word	0x00979e28
  979d3c:	00000000 	.word	0x00000000
  979d40:	00979ca8 	.word	0x00979ca8
  979d44:	00000000 	.word	0x00000000
  979d48:	0097fd40 	.word	0x0097fd40
  979d4c:	00000000 	.word	0x00000000
  979d50:	00979e28 	.word	0x00979e28
  979d54:	00000000 	.word	0x00000000
  979d58:	0097b1d0 	.word	0x0097b1d0
  979d5c:	00000000 	.word	0x00000000
  979d60:	00979e28 	.word	0x00979e28
  979d64:	00000000 	.word	0x00000000
  979d68:	00982ad4 	.word	0x00982ad4
  979d6c:	00000000 	.word	0x00000000
  979d70:	00970000 	.word	0x00970000
  979d74:	00000000 	.word	0x00000000
  979d78:	00979e28 	.word	0x00979e28
  979d7c:	00000000 	.word	0x00000000
  979d80:	0098b028 	.word	0x0098b028
  979d84:	00000000 	.word	0x00000000
  979d88:	00979e20 	.word	0x00979e20
  979d8c:	00000000 	.word	0x00000000
  979d90:	0098b000 	.word	0x0098b000
  979d94:	00000000 	.word	0x00000000
  979d98:	00982ad0 	.word	0x00982ad0
  979d9c:	00000000 	.word	0x00000000
  979da0:	00979e28 	.word	0x00979e28
  979da4:	00000000 	.word	0x00000000
  979da8:	00982ac8 	.word	0x00982ac8
  979dac:	00000000 	.word	0x00000000
  979db0:	0097fd80 	.word	0x0097fd80
  979db4:	00000000 	.word	0x00000000
  979db8:	00979e20 	.word	0x00979e20
  979dbc:	00000000 	.word	0x00000000
  979dc0:	00979e28 	.word	0x00979e28
  979dc4:	00000000 	.word	0x00000000
  979dc8:	00980170 	.word	0x00980170
  979dcc:	00000000 	.word	0x00000000
  979dd0:	0097b000 	.word	0x0097b000
  979dd4:	00000000 	.word	0x00000000
  979dd8:	00970000 	.word	0x00970000
  979ddc:	00000000 	.word	0x00000000
  979de0:	00982ae4 	.word	0x00982ae4
  979de4:	00000000 	.word	0x00000000
  979de8:	00979e20 	.word	0x00979e20
  979dec:	00000000 	.word	0x00000000
  979df0:	0097f300 	.word	0x0097f300
  979df4:	00000000 	.word	0x00000000
  979df8:	00979e20 	.word	0x00979e20
  979dfc:	00000000 	.word	0x00000000
  979e00:	009800c8 	.word	0x009800c8
  979e04:	00000000 	.word	0x00000000
  979e08:	0097fce8 	.word	0x0097fce8
  979e0c:	00000000 	.word	0x00000000
  979e10:	00979e20 	.word	0x00979e20
  979e14:	00000000 	.word	0x00000000
  979e18:	0097fd88 	.word	0x0097fd88
  979e1c:	00000000 	.word	0x00000000

0000000000979e20 <__cb_func_spe_drain_buffers_hookcm_entering_secure_world>:
  979e20:	00971ea0 00000000                       ........

0000000000979e28 <__pubsub_cm_entering_normal_world_end>:
	...

000000000097a000 <sync_exception_sp_el0>:
  97a000:	17fff74e 	b	977d38 <report_unhandled_exception>
	...

000000000097a080 <irq_sp_el0>:
  97a080:	17fff72e 	b	977d38 <report_unhandled_exception>
	...

000000000097a100 <fiq_sp_el0>:
  97a100:	17fff70e 	b	977d38 <report_unhandled_exception>
	...

000000000097a180 <serror_sp_el0>:
  97a180:	97fffa01 	bl	978984 <plat_handle_el3_ea>
	...

000000000097a200 <sync_exception_sp_elx>:
  97a200:	17fff6ce 	b	977d38 <report_unhandled_exception>
	...

000000000097a280 <irq_sp_elx>:
  97a280:	17fff6ae 	b	977d38 <report_unhandled_exception>
	...

000000000097a300 <fiq_sp_elx>:
  97a300:	17fff68e 	b	977d38 <report_unhandled_exception>
	...

000000000097a380 <serror_sp_elx>:
  97a380:	97fff981 	bl	978984 <plat_handle_el3_ea>
	...

000000000097a400 <sync_exception_aarch64>:
  97a400:	f9007bfe 	str	x30, [sp, #240]
  97a404:	d5033f9f 	dsb	sy
  97a408:	d5033fdf 	isb
  97a40c:	d538c11e 	mrs	x30, isr_el1
  97a410:	3640005e 	tbz	w30, #8, 97a418 <sync_exception_aarch64+0x18>
  97a414:	97fff6a5 	bl	977ea8 <reflect_pending_async_ea_to_lower_el>
  97a418:	d50344ff 	msr	daifclr, #0x4
  97a41c:	d5033fdf 	isb
  97a420:	d53e521e 	mrs	x30, esr_el3
  97a424:	d35a7fde 	ubfx	x30, x30, #26, #6
  97a428:	f1004fdf 	cmp	x30, #0x13
  97a42c:	54fec880 	b.eq	977d3c <sync_exception_handler>  // b.none
  97a430:	f1005fdf 	cmp	x30, #0x17
  97a434:	54fec860 	b.eq	977d40 <sync_handler64>  // b.none
  97a438:	f10063df 	cmp	x30, #0x18
  97a43c:	54fec820 	b.eq	977d40 <sync_handler64>  // b.none
  97a440:	f1007fdf 	cmp	x30, #0x1f
  97a444:	54fed160 	b.eq	977e70 <imp_def_el3_handler>  // b.none
  97a448:	17fff63c 	b	977d38 <report_unhandled_exception>
	...

000000000097a480 <irq_aarch64>:
  97a480:	f9007bfe 	str	x30, [sp, #240]
  97a484:	d5033f9f 	dsb	sy
  97a488:	d5033fdf 	isb
  97a48c:	d538c11e 	mrs	x30, isr_el1
  97a490:	3640005e 	tbz	w30, #8, 97a498 <irq_aarch64+0x18>
  97a494:	97fff685 	bl	977ea8 <reflect_pending_async_ea_to_lower_el>
  97a498:	d50344ff 	msr	daifclr, #0x4
  97a49c:	d5033fdf 	isb
  97a4a0:	17fff65f 	b	977e1c <handle_interrupt_exception>
	...

000000000097a500 <fiq_aarch64>:
  97a500:	f9007bfe 	str	x30, [sp, #240]
  97a504:	d5033f9f 	dsb	sy
  97a508:	d5033fdf 	isb
  97a50c:	d538c11e 	mrs	x30, isr_el1
  97a510:	3640005e 	tbz	w30, #8, 97a518 <fiq_aarch64+0x18>
  97a514:	97fff665 	bl	977ea8 <reflect_pending_async_ea_to_lower_el>
  97a518:	d50344ff 	msr	daifclr, #0x4
  97a51c:	d5033fdf 	isb
  97a520:	17fff63f 	b	977e1c <handle_interrupt_exception>
	...

000000000097a580 <serror_aarch64>:
  97a580:	17fff5ee 	b	977d38 <report_unhandled_exception>
	...

000000000097a600 <sync_exception_aarch32>:
  97a600:	f9007bfe 	str	x30, [sp, #240]
  97a604:	d5033f9f 	dsb	sy
  97a608:	d5033fdf 	isb
  97a60c:	d538c11e 	mrs	x30, isr_el1
  97a610:	3640005e 	tbz	w30, #8, 97a618 <sync_exception_aarch32+0x18>
  97a614:	97fff625 	bl	977ea8 <reflect_pending_async_ea_to_lower_el>
  97a618:	d50344ff 	msr	daifclr, #0x4
  97a61c:	d5033fdf 	isb
  97a620:	d53e521e 	mrs	x30, esr_el3
  97a624:	d35a7fde 	ubfx	x30, x30, #26, #6
  97a628:	f1004fdf 	cmp	x30, #0x13
  97a62c:	54feb880 	b.eq	977d3c <sync_exception_handler>  // b.none
  97a630:	f1005fdf 	cmp	x30, #0x17
  97a634:	54feb860 	b.eq	977d40 <sync_handler64>  // b.none
  97a638:	f10063df 	cmp	x30, #0x18
  97a63c:	54feb820 	b.eq	977d40 <sync_handler64>  // b.none
  97a640:	f1007fdf 	cmp	x30, #0x1f
  97a644:	54fec160 	b.eq	977e70 <imp_def_el3_handler>  // b.none
  97a648:	17fff5bc 	b	977d38 <report_unhandled_exception>
	...

000000000097a680 <irq_aarch32>:
  97a680:	f9007bfe 	str	x30, [sp, #240]
  97a684:	d5033f9f 	dsb	sy
  97a688:	d5033fdf 	isb
  97a68c:	d538c11e 	mrs	x30, isr_el1
  97a690:	3640005e 	tbz	w30, #8, 97a698 <irq_aarch32+0x18>
  97a694:	97fff605 	bl	977ea8 <reflect_pending_async_ea_to_lower_el>
  97a698:	d50344ff 	msr	daifclr, #0x4
  97a69c:	d5033fdf 	isb
  97a6a0:	17fff5df 	b	977e1c <handle_interrupt_exception>
	...

000000000097a700 <fiq_aarch32>:
  97a700:	f9007bfe 	str	x30, [sp, #240]
  97a704:	d5033f9f 	dsb	sy
  97a708:	d5033fdf 	isb
  97a70c:	d538c11e 	mrs	x30, isr_el1
  97a710:	3640005e 	tbz	w30, #8, 97a718 <fiq_aarch32+0x18>
  97a714:	97fff5e5 	bl	977ea8 <reflect_pending_async_ea_to_lower_el>
  97a718:	d50344ff 	msr	daifclr, #0x4
  97a71c:	d5033fdf 	isb
  97a720:	17fff5bf 	b	977e1c <handle_interrupt_exception>
	...

000000000097a780 <serror_aarch32>:
  97a780:	17fff56e 	b	977d38 <report_unhandled_exception>
	...

000000000097a800 <__RO_END_UNALIGNED__>:
	...
